
rv64uv-ps-vwredsumu.vs_LMUL4SEW8:     file format elf64-littleriscv


Disassembly of section .text.init:

0000000080000000 <_start>:
    80000000:	00000297          	auipc	t0,0x0
    80000004:	00c28293          	addi	t0,t0,12 # 8000000c <_start+0xc>
    80000008:	00028067          	jr	t0
    8000000c:	fff00293          	li	t0,-1
    80000010:	0c22f357          	vsetvli	t1,t0,e8,m4,ta,ma
    80000014:	00005617          	auipc	a2,0x5
    80000018:	1fc60613          	addi	a2,a2,508 # 80005210 <tdat>
    8000001c:	02060807          	vle8.v	v16,(a2)
    80000020:	0c32f357          	vsetvli	t1,t0,e8,m8,ta,ma
    80000024:	02060407          	vle8.v	v8,(a2)
    80000028:	00005617          	auipc	a2,0x5
    8000002c:	1f060613          	addi	a2,a2,496 # 80005218 <tdat+0x8>
    80000030:	0c22f357          	vsetvli	t1,t0,e8,m4,ta,ma
    80000034:	02060c07          	vle8.v	v24,(a2)
    80000038:	04000293          	li	t0,64
    8000003c:	0c22f357          	vsetvli	t1,t0,e8,m4,ta,ma
    80000040:	c30c0457          	vwredsumu.vs	v8,v16,v24
    80000044:	fff00293          	li	t0,-1
    80000048:	0c32f357          	vsetvli	t1,t0,e8,m8,ta,ma
    8000004c:	00005597          	auipc	a1,0x5
    80000050:	fb458593          	addi	a1,a1,-76 # 80005000 <begin_signature>
    80000054:	02058427          	vse8.v	v8,(a1)

0000000080000058 <test_2>:
    80000058:	00200193          	li	gp,2
    8000005c:	0005b283          	ld	t0,0(a1)
    80000060:	00858593          	addi	a1,a1,8
    80000064:	000103b7          	lui	t2,0x10
    80000068:	3f93839b          	addiw	t2,t2,1017
    8000006c:	01439393          	slli	t2,t2,0x14
    80000070:	ef138393          	addi	t2,t2,-271 # fef1 <_start-0x7fff010f>
    80000074:	00c39393          	slli	t2,t2,0xc
    80000078:	48838393          	addi	t2,t2,1160
    8000007c:	00728463          	beq	t0,t2,80000084 <test_3>
    80000080:	5f10306f          	j	80003e70 <fail>

0000000080000084 <test_3>:
    80000084:	00300193          	li	gp,3
    80000088:	0005b283          	ld	t0,0(a1)
    8000008c:	00858593          	addi	a1,a1,8
    80000090:	010703b7          	lui	t2,0x1070
    80000094:	0013839b          	addiw	t2,t2,1
    80000098:	01839393          	slli	t2,t2,0x18
    8000009c:	10038393          	addi	t2,t2,256 # 1070100 <_start-0x7ef8ff00>
    800000a0:	00728463          	beq	t0,t2,800000a8 <test_4>
    800000a4:	5cd0306f          	j	80003e70 <fail>

00000000800000a8 <test_4>:
    800000a8:	00400193          	li	gp,4
    800000ac:	0005b283          	ld	t0,0(a1)
    800000b0:	00858593          	addi	a1,a1,8
    800000b4:	000103b7          	lui	t2,0x10
    800000b8:	3f93839b          	addiw	t2,t2,1017
    800000bc:	01439393          	slli	t2,t2,0x14
    800000c0:	eff38393          	addi	t2,t2,-257 # feff <_start-0x7fff0101>
    800000c4:	00c39393          	slli	t2,t2,0xc
    800000c8:	fff38393          	addi	t2,t2,-1
    800000cc:	00728463          	beq	t0,t2,800000d4 <test_5>
    800000d0:	5a10306f          	j	80003e70 <fail>

00000000800000d4 <test_5>:
    800000d4:	00500193          	li	gp,5
    800000d8:	0005b283          	ld	t0,0(a1)
    800000dc:	00858593          	addi	a1,a1,8
    800000e0:	010703b7          	lui	t2,0x1070
    800000e4:	0013839b          	addiw	t2,t2,1
    800000e8:	01839393          	slli	t2,t2,0x18
    800000ec:	10038393          	addi	t2,t2,256 # 1070100 <_start-0x7ef8ff00>
    800000f0:	00728463          	beq	t0,t2,800000f8 <test_6>
    800000f4:	57d0306f          	j	80003e70 <fail>

00000000800000f8 <test_6>:
    800000f8:	00600193          	li	gp,6
    800000fc:	0005b283          	ld	t0,0(a1)
    80000100:	00858593          	addi	a1,a1,8
    80000104:	000103b7          	lui	t2,0x10
    80000108:	3f93839b          	addiw	t2,t2,1017
    8000010c:	01439393          	slli	t2,t2,0x14
    80000110:	eff38393          	addi	t2,t2,-257 # feff <_start-0x7fff0101>
    80000114:	00c39393          	slli	t2,t2,0xc
    80000118:	fff38393          	addi	t2,t2,-1
    8000011c:	00728463          	beq	t0,t2,80000124 <test_7>
    80000120:	5510306f          	j	80003e70 <fail>

0000000080000124 <test_7>:
    80000124:	00700193          	li	gp,7
    80000128:	0005b283          	ld	t0,0(a1)
    8000012c:	00858593          	addi	a1,a1,8
    80000130:	010703b7          	lui	t2,0x1070
    80000134:	0013839b          	addiw	t2,t2,1
    80000138:	01839393          	slli	t2,t2,0x18
    8000013c:	10038393          	addi	t2,t2,256 # 1070100 <_start-0x7ef8ff00>
    80000140:	00728463          	beq	t0,t2,80000148 <test_8>
    80000144:	52d0306f          	j	80003e70 <fail>

0000000080000148 <test_8>:
    80000148:	00800193          	li	gp,8
    8000014c:	0005b283          	ld	t0,0(a1)
    80000150:	00858593          	addi	a1,a1,8
    80000154:	000103b7          	lui	t2,0x10
    80000158:	3f93839b          	addiw	t2,t2,1017
    8000015c:	01439393          	slli	t2,t2,0x14
    80000160:	eff38393          	addi	t2,t2,-257 # feff <_start-0x7fff0101>
    80000164:	00c39393          	slli	t2,t2,0xc
    80000168:	fff38393          	addi	t2,t2,-1
    8000016c:	00728463          	beq	t0,t2,80000174 <test_9>
    80000170:	5010306f          	j	80003e70 <fail>

0000000080000174 <test_9>:
    80000174:	00900193          	li	gp,9
    80000178:	0005b283          	ld	t0,0(a1)
    8000017c:	00858593          	addi	a1,a1,8
    80000180:	010703b7          	lui	t2,0x1070
    80000184:	0013839b          	addiw	t2,t2,1
    80000188:	01839393          	slli	t2,t2,0x18
    8000018c:	10038393          	addi	t2,t2,256 # 1070100 <_start-0x7ef8ff00>
    80000190:	00728463          	beq	t0,t2,80000198 <test_10>
    80000194:	4dd0306f          	j	80003e70 <fail>

0000000080000198 <test_10>:
    80000198:	00a00193          	li	gp,10
    8000019c:	0005b283          	ld	t0,0(a1)
    800001a0:	00858593          	addi	a1,a1,8
    800001a4:	000103b7          	lui	t2,0x10
    800001a8:	3f93839b          	addiw	t2,t2,1017
    800001ac:	01439393          	slli	t2,t2,0x14
    800001b0:	eff38393          	addi	t2,t2,-257 # feff <_start-0x7fff0101>
    800001b4:	00c39393          	slli	t2,t2,0xc
    800001b8:	fff38393          	addi	t2,t2,-1
    800001bc:	00728463          	beq	t0,t2,800001c4 <test_11>
    800001c0:	4b10306f          	j	80003e70 <fail>

00000000800001c4 <test_11>:
    800001c4:	00b00193          	li	gp,11
    800001c8:	0005b283          	ld	t0,0(a1)
    800001cc:	00858593          	addi	a1,a1,8
    800001d0:	010703b7          	lui	t2,0x1070
    800001d4:	0013839b          	addiw	t2,t2,1
    800001d8:	01839393          	slli	t2,t2,0x18
    800001dc:	10038393          	addi	t2,t2,256 # 1070100 <_start-0x7ef8ff00>
    800001e0:	00728463          	beq	t0,t2,800001e8 <test_12>
    800001e4:	48d0306f          	j	80003e70 <fail>

00000000800001e8 <test_12>:
    800001e8:	00c00193          	li	gp,12
    800001ec:	0005b283          	ld	t0,0(a1)
    800001f0:	00858593          	addi	a1,a1,8
    800001f4:	000103b7          	lui	t2,0x10
    800001f8:	3f93839b          	addiw	t2,t2,1017
    800001fc:	01439393          	slli	t2,t2,0x14
    80000200:	eff38393          	addi	t2,t2,-257 # feff <_start-0x7fff0101>
    80000204:	00c39393          	slli	t2,t2,0xc
    80000208:	fff38393          	addi	t2,t2,-1
    8000020c:	00728463          	beq	t0,t2,80000214 <test_13>
    80000210:	4610306f          	j	80003e70 <fail>

0000000080000214 <test_13>:
    80000214:	00d00193          	li	gp,13
    80000218:	0005b283          	ld	t0,0(a1)
    8000021c:	00858593          	addi	a1,a1,8
    80000220:	010703b7          	lui	t2,0x1070
    80000224:	0013839b          	addiw	t2,t2,1
    80000228:	01839393          	slli	t2,t2,0x18
    8000022c:	10038393          	addi	t2,t2,256 # 1070100 <_start-0x7ef8ff00>
    80000230:	00728463          	beq	t0,t2,80000238 <test_14>
    80000234:	43d0306f          	j	80003e70 <fail>

0000000080000238 <test_14>:
    80000238:	00e00193          	li	gp,14
    8000023c:	0005b283          	ld	t0,0(a1)
    80000240:	00858593          	addi	a1,a1,8
    80000244:	000103b7          	lui	t2,0x10
    80000248:	3f93839b          	addiw	t2,t2,1017
    8000024c:	01439393          	slli	t2,t2,0x14
    80000250:	eff38393          	addi	t2,t2,-257 # feff <_start-0x7fff0101>
    80000254:	00c39393          	slli	t2,t2,0xc
    80000258:	fff38393          	addi	t2,t2,-1
    8000025c:	00728463          	beq	t0,t2,80000264 <test_15>
    80000260:	4110306f          	j	80003e70 <fail>

0000000080000264 <test_15>:
    80000264:	00f00193          	li	gp,15
    80000268:	0005b283          	ld	t0,0(a1)
    8000026c:	00858593          	addi	a1,a1,8
    80000270:	010703b7          	lui	t2,0x1070
    80000274:	0013839b          	addiw	t2,t2,1
    80000278:	01839393          	slli	t2,t2,0x18
    8000027c:	10038393          	addi	t2,t2,256 # 1070100 <_start-0x7ef8ff00>
    80000280:	00728463          	beq	t0,t2,80000288 <test_16>
    80000284:	3ed0306f          	j	80003e70 <fail>

0000000080000288 <test_16>:
    80000288:	01000193          	li	gp,16
    8000028c:	0005b283          	ld	t0,0(a1)
    80000290:	00858593          	addi	a1,a1,8
    80000294:	000103b7          	lui	t2,0x10
    80000298:	3f93839b          	addiw	t2,t2,1017
    8000029c:	01439393          	slli	t2,t2,0x14
    800002a0:	eff38393          	addi	t2,t2,-257 # feff <_start-0x7fff0101>
    800002a4:	00c39393          	slli	t2,t2,0xc
    800002a8:	fff38393          	addi	t2,t2,-1
    800002ac:	00728463          	beq	t0,t2,800002b4 <test_17>
    800002b0:	3c10306f          	j	80003e70 <fail>

00000000800002b4 <test_17>:
    800002b4:	01100193          	li	gp,17
    800002b8:	0005b283          	ld	t0,0(a1)
    800002bc:	00858593          	addi	a1,a1,8
    800002c0:	010703b7          	lui	t2,0x1070
    800002c4:	0013839b          	addiw	t2,t2,1
    800002c8:	01839393          	slli	t2,t2,0x18
    800002cc:	10038393          	addi	t2,t2,256 # 1070100 <_start-0x7ef8ff00>
    800002d0:	00728463          	beq	t0,t2,800002d8 <test_18>
    800002d4:	39d0306f          	j	80003e70 <fail>

00000000800002d8 <test_18>:
    800002d8:	01200193          	li	gp,18
    800002dc:	0005b283          	ld	t0,0(a1)
    800002e0:	00858593          	addi	a1,a1,8
    800002e4:	000103b7          	lui	t2,0x10
    800002e8:	3f93839b          	addiw	t2,t2,1017
    800002ec:	01439393          	slli	t2,t2,0x14
    800002f0:	eff38393          	addi	t2,t2,-257 # feff <_start-0x7fff0101>
    800002f4:	00c39393          	slli	t2,t2,0xc
    800002f8:	fff38393          	addi	t2,t2,-1
    800002fc:	00728463          	beq	t0,t2,80000304 <test_19>
    80000300:	3710306f          	j	80003e70 <fail>

0000000080000304 <test_19>:
    80000304:	01300193          	li	gp,19
    80000308:	0005b283          	ld	t0,0(a1)
    8000030c:	00858593          	addi	a1,a1,8
    80000310:	010703b7          	lui	t2,0x1070
    80000314:	0013839b          	addiw	t2,t2,1
    80000318:	01839393          	slli	t2,t2,0x18
    8000031c:	10038393          	addi	t2,t2,256 # 1070100 <_start-0x7ef8ff00>
    80000320:	00728463          	beq	t0,t2,80000328 <test_20>
    80000324:	34d0306f          	j	80003e70 <fail>

0000000080000328 <test_20>:
    80000328:	01400193          	li	gp,20
    8000032c:	0005b283          	ld	t0,0(a1)
    80000330:	00858593          	addi	a1,a1,8
    80000334:	000103b7          	lui	t2,0x10
    80000338:	3f93839b          	addiw	t2,t2,1017
    8000033c:	01439393          	slli	t2,t2,0x14
    80000340:	eff38393          	addi	t2,t2,-257 # feff <_start-0x7fff0101>
    80000344:	00c39393          	slli	t2,t2,0xc
    80000348:	fff38393          	addi	t2,t2,-1
    8000034c:	00728463          	beq	t0,t2,80000354 <test_21>
    80000350:	3210306f          	j	80003e70 <fail>

0000000080000354 <test_21>:
    80000354:	01500193          	li	gp,21
    80000358:	0005b283          	ld	t0,0(a1)
    8000035c:	00858593          	addi	a1,a1,8
    80000360:	010703b7          	lui	t2,0x1070
    80000364:	0013839b          	addiw	t2,t2,1
    80000368:	01839393          	slli	t2,t2,0x18
    8000036c:	10038393          	addi	t2,t2,256 # 1070100 <_start-0x7ef8ff00>
    80000370:	00728463          	beq	t0,t2,80000378 <test_22>
    80000374:	2fd0306f          	j	80003e70 <fail>

0000000080000378 <test_22>:
    80000378:	01600193          	li	gp,22
    8000037c:	0005b283          	ld	t0,0(a1)
    80000380:	00858593          	addi	a1,a1,8
    80000384:	000103b7          	lui	t2,0x10
    80000388:	3f93839b          	addiw	t2,t2,1017
    8000038c:	01439393          	slli	t2,t2,0x14
    80000390:	eff38393          	addi	t2,t2,-257 # feff <_start-0x7fff0101>
    80000394:	00c39393          	slli	t2,t2,0xc
    80000398:	fff38393          	addi	t2,t2,-1
    8000039c:	00728463          	beq	t0,t2,800003a4 <test_23>
    800003a0:	2d10306f          	j	80003e70 <fail>

00000000800003a4 <test_23>:
    800003a4:	01700193          	li	gp,23
    800003a8:	0005b283          	ld	t0,0(a1)
    800003ac:	00858593          	addi	a1,a1,8
    800003b0:	010703b7          	lui	t2,0x1070
    800003b4:	0013839b          	addiw	t2,t2,1
    800003b8:	01839393          	slli	t2,t2,0x18
    800003bc:	10038393          	addi	t2,t2,256 # 1070100 <_start-0x7ef8ff00>
    800003c0:	00728463          	beq	t0,t2,800003c8 <test_24>
    800003c4:	2ad0306f          	j	80003e70 <fail>

00000000800003c8 <test_24>:
    800003c8:	01800193          	li	gp,24
    800003cc:	0005b283          	ld	t0,0(a1)
    800003d0:	00858593          	addi	a1,a1,8
    800003d4:	000103b7          	lui	t2,0x10
    800003d8:	3f93839b          	addiw	t2,t2,1017
    800003dc:	01439393          	slli	t2,t2,0x14
    800003e0:	eff38393          	addi	t2,t2,-257 # feff <_start-0x7fff0101>
    800003e4:	00c39393          	slli	t2,t2,0xc
    800003e8:	fff38393          	addi	t2,t2,-1
    800003ec:	00728463          	beq	t0,t2,800003f4 <test_25>
    800003f0:	2810306f          	j	80003e70 <fail>

00000000800003f4 <test_25>:
    800003f4:	01900193          	li	gp,25
    800003f8:	0005b283          	ld	t0,0(a1)
    800003fc:	00858593          	addi	a1,a1,8
    80000400:	010703b7          	lui	t2,0x1070
    80000404:	0013839b          	addiw	t2,t2,1
    80000408:	01839393          	slli	t2,t2,0x18
    8000040c:	10038393          	addi	t2,t2,256 # 1070100 <_start-0x7ef8ff00>
    80000410:	00728463          	beq	t0,t2,80000418 <test_26>
    80000414:	25d0306f          	j	80003e70 <fail>

0000000080000418 <test_26>:
    80000418:	01a00193          	li	gp,26
    8000041c:	0005b283          	ld	t0,0(a1)
    80000420:	00858593          	addi	a1,a1,8
    80000424:	000103b7          	lui	t2,0x10
    80000428:	3f93839b          	addiw	t2,t2,1017
    8000042c:	01439393          	slli	t2,t2,0x14
    80000430:	eff38393          	addi	t2,t2,-257 # feff <_start-0x7fff0101>
    80000434:	00c39393          	slli	t2,t2,0xc
    80000438:	fff38393          	addi	t2,t2,-1
    8000043c:	00728463          	beq	t0,t2,80000444 <test_27>
    80000440:	2310306f          	j	80003e70 <fail>

0000000080000444 <test_27>:
    80000444:	01b00193          	li	gp,27
    80000448:	0005b283          	ld	t0,0(a1)
    8000044c:	00858593          	addi	a1,a1,8
    80000450:	010703b7          	lui	t2,0x1070
    80000454:	0013839b          	addiw	t2,t2,1
    80000458:	01839393          	slli	t2,t2,0x18
    8000045c:	10038393          	addi	t2,t2,256 # 1070100 <_start-0x7ef8ff00>
    80000460:	00728463          	beq	t0,t2,80000468 <test_28>
    80000464:	20d0306f          	j	80003e70 <fail>

0000000080000468 <test_28>:
    80000468:	01c00193          	li	gp,28
    8000046c:	0005b283          	ld	t0,0(a1)
    80000470:	00858593          	addi	a1,a1,8
    80000474:	000103b7          	lui	t2,0x10
    80000478:	3f93839b          	addiw	t2,t2,1017
    8000047c:	01439393          	slli	t2,t2,0x14
    80000480:	eff38393          	addi	t2,t2,-257 # feff <_start-0x7fff0101>
    80000484:	00c39393          	slli	t2,t2,0xc
    80000488:	fff38393          	addi	t2,t2,-1
    8000048c:	00728463          	beq	t0,t2,80000494 <test_29>
    80000490:	1e10306f          	j	80003e70 <fail>

0000000080000494 <test_29>:
    80000494:	01d00193          	li	gp,29
    80000498:	0005b283          	ld	t0,0(a1)
    8000049c:	00858593          	addi	a1,a1,8
    800004a0:	010703b7          	lui	t2,0x1070
    800004a4:	0013839b          	addiw	t2,t2,1
    800004a8:	01839393          	slli	t2,t2,0x18
    800004ac:	10038393          	addi	t2,t2,256 # 1070100 <_start-0x7ef8ff00>
    800004b0:	00728463          	beq	t0,t2,800004b8 <test_30>
    800004b4:	1bd0306f          	j	80003e70 <fail>

00000000800004b8 <test_30>:
    800004b8:	01e00193          	li	gp,30
    800004bc:	0005b283          	ld	t0,0(a1)
    800004c0:	00858593          	addi	a1,a1,8
    800004c4:	000103b7          	lui	t2,0x10
    800004c8:	3f93839b          	addiw	t2,t2,1017
    800004cc:	01439393          	slli	t2,t2,0x14
    800004d0:	eff38393          	addi	t2,t2,-257 # feff <_start-0x7fff0101>
    800004d4:	00c39393          	slli	t2,t2,0xc
    800004d8:	fff38393          	addi	t2,t2,-1
    800004dc:	00728463          	beq	t0,t2,800004e4 <test_31>
    800004e0:	1910306f          	j	80003e70 <fail>

00000000800004e4 <test_31>:
    800004e4:	01f00193          	li	gp,31
    800004e8:	0005b283          	ld	t0,0(a1)
    800004ec:	00858593          	addi	a1,a1,8
    800004f0:	010703b7          	lui	t2,0x1070
    800004f4:	0013839b          	addiw	t2,t2,1
    800004f8:	01839393          	slli	t2,t2,0x18
    800004fc:	10038393          	addi	t2,t2,256 # 1070100 <_start-0x7ef8ff00>
    80000500:	00728463          	beq	t0,t2,80000508 <test_32>
    80000504:	16d0306f          	j	80003e70 <fail>

0000000080000508 <test_32>:
    80000508:	02000193          	li	gp,32
    8000050c:	0005b283          	ld	t0,0(a1)
    80000510:	00858593          	addi	a1,a1,8
    80000514:	000103b7          	lui	t2,0x10
    80000518:	3f93839b          	addiw	t2,t2,1017
    8000051c:	01439393          	slli	t2,t2,0x14
    80000520:	eff38393          	addi	t2,t2,-257 # feff <_start-0x7fff0101>
    80000524:	00c39393          	slli	t2,t2,0xc
    80000528:	fff38393          	addi	t2,t2,-1
    8000052c:	00728463          	beq	t0,t2,80000534 <test_33>
    80000530:	1410306f          	j	80003e70 <fail>

0000000080000534 <test_33>:
    80000534:	02100193          	li	gp,33
    80000538:	0005b283          	ld	t0,0(a1)
    8000053c:	00858593          	addi	a1,a1,8
    80000540:	010703b7          	lui	t2,0x1070
    80000544:	0013839b          	addiw	t2,t2,1
    80000548:	01839393          	slli	t2,t2,0x18
    8000054c:	10038393          	addi	t2,t2,256 # 1070100 <_start-0x7ef8ff00>
    80000550:	00728463          	beq	t0,t2,80000558 <test_33+0x24>
    80000554:	11d0306f          	j	80003e70 <fail>
    80000558:	fff00293          	li	t0,-1
    8000055c:	0c22f357          	vsetvli	t1,t0,e8,m4,ta,ma
    80000560:	00005617          	auipc	a2,0x5
    80000564:	cb060613          	addi	a2,a2,-848 # 80005210 <tdat>
    80000568:	02060807          	vle8.v	v16,(a2)
    8000056c:	0c32f357          	vsetvli	t1,t0,e8,m8,ta,ma
    80000570:	02060407          	vle8.v	v8,(a2)
    80000574:	00005617          	auipc	a2,0x5
    80000578:	ca460613          	addi	a2,a2,-860 # 80005218 <tdat+0x8>
    8000057c:	0c22f357          	vsetvli	t1,t0,e8,m4,ta,ma
    80000580:	02060c07          	vle8.v	v24,(a2)
    80000584:	04000293          	li	t0,64
    80000588:	0822f357          	vsetvli	t1,t0,e8,m4,tu,ma
    8000058c:	c30c0457          	vwredsumu.vs	v8,v16,v24
    80000590:	fff00293          	li	t0,-1
    80000594:	0c32f357          	vsetvli	t1,t0,e8,m8,ta,ma
    80000598:	00005597          	auipc	a1,0x5
    8000059c:	a6858593          	addi	a1,a1,-1432 # 80005000 <begin_signature>
    800005a0:	02058427          	vse8.v	v8,(a1)

00000000800005a4 <test_34>:
    800005a4:	02200193          	li	gp,34
    800005a8:	0005b283          	ld	t0,0(a1)
    800005ac:	00858593          	addi	a1,a1,8
    800005b0:	000103b7          	lui	t2,0x10
    800005b4:	3f93839b          	addiw	t2,t2,1017
    800005b8:	01439393          	slli	t2,t2,0x14
    800005bc:	ef138393          	addi	t2,t2,-271 # fef1 <_start-0x7fff010f>
    800005c0:	00c39393          	slli	t2,t2,0xc
    800005c4:	48838393          	addi	t2,t2,1160
    800005c8:	00728463          	beq	t0,t2,800005d0 <test_35>
    800005cc:	0a50306f          	j	80003e70 <fail>

00000000800005d0 <test_35>:
    800005d0:	02300193          	li	gp,35
    800005d4:	0005b283          	ld	t0,0(a1)
    800005d8:	00858593          	addi	a1,a1,8
    800005dc:	010703b7          	lui	t2,0x1070
    800005e0:	0013839b          	addiw	t2,t2,1
    800005e4:	01839393          	slli	t2,t2,0x18
    800005e8:	10038393          	addi	t2,t2,256 # 1070100 <_start-0x7ef8ff00>
    800005ec:	00728463          	beq	t0,t2,800005f4 <test_36>
    800005f0:	0810306f          	j	80003e70 <fail>

00000000800005f4 <test_36>:
    800005f4:	02400193          	li	gp,36
    800005f8:	0005b283          	ld	t0,0(a1)
    800005fc:	00858593          	addi	a1,a1,8
    80000600:	000103b7          	lui	t2,0x10
    80000604:	3f93839b          	addiw	t2,t2,1017
    80000608:	01439393          	slli	t2,t2,0x14
    8000060c:	eff38393          	addi	t2,t2,-257 # feff <_start-0x7fff0101>
    80000610:	00c39393          	slli	t2,t2,0xc
    80000614:	fff38393          	addi	t2,t2,-1
    80000618:	00728463          	beq	t0,t2,80000620 <test_37>
    8000061c:	0550306f          	j	80003e70 <fail>

0000000080000620 <test_37>:
    80000620:	02500193          	li	gp,37
    80000624:	0005b283          	ld	t0,0(a1)
    80000628:	00858593          	addi	a1,a1,8
    8000062c:	010703b7          	lui	t2,0x1070
    80000630:	0013839b          	addiw	t2,t2,1
    80000634:	01839393          	slli	t2,t2,0x18
    80000638:	10038393          	addi	t2,t2,256 # 1070100 <_start-0x7ef8ff00>
    8000063c:	00728463          	beq	t0,t2,80000644 <test_38>
    80000640:	0310306f          	j	80003e70 <fail>

0000000080000644 <test_38>:
    80000644:	02600193          	li	gp,38
    80000648:	0005b283          	ld	t0,0(a1)
    8000064c:	00858593          	addi	a1,a1,8
    80000650:	000103b7          	lui	t2,0x10
    80000654:	3f93839b          	addiw	t2,t2,1017
    80000658:	01439393          	slli	t2,t2,0x14
    8000065c:	eff38393          	addi	t2,t2,-257 # feff <_start-0x7fff0101>
    80000660:	00c39393          	slli	t2,t2,0xc
    80000664:	fff38393          	addi	t2,t2,-1
    80000668:	00728463          	beq	t0,t2,80000670 <test_39>
    8000066c:	0050306f          	j	80003e70 <fail>

0000000080000670 <test_39>:
    80000670:	02700193          	li	gp,39
    80000674:	0005b283          	ld	t0,0(a1)
    80000678:	00858593          	addi	a1,a1,8
    8000067c:	010703b7          	lui	t2,0x1070
    80000680:	0013839b          	addiw	t2,t2,1
    80000684:	01839393          	slli	t2,t2,0x18
    80000688:	10038393          	addi	t2,t2,256 # 1070100 <_start-0x7ef8ff00>
    8000068c:	00728463          	beq	t0,t2,80000694 <test_40>
    80000690:	7e00306f          	j	80003e70 <fail>

0000000080000694 <test_40>:
    80000694:	02800193          	li	gp,40
    80000698:	0005b283          	ld	t0,0(a1)
    8000069c:	00858593          	addi	a1,a1,8
    800006a0:	000103b7          	lui	t2,0x10
    800006a4:	3f93839b          	addiw	t2,t2,1017
    800006a8:	01439393          	slli	t2,t2,0x14
    800006ac:	eff38393          	addi	t2,t2,-257 # feff <_start-0x7fff0101>
    800006b0:	00c39393          	slli	t2,t2,0xc
    800006b4:	fff38393          	addi	t2,t2,-1
    800006b8:	00728463          	beq	t0,t2,800006c0 <test_41>
    800006bc:	7b40306f          	j	80003e70 <fail>

00000000800006c0 <test_41>:
    800006c0:	02900193          	li	gp,41
    800006c4:	0005b283          	ld	t0,0(a1)
    800006c8:	00858593          	addi	a1,a1,8
    800006cc:	010703b7          	lui	t2,0x1070
    800006d0:	0013839b          	addiw	t2,t2,1
    800006d4:	01839393          	slli	t2,t2,0x18
    800006d8:	10038393          	addi	t2,t2,256 # 1070100 <_start-0x7ef8ff00>
    800006dc:	00728463          	beq	t0,t2,800006e4 <test_42>
    800006e0:	7900306f          	j	80003e70 <fail>

00000000800006e4 <test_42>:
    800006e4:	02a00193          	li	gp,42
    800006e8:	0005b283          	ld	t0,0(a1)
    800006ec:	00858593          	addi	a1,a1,8
    800006f0:	000103b7          	lui	t2,0x10
    800006f4:	3f93839b          	addiw	t2,t2,1017
    800006f8:	01439393          	slli	t2,t2,0x14
    800006fc:	eff38393          	addi	t2,t2,-257 # feff <_start-0x7fff0101>
    80000700:	00c39393          	slli	t2,t2,0xc
    80000704:	fff38393          	addi	t2,t2,-1
    80000708:	00728463          	beq	t0,t2,80000710 <test_43>
    8000070c:	7640306f          	j	80003e70 <fail>

0000000080000710 <test_43>:
    80000710:	02b00193          	li	gp,43
    80000714:	0005b283          	ld	t0,0(a1)
    80000718:	00858593          	addi	a1,a1,8
    8000071c:	010703b7          	lui	t2,0x1070
    80000720:	0013839b          	addiw	t2,t2,1
    80000724:	01839393          	slli	t2,t2,0x18
    80000728:	10038393          	addi	t2,t2,256 # 1070100 <_start-0x7ef8ff00>
    8000072c:	00728463          	beq	t0,t2,80000734 <test_44>
    80000730:	7400306f          	j	80003e70 <fail>

0000000080000734 <test_44>:
    80000734:	02c00193          	li	gp,44
    80000738:	0005b283          	ld	t0,0(a1)
    8000073c:	00858593          	addi	a1,a1,8
    80000740:	000103b7          	lui	t2,0x10
    80000744:	3f93839b          	addiw	t2,t2,1017
    80000748:	01439393          	slli	t2,t2,0x14
    8000074c:	eff38393          	addi	t2,t2,-257 # feff <_start-0x7fff0101>
    80000750:	00c39393          	slli	t2,t2,0xc
    80000754:	fff38393          	addi	t2,t2,-1
    80000758:	00728463          	beq	t0,t2,80000760 <test_45>
    8000075c:	7140306f          	j	80003e70 <fail>

0000000080000760 <test_45>:
    80000760:	02d00193          	li	gp,45
    80000764:	0005b283          	ld	t0,0(a1)
    80000768:	00858593          	addi	a1,a1,8
    8000076c:	010703b7          	lui	t2,0x1070
    80000770:	0013839b          	addiw	t2,t2,1
    80000774:	01839393          	slli	t2,t2,0x18
    80000778:	10038393          	addi	t2,t2,256 # 1070100 <_start-0x7ef8ff00>
    8000077c:	00728463          	beq	t0,t2,80000784 <test_46>
    80000780:	6f00306f          	j	80003e70 <fail>

0000000080000784 <test_46>:
    80000784:	02e00193          	li	gp,46
    80000788:	0005b283          	ld	t0,0(a1)
    8000078c:	00858593          	addi	a1,a1,8
    80000790:	000103b7          	lui	t2,0x10
    80000794:	3f93839b          	addiw	t2,t2,1017
    80000798:	01439393          	slli	t2,t2,0x14
    8000079c:	eff38393          	addi	t2,t2,-257 # feff <_start-0x7fff0101>
    800007a0:	00c39393          	slli	t2,t2,0xc
    800007a4:	fff38393          	addi	t2,t2,-1
    800007a8:	00728463          	beq	t0,t2,800007b0 <test_47>
    800007ac:	6c40306f          	j	80003e70 <fail>

00000000800007b0 <test_47>:
    800007b0:	02f00193          	li	gp,47
    800007b4:	0005b283          	ld	t0,0(a1)
    800007b8:	00858593          	addi	a1,a1,8
    800007bc:	010703b7          	lui	t2,0x1070
    800007c0:	0013839b          	addiw	t2,t2,1
    800007c4:	01839393          	slli	t2,t2,0x18
    800007c8:	10038393          	addi	t2,t2,256 # 1070100 <_start-0x7ef8ff00>
    800007cc:	00728463          	beq	t0,t2,800007d4 <test_48>
    800007d0:	6a00306f          	j	80003e70 <fail>

00000000800007d4 <test_48>:
    800007d4:	03000193          	li	gp,48
    800007d8:	0005b283          	ld	t0,0(a1)
    800007dc:	00858593          	addi	a1,a1,8
    800007e0:	000103b7          	lui	t2,0x10
    800007e4:	3f93839b          	addiw	t2,t2,1017
    800007e8:	01439393          	slli	t2,t2,0x14
    800007ec:	eff38393          	addi	t2,t2,-257 # feff <_start-0x7fff0101>
    800007f0:	00c39393          	slli	t2,t2,0xc
    800007f4:	fff38393          	addi	t2,t2,-1
    800007f8:	00728463          	beq	t0,t2,80000800 <test_49>
    800007fc:	6740306f          	j	80003e70 <fail>

0000000080000800 <test_49>:
    80000800:	03100193          	li	gp,49
    80000804:	0005b283          	ld	t0,0(a1)
    80000808:	00858593          	addi	a1,a1,8
    8000080c:	010703b7          	lui	t2,0x1070
    80000810:	0013839b          	addiw	t2,t2,1
    80000814:	01839393          	slli	t2,t2,0x18
    80000818:	10038393          	addi	t2,t2,256 # 1070100 <_start-0x7ef8ff00>
    8000081c:	00728463          	beq	t0,t2,80000824 <test_50>
    80000820:	6500306f          	j	80003e70 <fail>

0000000080000824 <test_50>:
    80000824:	03200193          	li	gp,50
    80000828:	0005b283          	ld	t0,0(a1)
    8000082c:	00858593          	addi	a1,a1,8
    80000830:	000103b7          	lui	t2,0x10
    80000834:	3f93839b          	addiw	t2,t2,1017
    80000838:	01439393          	slli	t2,t2,0x14
    8000083c:	eff38393          	addi	t2,t2,-257 # feff <_start-0x7fff0101>
    80000840:	00c39393          	slli	t2,t2,0xc
    80000844:	fff38393          	addi	t2,t2,-1
    80000848:	00728463          	beq	t0,t2,80000850 <test_51>
    8000084c:	6240306f          	j	80003e70 <fail>

0000000080000850 <test_51>:
    80000850:	03300193          	li	gp,51
    80000854:	0005b283          	ld	t0,0(a1)
    80000858:	00858593          	addi	a1,a1,8
    8000085c:	010703b7          	lui	t2,0x1070
    80000860:	0013839b          	addiw	t2,t2,1
    80000864:	01839393          	slli	t2,t2,0x18
    80000868:	10038393          	addi	t2,t2,256 # 1070100 <_start-0x7ef8ff00>
    8000086c:	00728463          	beq	t0,t2,80000874 <test_52>
    80000870:	6000306f          	j	80003e70 <fail>

0000000080000874 <test_52>:
    80000874:	03400193          	li	gp,52
    80000878:	0005b283          	ld	t0,0(a1)
    8000087c:	00858593          	addi	a1,a1,8
    80000880:	000103b7          	lui	t2,0x10
    80000884:	3f93839b          	addiw	t2,t2,1017
    80000888:	01439393          	slli	t2,t2,0x14
    8000088c:	eff38393          	addi	t2,t2,-257 # feff <_start-0x7fff0101>
    80000890:	00c39393          	slli	t2,t2,0xc
    80000894:	fff38393          	addi	t2,t2,-1
    80000898:	00728463          	beq	t0,t2,800008a0 <test_53>
    8000089c:	5d40306f          	j	80003e70 <fail>

00000000800008a0 <test_53>:
    800008a0:	03500193          	li	gp,53
    800008a4:	0005b283          	ld	t0,0(a1)
    800008a8:	00858593          	addi	a1,a1,8
    800008ac:	010703b7          	lui	t2,0x1070
    800008b0:	0013839b          	addiw	t2,t2,1
    800008b4:	01839393          	slli	t2,t2,0x18
    800008b8:	10038393          	addi	t2,t2,256 # 1070100 <_start-0x7ef8ff00>
    800008bc:	00728463          	beq	t0,t2,800008c4 <test_54>
    800008c0:	5b00306f          	j	80003e70 <fail>

00000000800008c4 <test_54>:
    800008c4:	03600193          	li	gp,54
    800008c8:	0005b283          	ld	t0,0(a1)
    800008cc:	00858593          	addi	a1,a1,8
    800008d0:	000103b7          	lui	t2,0x10
    800008d4:	3f93839b          	addiw	t2,t2,1017
    800008d8:	01439393          	slli	t2,t2,0x14
    800008dc:	eff38393          	addi	t2,t2,-257 # feff <_start-0x7fff0101>
    800008e0:	00c39393          	slli	t2,t2,0xc
    800008e4:	fff38393          	addi	t2,t2,-1
    800008e8:	00728463          	beq	t0,t2,800008f0 <test_55>
    800008ec:	5840306f          	j	80003e70 <fail>

00000000800008f0 <test_55>:
    800008f0:	03700193          	li	gp,55
    800008f4:	0005b283          	ld	t0,0(a1)
    800008f8:	00858593          	addi	a1,a1,8
    800008fc:	010703b7          	lui	t2,0x1070
    80000900:	0013839b          	addiw	t2,t2,1
    80000904:	01839393          	slli	t2,t2,0x18
    80000908:	10038393          	addi	t2,t2,256 # 1070100 <_start-0x7ef8ff00>
    8000090c:	00728463          	beq	t0,t2,80000914 <test_56>
    80000910:	5600306f          	j	80003e70 <fail>

0000000080000914 <test_56>:
    80000914:	03800193          	li	gp,56
    80000918:	0005b283          	ld	t0,0(a1)
    8000091c:	00858593          	addi	a1,a1,8
    80000920:	000103b7          	lui	t2,0x10
    80000924:	3f93839b          	addiw	t2,t2,1017
    80000928:	01439393          	slli	t2,t2,0x14
    8000092c:	eff38393          	addi	t2,t2,-257 # feff <_start-0x7fff0101>
    80000930:	00c39393          	slli	t2,t2,0xc
    80000934:	fff38393          	addi	t2,t2,-1
    80000938:	00728463          	beq	t0,t2,80000940 <test_57>
    8000093c:	5340306f          	j	80003e70 <fail>

0000000080000940 <test_57>:
    80000940:	03900193          	li	gp,57
    80000944:	0005b283          	ld	t0,0(a1)
    80000948:	00858593          	addi	a1,a1,8
    8000094c:	010703b7          	lui	t2,0x1070
    80000950:	0013839b          	addiw	t2,t2,1
    80000954:	01839393          	slli	t2,t2,0x18
    80000958:	10038393          	addi	t2,t2,256 # 1070100 <_start-0x7ef8ff00>
    8000095c:	00728463          	beq	t0,t2,80000964 <test_58>
    80000960:	5100306f          	j	80003e70 <fail>

0000000080000964 <test_58>:
    80000964:	03a00193          	li	gp,58
    80000968:	0005b283          	ld	t0,0(a1)
    8000096c:	00858593          	addi	a1,a1,8
    80000970:	000103b7          	lui	t2,0x10
    80000974:	3f93839b          	addiw	t2,t2,1017
    80000978:	01439393          	slli	t2,t2,0x14
    8000097c:	eff38393          	addi	t2,t2,-257 # feff <_start-0x7fff0101>
    80000980:	00c39393          	slli	t2,t2,0xc
    80000984:	fff38393          	addi	t2,t2,-1
    80000988:	00728463          	beq	t0,t2,80000990 <test_59>
    8000098c:	4e40306f          	j	80003e70 <fail>

0000000080000990 <test_59>:
    80000990:	03b00193          	li	gp,59
    80000994:	0005b283          	ld	t0,0(a1)
    80000998:	00858593          	addi	a1,a1,8
    8000099c:	010703b7          	lui	t2,0x1070
    800009a0:	0013839b          	addiw	t2,t2,1
    800009a4:	01839393          	slli	t2,t2,0x18
    800009a8:	10038393          	addi	t2,t2,256 # 1070100 <_start-0x7ef8ff00>
    800009ac:	00728463          	beq	t0,t2,800009b4 <test_60>
    800009b0:	4c00306f          	j	80003e70 <fail>

00000000800009b4 <test_60>:
    800009b4:	03c00193          	li	gp,60
    800009b8:	0005b283          	ld	t0,0(a1)
    800009bc:	00858593          	addi	a1,a1,8
    800009c0:	000103b7          	lui	t2,0x10
    800009c4:	3f93839b          	addiw	t2,t2,1017
    800009c8:	01439393          	slli	t2,t2,0x14
    800009cc:	eff38393          	addi	t2,t2,-257 # feff <_start-0x7fff0101>
    800009d0:	00c39393          	slli	t2,t2,0xc
    800009d4:	fff38393          	addi	t2,t2,-1
    800009d8:	00728463          	beq	t0,t2,800009e0 <test_61>
    800009dc:	4940306f          	j	80003e70 <fail>

00000000800009e0 <test_61>:
    800009e0:	03d00193          	li	gp,61
    800009e4:	0005b283          	ld	t0,0(a1)
    800009e8:	00858593          	addi	a1,a1,8
    800009ec:	010703b7          	lui	t2,0x1070
    800009f0:	0013839b          	addiw	t2,t2,1
    800009f4:	01839393          	slli	t2,t2,0x18
    800009f8:	10038393          	addi	t2,t2,256 # 1070100 <_start-0x7ef8ff00>
    800009fc:	00728463          	beq	t0,t2,80000a04 <test_62>
    80000a00:	4700306f          	j	80003e70 <fail>

0000000080000a04 <test_62>:
    80000a04:	03e00193          	li	gp,62
    80000a08:	0005b283          	ld	t0,0(a1)
    80000a0c:	00858593          	addi	a1,a1,8
    80000a10:	000103b7          	lui	t2,0x10
    80000a14:	3f93839b          	addiw	t2,t2,1017
    80000a18:	01439393          	slli	t2,t2,0x14
    80000a1c:	eff38393          	addi	t2,t2,-257 # feff <_start-0x7fff0101>
    80000a20:	00c39393          	slli	t2,t2,0xc
    80000a24:	fff38393          	addi	t2,t2,-1
    80000a28:	00728463          	beq	t0,t2,80000a30 <test_63>
    80000a2c:	4440306f          	j	80003e70 <fail>

0000000080000a30 <test_63>:
    80000a30:	03f00193          	li	gp,63
    80000a34:	0005b283          	ld	t0,0(a1)
    80000a38:	00858593          	addi	a1,a1,8
    80000a3c:	010703b7          	lui	t2,0x1070
    80000a40:	0013839b          	addiw	t2,t2,1
    80000a44:	01839393          	slli	t2,t2,0x18
    80000a48:	10038393          	addi	t2,t2,256 # 1070100 <_start-0x7ef8ff00>
    80000a4c:	00728463          	beq	t0,t2,80000a54 <test_64>
    80000a50:	4200306f          	j	80003e70 <fail>

0000000080000a54 <test_64>:
    80000a54:	04000193          	li	gp,64
    80000a58:	0005b283          	ld	t0,0(a1)
    80000a5c:	00858593          	addi	a1,a1,8
    80000a60:	000103b7          	lui	t2,0x10
    80000a64:	3f93839b          	addiw	t2,t2,1017
    80000a68:	01439393          	slli	t2,t2,0x14
    80000a6c:	eff38393          	addi	t2,t2,-257 # feff <_start-0x7fff0101>
    80000a70:	00c39393          	slli	t2,t2,0xc
    80000a74:	fff38393          	addi	t2,t2,-1
    80000a78:	00728463          	beq	t0,t2,80000a80 <test_65>
    80000a7c:	3f40306f          	j	80003e70 <fail>

0000000080000a80 <test_65>:
    80000a80:	04100193          	li	gp,65
    80000a84:	0005b283          	ld	t0,0(a1)
    80000a88:	00858593          	addi	a1,a1,8
    80000a8c:	010703b7          	lui	t2,0x1070
    80000a90:	0013839b          	addiw	t2,t2,1
    80000a94:	01839393          	slli	t2,t2,0x18
    80000a98:	10038393          	addi	t2,t2,256 # 1070100 <_start-0x7ef8ff00>
    80000a9c:	00728463          	beq	t0,t2,80000aa4 <test_65+0x24>
    80000aa0:	3d00306f          	j	80003e70 <fail>
    80000aa4:	fff00293          	li	t0,-1
    80000aa8:	0c22f357          	vsetvli	t1,t0,e8,m4,ta,ma
    80000aac:	00004617          	auipc	a2,0x4
    80000ab0:	76460613          	addi	a2,a2,1892 # 80005210 <tdat>
    80000ab4:	02060807          	vle8.v	v16,(a2)
    80000ab8:	0c32f357          	vsetvli	t1,t0,e8,m8,ta,ma
    80000abc:	02060407          	vle8.v	v8,(a2)
    80000ac0:	00004617          	auipc	a2,0x4
    80000ac4:	75860613          	addi	a2,a2,1880 # 80005218 <tdat+0x8>
    80000ac8:	0c22f357          	vsetvli	t1,t0,e8,m4,ta,ma
    80000acc:	02060c07          	vle8.v	v24,(a2)
    80000ad0:	fff00293          	li	t0,-1
    80000ad4:	0c02f357          	vsetvli	t1,t0,e8,m1,ta,ma
    80000ad8:	00005697          	auipc	a3,0x5
    80000adc:	84068693          	addi	a3,a3,-1984 # 80005318 <mask>
    80000ae0:	02068007          	vle8.v	v0,(a3)
    80000ae4:	04000293          	li	t0,64
    80000ae8:	0c22f357          	vsetvli	t1,t0,e8,m4,ta,ma
    80000aec:	c10c0457          	vwredsumu.vs	v8,v16,v24,v0.t
    80000af0:	fff00293          	li	t0,-1
    80000af4:	0c32f357          	vsetvli	t1,t0,e8,m8,ta,ma
    80000af8:	00004597          	auipc	a1,0x4
    80000afc:	50858593          	addi	a1,a1,1288 # 80005000 <begin_signature>
    80000b00:	02058427          	vse8.v	v8,(a1)

0000000080000b04 <test_66>:
    80000b04:	04200193          	li	gp,66
    80000b08:	0005b283          	ld	t0,0(a1)
    80000b0c:	00858593          	addi	a1,a1,8
    80000b10:	000103b7          	lui	t2,0x10
    80000b14:	3f93839b          	addiw	t2,t2,1017
    80000b18:	01439393          	slli	t2,t2,0x14
    80000b1c:	ef138393          	addi	t2,t2,-271 # fef1 <_start-0x7fff010f>
    80000b20:	00c39393          	slli	t2,t2,0xc
    80000b24:	ca038393          	addi	t2,t2,-864
    80000b28:	00728463          	beq	t0,t2,80000b30 <test_67>
    80000b2c:	3440306f          	j	80003e70 <fail>

0000000080000b30 <test_67>:
    80000b30:	04300193          	li	gp,67
    80000b34:	0005b283          	ld	t0,0(a1)
    80000b38:	00858593          	addi	a1,a1,8
    80000b3c:	010703b7          	lui	t2,0x1070
    80000b40:	0013839b          	addiw	t2,t2,1
    80000b44:	01839393          	slli	t2,t2,0x18
    80000b48:	10038393          	addi	t2,t2,256 # 1070100 <_start-0x7ef8ff00>
    80000b4c:	00728463          	beq	t0,t2,80000b54 <test_68>
    80000b50:	3200306f          	j	80003e70 <fail>

0000000080000b54 <test_68>:
    80000b54:	04400193          	li	gp,68
    80000b58:	0005b283          	ld	t0,0(a1)
    80000b5c:	00858593          	addi	a1,a1,8
    80000b60:	000103b7          	lui	t2,0x10
    80000b64:	3f93839b          	addiw	t2,t2,1017
    80000b68:	01439393          	slli	t2,t2,0x14
    80000b6c:	eff38393          	addi	t2,t2,-257 # feff <_start-0x7fff0101>
    80000b70:	00c39393          	slli	t2,t2,0xc
    80000b74:	fff38393          	addi	t2,t2,-1
    80000b78:	00728463          	beq	t0,t2,80000b80 <test_69>
    80000b7c:	2f40306f          	j	80003e70 <fail>

0000000080000b80 <test_69>:
    80000b80:	04500193          	li	gp,69
    80000b84:	0005b283          	ld	t0,0(a1)
    80000b88:	00858593          	addi	a1,a1,8
    80000b8c:	010703b7          	lui	t2,0x1070
    80000b90:	0013839b          	addiw	t2,t2,1
    80000b94:	01839393          	slli	t2,t2,0x18
    80000b98:	10038393          	addi	t2,t2,256 # 1070100 <_start-0x7ef8ff00>
    80000b9c:	00728463          	beq	t0,t2,80000ba4 <test_70>
    80000ba0:	2d00306f          	j	80003e70 <fail>

0000000080000ba4 <test_70>:
    80000ba4:	04600193          	li	gp,70
    80000ba8:	0005b283          	ld	t0,0(a1)
    80000bac:	00858593          	addi	a1,a1,8
    80000bb0:	000103b7          	lui	t2,0x10
    80000bb4:	3f93839b          	addiw	t2,t2,1017
    80000bb8:	01439393          	slli	t2,t2,0x14
    80000bbc:	eff38393          	addi	t2,t2,-257 # feff <_start-0x7fff0101>
    80000bc0:	00c39393          	slli	t2,t2,0xc
    80000bc4:	fff38393          	addi	t2,t2,-1
    80000bc8:	00728463          	beq	t0,t2,80000bd0 <test_71>
    80000bcc:	2a40306f          	j	80003e70 <fail>

0000000080000bd0 <test_71>:
    80000bd0:	04700193          	li	gp,71
    80000bd4:	0005b283          	ld	t0,0(a1)
    80000bd8:	00858593          	addi	a1,a1,8
    80000bdc:	010703b7          	lui	t2,0x1070
    80000be0:	0013839b          	addiw	t2,t2,1
    80000be4:	01839393          	slli	t2,t2,0x18
    80000be8:	10038393          	addi	t2,t2,256 # 1070100 <_start-0x7ef8ff00>
    80000bec:	00728463          	beq	t0,t2,80000bf4 <test_72>
    80000bf0:	2800306f          	j	80003e70 <fail>

0000000080000bf4 <test_72>:
    80000bf4:	04800193          	li	gp,72
    80000bf8:	0005b283          	ld	t0,0(a1)
    80000bfc:	00858593          	addi	a1,a1,8
    80000c00:	000103b7          	lui	t2,0x10
    80000c04:	3f93839b          	addiw	t2,t2,1017
    80000c08:	01439393          	slli	t2,t2,0x14
    80000c0c:	eff38393          	addi	t2,t2,-257 # feff <_start-0x7fff0101>
    80000c10:	00c39393          	slli	t2,t2,0xc
    80000c14:	fff38393          	addi	t2,t2,-1
    80000c18:	00728463          	beq	t0,t2,80000c20 <test_73>
    80000c1c:	2540306f          	j	80003e70 <fail>

0000000080000c20 <test_73>:
    80000c20:	04900193          	li	gp,73
    80000c24:	0005b283          	ld	t0,0(a1)
    80000c28:	00858593          	addi	a1,a1,8
    80000c2c:	010703b7          	lui	t2,0x1070
    80000c30:	0013839b          	addiw	t2,t2,1
    80000c34:	01839393          	slli	t2,t2,0x18
    80000c38:	10038393          	addi	t2,t2,256 # 1070100 <_start-0x7ef8ff00>
    80000c3c:	00728463          	beq	t0,t2,80000c44 <test_74>
    80000c40:	2300306f          	j	80003e70 <fail>

0000000080000c44 <test_74>:
    80000c44:	04a00193          	li	gp,74
    80000c48:	0005b283          	ld	t0,0(a1)
    80000c4c:	00858593          	addi	a1,a1,8
    80000c50:	000103b7          	lui	t2,0x10
    80000c54:	3f93839b          	addiw	t2,t2,1017
    80000c58:	01439393          	slli	t2,t2,0x14
    80000c5c:	eff38393          	addi	t2,t2,-257 # feff <_start-0x7fff0101>
    80000c60:	00c39393          	slli	t2,t2,0xc
    80000c64:	fff38393          	addi	t2,t2,-1
    80000c68:	00728463          	beq	t0,t2,80000c70 <test_75>
    80000c6c:	2040306f          	j	80003e70 <fail>

0000000080000c70 <test_75>:
    80000c70:	04b00193          	li	gp,75
    80000c74:	0005b283          	ld	t0,0(a1)
    80000c78:	00858593          	addi	a1,a1,8
    80000c7c:	010703b7          	lui	t2,0x1070
    80000c80:	0013839b          	addiw	t2,t2,1
    80000c84:	01839393          	slli	t2,t2,0x18
    80000c88:	10038393          	addi	t2,t2,256 # 1070100 <_start-0x7ef8ff00>
    80000c8c:	00728463          	beq	t0,t2,80000c94 <test_76>
    80000c90:	1e00306f          	j	80003e70 <fail>

0000000080000c94 <test_76>:
    80000c94:	04c00193          	li	gp,76
    80000c98:	0005b283          	ld	t0,0(a1)
    80000c9c:	00858593          	addi	a1,a1,8
    80000ca0:	000103b7          	lui	t2,0x10
    80000ca4:	3f93839b          	addiw	t2,t2,1017
    80000ca8:	01439393          	slli	t2,t2,0x14
    80000cac:	eff38393          	addi	t2,t2,-257 # feff <_start-0x7fff0101>
    80000cb0:	00c39393          	slli	t2,t2,0xc
    80000cb4:	fff38393          	addi	t2,t2,-1
    80000cb8:	00728463          	beq	t0,t2,80000cc0 <test_77>
    80000cbc:	1b40306f          	j	80003e70 <fail>

0000000080000cc0 <test_77>:
    80000cc0:	04d00193          	li	gp,77
    80000cc4:	0005b283          	ld	t0,0(a1)
    80000cc8:	00858593          	addi	a1,a1,8
    80000ccc:	010703b7          	lui	t2,0x1070
    80000cd0:	0013839b          	addiw	t2,t2,1
    80000cd4:	01839393          	slli	t2,t2,0x18
    80000cd8:	10038393          	addi	t2,t2,256 # 1070100 <_start-0x7ef8ff00>
    80000cdc:	00728463          	beq	t0,t2,80000ce4 <test_78>
    80000ce0:	1900306f          	j	80003e70 <fail>

0000000080000ce4 <test_78>:
    80000ce4:	04e00193          	li	gp,78
    80000ce8:	0005b283          	ld	t0,0(a1)
    80000cec:	00858593          	addi	a1,a1,8
    80000cf0:	000103b7          	lui	t2,0x10
    80000cf4:	3f93839b          	addiw	t2,t2,1017
    80000cf8:	01439393          	slli	t2,t2,0x14
    80000cfc:	eff38393          	addi	t2,t2,-257 # feff <_start-0x7fff0101>
    80000d00:	00c39393          	slli	t2,t2,0xc
    80000d04:	fff38393          	addi	t2,t2,-1
    80000d08:	00728463          	beq	t0,t2,80000d10 <test_79>
    80000d0c:	1640306f          	j	80003e70 <fail>

0000000080000d10 <test_79>:
    80000d10:	04f00193          	li	gp,79
    80000d14:	0005b283          	ld	t0,0(a1)
    80000d18:	00858593          	addi	a1,a1,8
    80000d1c:	010703b7          	lui	t2,0x1070
    80000d20:	0013839b          	addiw	t2,t2,1
    80000d24:	01839393          	slli	t2,t2,0x18
    80000d28:	10038393          	addi	t2,t2,256 # 1070100 <_start-0x7ef8ff00>
    80000d2c:	00728463          	beq	t0,t2,80000d34 <test_80>
    80000d30:	1400306f          	j	80003e70 <fail>

0000000080000d34 <test_80>:
    80000d34:	05000193          	li	gp,80
    80000d38:	0005b283          	ld	t0,0(a1)
    80000d3c:	00858593          	addi	a1,a1,8
    80000d40:	000103b7          	lui	t2,0x10
    80000d44:	3f93839b          	addiw	t2,t2,1017
    80000d48:	01439393          	slli	t2,t2,0x14
    80000d4c:	eff38393          	addi	t2,t2,-257 # feff <_start-0x7fff0101>
    80000d50:	00c39393          	slli	t2,t2,0xc
    80000d54:	fff38393          	addi	t2,t2,-1
    80000d58:	00728463          	beq	t0,t2,80000d60 <test_81>
    80000d5c:	1140306f          	j	80003e70 <fail>

0000000080000d60 <test_81>:
    80000d60:	05100193          	li	gp,81
    80000d64:	0005b283          	ld	t0,0(a1)
    80000d68:	00858593          	addi	a1,a1,8
    80000d6c:	010703b7          	lui	t2,0x1070
    80000d70:	0013839b          	addiw	t2,t2,1
    80000d74:	01839393          	slli	t2,t2,0x18
    80000d78:	10038393          	addi	t2,t2,256 # 1070100 <_start-0x7ef8ff00>
    80000d7c:	00728463          	beq	t0,t2,80000d84 <test_82>
    80000d80:	0f00306f          	j	80003e70 <fail>

0000000080000d84 <test_82>:
    80000d84:	05200193          	li	gp,82
    80000d88:	0005b283          	ld	t0,0(a1)
    80000d8c:	00858593          	addi	a1,a1,8
    80000d90:	000103b7          	lui	t2,0x10
    80000d94:	3f93839b          	addiw	t2,t2,1017
    80000d98:	01439393          	slli	t2,t2,0x14
    80000d9c:	eff38393          	addi	t2,t2,-257 # feff <_start-0x7fff0101>
    80000da0:	00c39393          	slli	t2,t2,0xc
    80000da4:	fff38393          	addi	t2,t2,-1
    80000da8:	00728463          	beq	t0,t2,80000db0 <test_83>
    80000dac:	0c40306f          	j	80003e70 <fail>

0000000080000db0 <test_83>:
    80000db0:	05300193          	li	gp,83
    80000db4:	0005b283          	ld	t0,0(a1)
    80000db8:	00858593          	addi	a1,a1,8
    80000dbc:	010703b7          	lui	t2,0x1070
    80000dc0:	0013839b          	addiw	t2,t2,1
    80000dc4:	01839393          	slli	t2,t2,0x18
    80000dc8:	10038393          	addi	t2,t2,256 # 1070100 <_start-0x7ef8ff00>
    80000dcc:	00728463          	beq	t0,t2,80000dd4 <test_84>
    80000dd0:	0a00306f          	j	80003e70 <fail>

0000000080000dd4 <test_84>:
    80000dd4:	05400193          	li	gp,84
    80000dd8:	0005b283          	ld	t0,0(a1)
    80000ddc:	00858593          	addi	a1,a1,8
    80000de0:	000103b7          	lui	t2,0x10
    80000de4:	3f93839b          	addiw	t2,t2,1017
    80000de8:	01439393          	slli	t2,t2,0x14
    80000dec:	eff38393          	addi	t2,t2,-257 # feff <_start-0x7fff0101>
    80000df0:	00c39393          	slli	t2,t2,0xc
    80000df4:	fff38393          	addi	t2,t2,-1
    80000df8:	00728463          	beq	t0,t2,80000e00 <test_85>
    80000dfc:	0740306f          	j	80003e70 <fail>

0000000080000e00 <test_85>:
    80000e00:	05500193          	li	gp,85
    80000e04:	0005b283          	ld	t0,0(a1)
    80000e08:	00858593          	addi	a1,a1,8
    80000e0c:	010703b7          	lui	t2,0x1070
    80000e10:	0013839b          	addiw	t2,t2,1
    80000e14:	01839393          	slli	t2,t2,0x18
    80000e18:	10038393          	addi	t2,t2,256 # 1070100 <_start-0x7ef8ff00>
    80000e1c:	00728463          	beq	t0,t2,80000e24 <test_86>
    80000e20:	0500306f          	j	80003e70 <fail>

0000000080000e24 <test_86>:
    80000e24:	05600193          	li	gp,86
    80000e28:	0005b283          	ld	t0,0(a1)
    80000e2c:	00858593          	addi	a1,a1,8
    80000e30:	000103b7          	lui	t2,0x10
    80000e34:	3f93839b          	addiw	t2,t2,1017
    80000e38:	01439393          	slli	t2,t2,0x14
    80000e3c:	eff38393          	addi	t2,t2,-257 # feff <_start-0x7fff0101>
    80000e40:	00c39393          	slli	t2,t2,0xc
    80000e44:	fff38393          	addi	t2,t2,-1
    80000e48:	00728463          	beq	t0,t2,80000e50 <test_87>
    80000e4c:	0240306f          	j	80003e70 <fail>

0000000080000e50 <test_87>:
    80000e50:	05700193          	li	gp,87
    80000e54:	0005b283          	ld	t0,0(a1)
    80000e58:	00858593          	addi	a1,a1,8
    80000e5c:	010703b7          	lui	t2,0x1070
    80000e60:	0013839b          	addiw	t2,t2,1
    80000e64:	01839393          	slli	t2,t2,0x18
    80000e68:	10038393          	addi	t2,t2,256 # 1070100 <_start-0x7ef8ff00>
    80000e6c:	00728463          	beq	t0,t2,80000e74 <test_88>
    80000e70:	0000306f          	j	80003e70 <fail>

0000000080000e74 <test_88>:
    80000e74:	05800193          	li	gp,88
    80000e78:	0005b283          	ld	t0,0(a1)
    80000e7c:	00858593          	addi	a1,a1,8
    80000e80:	000103b7          	lui	t2,0x10
    80000e84:	3f93839b          	addiw	t2,t2,1017
    80000e88:	01439393          	slli	t2,t2,0x14
    80000e8c:	eff38393          	addi	t2,t2,-257 # feff <_start-0x7fff0101>
    80000e90:	00c39393          	slli	t2,t2,0xc
    80000e94:	fff38393          	addi	t2,t2,-1
    80000e98:	00728463          	beq	t0,t2,80000ea0 <test_89>
    80000e9c:	7d50206f          	j	80003e70 <fail>

0000000080000ea0 <test_89>:
    80000ea0:	05900193          	li	gp,89
    80000ea4:	0005b283          	ld	t0,0(a1)
    80000ea8:	00858593          	addi	a1,a1,8
    80000eac:	010703b7          	lui	t2,0x1070
    80000eb0:	0013839b          	addiw	t2,t2,1
    80000eb4:	01839393          	slli	t2,t2,0x18
    80000eb8:	10038393          	addi	t2,t2,256 # 1070100 <_start-0x7ef8ff00>
    80000ebc:	00728463          	beq	t0,t2,80000ec4 <test_90>
    80000ec0:	7b10206f          	j	80003e70 <fail>

0000000080000ec4 <test_90>:
    80000ec4:	05a00193          	li	gp,90
    80000ec8:	0005b283          	ld	t0,0(a1)
    80000ecc:	00858593          	addi	a1,a1,8
    80000ed0:	000103b7          	lui	t2,0x10
    80000ed4:	3f93839b          	addiw	t2,t2,1017
    80000ed8:	01439393          	slli	t2,t2,0x14
    80000edc:	eff38393          	addi	t2,t2,-257 # feff <_start-0x7fff0101>
    80000ee0:	00c39393          	slli	t2,t2,0xc
    80000ee4:	fff38393          	addi	t2,t2,-1
    80000ee8:	00728463          	beq	t0,t2,80000ef0 <test_91>
    80000eec:	7850206f          	j	80003e70 <fail>

0000000080000ef0 <test_91>:
    80000ef0:	05b00193          	li	gp,91
    80000ef4:	0005b283          	ld	t0,0(a1)
    80000ef8:	00858593          	addi	a1,a1,8
    80000efc:	010703b7          	lui	t2,0x1070
    80000f00:	0013839b          	addiw	t2,t2,1
    80000f04:	01839393          	slli	t2,t2,0x18
    80000f08:	10038393          	addi	t2,t2,256 # 1070100 <_start-0x7ef8ff00>
    80000f0c:	00728463          	beq	t0,t2,80000f14 <test_92>
    80000f10:	7610206f          	j	80003e70 <fail>

0000000080000f14 <test_92>:
    80000f14:	05c00193          	li	gp,92
    80000f18:	0005b283          	ld	t0,0(a1)
    80000f1c:	00858593          	addi	a1,a1,8
    80000f20:	000103b7          	lui	t2,0x10
    80000f24:	3f93839b          	addiw	t2,t2,1017
    80000f28:	01439393          	slli	t2,t2,0x14
    80000f2c:	eff38393          	addi	t2,t2,-257 # feff <_start-0x7fff0101>
    80000f30:	00c39393          	slli	t2,t2,0xc
    80000f34:	fff38393          	addi	t2,t2,-1
    80000f38:	00728463          	beq	t0,t2,80000f40 <test_93>
    80000f3c:	7350206f          	j	80003e70 <fail>

0000000080000f40 <test_93>:
    80000f40:	05d00193          	li	gp,93
    80000f44:	0005b283          	ld	t0,0(a1)
    80000f48:	00858593          	addi	a1,a1,8
    80000f4c:	010703b7          	lui	t2,0x1070
    80000f50:	0013839b          	addiw	t2,t2,1
    80000f54:	01839393          	slli	t2,t2,0x18
    80000f58:	10038393          	addi	t2,t2,256 # 1070100 <_start-0x7ef8ff00>
    80000f5c:	00728463          	beq	t0,t2,80000f64 <test_94>
    80000f60:	7110206f          	j	80003e70 <fail>

0000000080000f64 <test_94>:
    80000f64:	05e00193          	li	gp,94
    80000f68:	0005b283          	ld	t0,0(a1)
    80000f6c:	00858593          	addi	a1,a1,8
    80000f70:	000103b7          	lui	t2,0x10
    80000f74:	3f93839b          	addiw	t2,t2,1017
    80000f78:	01439393          	slli	t2,t2,0x14
    80000f7c:	eff38393          	addi	t2,t2,-257 # feff <_start-0x7fff0101>
    80000f80:	00c39393          	slli	t2,t2,0xc
    80000f84:	fff38393          	addi	t2,t2,-1
    80000f88:	00728463          	beq	t0,t2,80000f90 <test_95>
    80000f8c:	6e50206f          	j	80003e70 <fail>

0000000080000f90 <test_95>:
    80000f90:	05f00193          	li	gp,95
    80000f94:	0005b283          	ld	t0,0(a1)
    80000f98:	00858593          	addi	a1,a1,8
    80000f9c:	010703b7          	lui	t2,0x1070
    80000fa0:	0013839b          	addiw	t2,t2,1
    80000fa4:	01839393          	slli	t2,t2,0x18
    80000fa8:	10038393          	addi	t2,t2,256 # 1070100 <_start-0x7ef8ff00>
    80000fac:	00728463          	beq	t0,t2,80000fb4 <test_96>
    80000fb0:	6c10206f          	j	80003e70 <fail>

0000000080000fb4 <test_96>:
    80000fb4:	06000193          	li	gp,96
    80000fb8:	0005b283          	ld	t0,0(a1)
    80000fbc:	00858593          	addi	a1,a1,8
    80000fc0:	000103b7          	lui	t2,0x10
    80000fc4:	3f93839b          	addiw	t2,t2,1017
    80000fc8:	01439393          	slli	t2,t2,0x14
    80000fcc:	eff38393          	addi	t2,t2,-257 # feff <_start-0x7fff0101>
    80000fd0:	00c39393          	slli	t2,t2,0xc
    80000fd4:	fff38393          	addi	t2,t2,-1
    80000fd8:	00728463          	beq	t0,t2,80000fe0 <test_97>
    80000fdc:	6950206f          	j	80003e70 <fail>

0000000080000fe0 <test_97>:
    80000fe0:	06100193          	li	gp,97
    80000fe4:	0005b283          	ld	t0,0(a1)
    80000fe8:	00858593          	addi	a1,a1,8
    80000fec:	010703b7          	lui	t2,0x1070
    80000ff0:	0013839b          	addiw	t2,t2,1
    80000ff4:	01839393          	slli	t2,t2,0x18
    80000ff8:	10038393          	addi	t2,t2,256 # 1070100 <_start-0x7ef8ff00>
    80000ffc:	00728463          	beq	t0,t2,80001004 <test_97+0x24>
    80001000:	6710206f          	j	80003e70 <fail>
    80001004:	fff00293          	li	t0,-1
    80001008:	0c22f357          	vsetvli	t1,t0,e8,m4,ta,ma
    8000100c:	00004617          	auipc	a2,0x4
    80001010:	20460613          	addi	a2,a2,516 # 80005210 <tdat>
    80001014:	02060807          	vle8.v	v16,(a2)
    80001018:	0c32f357          	vsetvli	t1,t0,e8,m8,ta,ma
    8000101c:	02060407          	vle8.v	v8,(a2)
    80001020:	00004617          	auipc	a2,0x4
    80001024:	1f860613          	addi	a2,a2,504 # 80005218 <tdat+0x8>
    80001028:	0c22f357          	vsetvli	t1,t0,e8,m4,ta,ma
    8000102c:	02060c07          	vle8.v	v24,(a2)
    80001030:	fff00293          	li	t0,-1
    80001034:	0c02f357          	vsetvli	t1,t0,e8,m1,ta,ma
    80001038:	00004697          	auipc	a3,0x4
    8000103c:	2e068693          	addi	a3,a3,736 # 80005318 <mask>
    80001040:	02068007          	vle8.v	v0,(a3)
    80001044:	04000293          	li	t0,64
    80001048:	0c22f357          	vsetvli	t1,t0,e8,m4,ta,ma
    8000104c:	c10c0457          	vwredsumu.vs	v8,v16,v24,v0.t
    80001050:	fff00293          	li	t0,-1
    80001054:	0c32f357          	vsetvli	t1,t0,e8,m8,ta,ma
    80001058:	00004597          	auipc	a1,0x4
    8000105c:	fa858593          	addi	a1,a1,-88 # 80005000 <begin_signature>
    80001060:	02058427          	vse8.v	v8,(a1)

0000000080001064 <test_98>:
    80001064:	06200193          	li	gp,98
    80001068:	0005b283          	ld	t0,0(a1)
    8000106c:	00858593          	addi	a1,a1,8
    80001070:	000103b7          	lui	t2,0x10
    80001074:	3f93839b          	addiw	t2,t2,1017
    80001078:	01439393          	slli	t2,t2,0x14
    8000107c:	ef138393          	addi	t2,t2,-271 # fef1 <_start-0x7fff010f>
    80001080:	00c39393          	slli	t2,t2,0xc
    80001084:	ca038393          	addi	t2,t2,-864
    80001088:	00728463          	beq	t0,t2,80001090 <test_99>
    8000108c:	5e50206f          	j	80003e70 <fail>

0000000080001090 <test_99>:
    80001090:	06300193          	li	gp,99
    80001094:	0005b283          	ld	t0,0(a1)
    80001098:	00858593          	addi	a1,a1,8
    8000109c:	010703b7          	lui	t2,0x1070
    800010a0:	0013839b          	addiw	t2,t2,1
    800010a4:	01839393          	slli	t2,t2,0x18
    800010a8:	10038393          	addi	t2,t2,256 # 1070100 <_start-0x7ef8ff00>
    800010ac:	00728463          	beq	t0,t2,800010b4 <test_100>
    800010b0:	5c10206f          	j	80003e70 <fail>

00000000800010b4 <test_100>:
    800010b4:	06400193          	li	gp,100
    800010b8:	0005b283          	ld	t0,0(a1)
    800010bc:	00858593          	addi	a1,a1,8
    800010c0:	000103b7          	lui	t2,0x10
    800010c4:	3f93839b          	addiw	t2,t2,1017
    800010c8:	01439393          	slli	t2,t2,0x14
    800010cc:	eff38393          	addi	t2,t2,-257 # feff <_start-0x7fff0101>
    800010d0:	00c39393          	slli	t2,t2,0xc
    800010d4:	fff38393          	addi	t2,t2,-1
    800010d8:	00728463          	beq	t0,t2,800010e0 <test_101>
    800010dc:	5950206f          	j	80003e70 <fail>

00000000800010e0 <test_101>:
    800010e0:	06500193          	li	gp,101
    800010e4:	0005b283          	ld	t0,0(a1)
    800010e8:	00858593          	addi	a1,a1,8
    800010ec:	010703b7          	lui	t2,0x1070
    800010f0:	0013839b          	addiw	t2,t2,1
    800010f4:	01839393          	slli	t2,t2,0x18
    800010f8:	10038393          	addi	t2,t2,256 # 1070100 <_start-0x7ef8ff00>
    800010fc:	00728463          	beq	t0,t2,80001104 <test_102>
    80001100:	5710206f          	j	80003e70 <fail>

0000000080001104 <test_102>:
    80001104:	06600193          	li	gp,102
    80001108:	0005b283          	ld	t0,0(a1)
    8000110c:	00858593          	addi	a1,a1,8
    80001110:	000103b7          	lui	t2,0x10
    80001114:	3f93839b          	addiw	t2,t2,1017
    80001118:	01439393          	slli	t2,t2,0x14
    8000111c:	eff38393          	addi	t2,t2,-257 # feff <_start-0x7fff0101>
    80001120:	00c39393          	slli	t2,t2,0xc
    80001124:	fff38393          	addi	t2,t2,-1
    80001128:	00728463          	beq	t0,t2,80001130 <test_103>
    8000112c:	5450206f          	j	80003e70 <fail>

0000000080001130 <test_103>:
    80001130:	06700193          	li	gp,103
    80001134:	0005b283          	ld	t0,0(a1)
    80001138:	00858593          	addi	a1,a1,8
    8000113c:	010703b7          	lui	t2,0x1070
    80001140:	0013839b          	addiw	t2,t2,1
    80001144:	01839393          	slli	t2,t2,0x18
    80001148:	10038393          	addi	t2,t2,256 # 1070100 <_start-0x7ef8ff00>
    8000114c:	00728463          	beq	t0,t2,80001154 <test_104>
    80001150:	5210206f          	j	80003e70 <fail>

0000000080001154 <test_104>:
    80001154:	06800193          	li	gp,104
    80001158:	0005b283          	ld	t0,0(a1)
    8000115c:	00858593          	addi	a1,a1,8
    80001160:	000103b7          	lui	t2,0x10
    80001164:	3f93839b          	addiw	t2,t2,1017
    80001168:	01439393          	slli	t2,t2,0x14
    8000116c:	eff38393          	addi	t2,t2,-257 # feff <_start-0x7fff0101>
    80001170:	00c39393          	slli	t2,t2,0xc
    80001174:	fff38393          	addi	t2,t2,-1
    80001178:	00728463          	beq	t0,t2,80001180 <test_105>
    8000117c:	4f50206f          	j	80003e70 <fail>

0000000080001180 <test_105>:
    80001180:	06900193          	li	gp,105
    80001184:	0005b283          	ld	t0,0(a1)
    80001188:	00858593          	addi	a1,a1,8
    8000118c:	010703b7          	lui	t2,0x1070
    80001190:	0013839b          	addiw	t2,t2,1
    80001194:	01839393          	slli	t2,t2,0x18
    80001198:	10038393          	addi	t2,t2,256 # 1070100 <_start-0x7ef8ff00>
    8000119c:	00728463          	beq	t0,t2,800011a4 <test_106>
    800011a0:	4d10206f          	j	80003e70 <fail>

00000000800011a4 <test_106>:
    800011a4:	06a00193          	li	gp,106
    800011a8:	0005b283          	ld	t0,0(a1)
    800011ac:	00858593          	addi	a1,a1,8
    800011b0:	000103b7          	lui	t2,0x10
    800011b4:	3f93839b          	addiw	t2,t2,1017
    800011b8:	01439393          	slli	t2,t2,0x14
    800011bc:	eff38393          	addi	t2,t2,-257 # feff <_start-0x7fff0101>
    800011c0:	00c39393          	slli	t2,t2,0xc
    800011c4:	fff38393          	addi	t2,t2,-1
    800011c8:	00728463          	beq	t0,t2,800011d0 <test_107>
    800011cc:	4a50206f          	j	80003e70 <fail>

00000000800011d0 <test_107>:
    800011d0:	06b00193          	li	gp,107
    800011d4:	0005b283          	ld	t0,0(a1)
    800011d8:	00858593          	addi	a1,a1,8
    800011dc:	010703b7          	lui	t2,0x1070
    800011e0:	0013839b          	addiw	t2,t2,1
    800011e4:	01839393          	slli	t2,t2,0x18
    800011e8:	10038393          	addi	t2,t2,256 # 1070100 <_start-0x7ef8ff00>
    800011ec:	00728463          	beq	t0,t2,800011f4 <test_108>
    800011f0:	4810206f          	j	80003e70 <fail>

00000000800011f4 <test_108>:
    800011f4:	06c00193          	li	gp,108
    800011f8:	0005b283          	ld	t0,0(a1)
    800011fc:	00858593          	addi	a1,a1,8
    80001200:	000103b7          	lui	t2,0x10
    80001204:	3f93839b          	addiw	t2,t2,1017
    80001208:	01439393          	slli	t2,t2,0x14
    8000120c:	eff38393          	addi	t2,t2,-257 # feff <_start-0x7fff0101>
    80001210:	00c39393          	slli	t2,t2,0xc
    80001214:	fff38393          	addi	t2,t2,-1
    80001218:	00728463          	beq	t0,t2,80001220 <test_109>
    8000121c:	4550206f          	j	80003e70 <fail>

0000000080001220 <test_109>:
    80001220:	06d00193          	li	gp,109
    80001224:	0005b283          	ld	t0,0(a1)
    80001228:	00858593          	addi	a1,a1,8
    8000122c:	010703b7          	lui	t2,0x1070
    80001230:	0013839b          	addiw	t2,t2,1
    80001234:	01839393          	slli	t2,t2,0x18
    80001238:	10038393          	addi	t2,t2,256 # 1070100 <_start-0x7ef8ff00>
    8000123c:	00728463          	beq	t0,t2,80001244 <test_110>
    80001240:	4310206f          	j	80003e70 <fail>

0000000080001244 <test_110>:
    80001244:	06e00193          	li	gp,110
    80001248:	0005b283          	ld	t0,0(a1)
    8000124c:	00858593          	addi	a1,a1,8
    80001250:	000103b7          	lui	t2,0x10
    80001254:	3f93839b          	addiw	t2,t2,1017
    80001258:	01439393          	slli	t2,t2,0x14
    8000125c:	eff38393          	addi	t2,t2,-257 # feff <_start-0x7fff0101>
    80001260:	00c39393          	slli	t2,t2,0xc
    80001264:	fff38393          	addi	t2,t2,-1
    80001268:	00728463          	beq	t0,t2,80001270 <test_111>
    8000126c:	4050206f          	j	80003e70 <fail>

0000000080001270 <test_111>:
    80001270:	06f00193          	li	gp,111
    80001274:	0005b283          	ld	t0,0(a1)
    80001278:	00858593          	addi	a1,a1,8
    8000127c:	010703b7          	lui	t2,0x1070
    80001280:	0013839b          	addiw	t2,t2,1
    80001284:	01839393          	slli	t2,t2,0x18
    80001288:	10038393          	addi	t2,t2,256 # 1070100 <_start-0x7ef8ff00>
    8000128c:	00728463          	beq	t0,t2,80001294 <test_112>
    80001290:	3e10206f          	j	80003e70 <fail>

0000000080001294 <test_112>:
    80001294:	07000193          	li	gp,112
    80001298:	0005b283          	ld	t0,0(a1)
    8000129c:	00858593          	addi	a1,a1,8
    800012a0:	000103b7          	lui	t2,0x10
    800012a4:	3f93839b          	addiw	t2,t2,1017
    800012a8:	01439393          	slli	t2,t2,0x14
    800012ac:	eff38393          	addi	t2,t2,-257 # feff <_start-0x7fff0101>
    800012b0:	00c39393          	slli	t2,t2,0xc
    800012b4:	fff38393          	addi	t2,t2,-1
    800012b8:	00728463          	beq	t0,t2,800012c0 <test_113>
    800012bc:	3b50206f          	j	80003e70 <fail>

00000000800012c0 <test_113>:
    800012c0:	07100193          	li	gp,113
    800012c4:	0005b283          	ld	t0,0(a1)
    800012c8:	00858593          	addi	a1,a1,8
    800012cc:	010703b7          	lui	t2,0x1070
    800012d0:	0013839b          	addiw	t2,t2,1
    800012d4:	01839393          	slli	t2,t2,0x18
    800012d8:	10038393          	addi	t2,t2,256 # 1070100 <_start-0x7ef8ff00>
    800012dc:	00728463          	beq	t0,t2,800012e4 <test_114>
    800012e0:	3910206f          	j	80003e70 <fail>

00000000800012e4 <test_114>:
    800012e4:	07200193          	li	gp,114
    800012e8:	0005b283          	ld	t0,0(a1)
    800012ec:	00858593          	addi	a1,a1,8
    800012f0:	000103b7          	lui	t2,0x10
    800012f4:	3f93839b          	addiw	t2,t2,1017
    800012f8:	01439393          	slli	t2,t2,0x14
    800012fc:	eff38393          	addi	t2,t2,-257 # feff <_start-0x7fff0101>
    80001300:	00c39393          	slli	t2,t2,0xc
    80001304:	fff38393          	addi	t2,t2,-1
    80001308:	00728463          	beq	t0,t2,80001310 <test_115>
    8000130c:	3650206f          	j	80003e70 <fail>

0000000080001310 <test_115>:
    80001310:	07300193          	li	gp,115
    80001314:	0005b283          	ld	t0,0(a1)
    80001318:	00858593          	addi	a1,a1,8
    8000131c:	010703b7          	lui	t2,0x1070
    80001320:	0013839b          	addiw	t2,t2,1
    80001324:	01839393          	slli	t2,t2,0x18
    80001328:	10038393          	addi	t2,t2,256 # 1070100 <_start-0x7ef8ff00>
    8000132c:	00728463          	beq	t0,t2,80001334 <test_116>
    80001330:	3410206f          	j	80003e70 <fail>

0000000080001334 <test_116>:
    80001334:	07400193          	li	gp,116
    80001338:	0005b283          	ld	t0,0(a1)
    8000133c:	00858593          	addi	a1,a1,8
    80001340:	000103b7          	lui	t2,0x10
    80001344:	3f93839b          	addiw	t2,t2,1017
    80001348:	01439393          	slli	t2,t2,0x14
    8000134c:	eff38393          	addi	t2,t2,-257 # feff <_start-0x7fff0101>
    80001350:	00c39393          	slli	t2,t2,0xc
    80001354:	fff38393          	addi	t2,t2,-1
    80001358:	00728463          	beq	t0,t2,80001360 <test_117>
    8000135c:	3150206f          	j	80003e70 <fail>

0000000080001360 <test_117>:
    80001360:	07500193          	li	gp,117
    80001364:	0005b283          	ld	t0,0(a1)
    80001368:	00858593          	addi	a1,a1,8
    8000136c:	010703b7          	lui	t2,0x1070
    80001370:	0013839b          	addiw	t2,t2,1
    80001374:	01839393          	slli	t2,t2,0x18
    80001378:	10038393          	addi	t2,t2,256 # 1070100 <_start-0x7ef8ff00>
    8000137c:	00728463          	beq	t0,t2,80001384 <test_118>
    80001380:	2f10206f          	j	80003e70 <fail>

0000000080001384 <test_118>:
    80001384:	07600193          	li	gp,118
    80001388:	0005b283          	ld	t0,0(a1)
    8000138c:	00858593          	addi	a1,a1,8
    80001390:	000103b7          	lui	t2,0x10
    80001394:	3f93839b          	addiw	t2,t2,1017
    80001398:	01439393          	slli	t2,t2,0x14
    8000139c:	eff38393          	addi	t2,t2,-257 # feff <_start-0x7fff0101>
    800013a0:	00c39393          	slli	t2,t2,0xc
    800013a4:	fff38393          	addi	t2,t2,-1
    800013a8:	00728463          	beq	t0,t2,800013b0 <test_119>
    800013ac:	2c50206f          	j	80003e70 <fail>

00000000800013b0 <test_119>:
    800013b0:	07700193          	li	gp,119
    800013b4:	0005b283          	ld	t0,0(a1)
    800013b8:	00858593          	addi	a1,a1,8
    800013bc:	010703b7          	lui	t2,0x1070
    800013c0:	0013839b          	addiw	t2,t2,1
    800013c4:	01839393          	slli	t2,t2,0x18
    800013c8:	10038393          	addi	t2,t2,256 # 1070100 <_start-0x7ef8ff00>
    800013cc:	00728463          	beq	t0,t2,800013d4 <test_120>
    800013d0:	2a10206f          	j	80003e70 <fail>

00000000800013d4 <test_120>:
    800013d4:	07800193          	li	gp,120
    800013d8:	0005b283          	ld	t0,0(a1)
    800013dc:	00858593          	addi	a1,a1,8
    800013e0:	000103b7          	lui	t2,0x10
    800013e4:	3f93839b          	addiw	t2,t2,1017
    800013e8:	01439393          	slli	t2,t2,0x14
    800013ec:	eff38393          	addi	t2,t2,-257 # feff <_start-0x7fff0101>
    800013f0:	00c39393          	slli	t2,t2,0xc
    800013f4:	fff38393          	addi	t2,t2,-1
    800013f8:	00728463          	beq	t0,t2,80001400 <test_121>
    800013fc:	2750206f          	j	80003e70 <fail>

0000000080001400 <test_121>:
    80001400:	07900193          	li	gp,121
    80001404:	0005b283          	ld	t0,0(a1)
    80001408:	00858593          	addi	a1,a1,8
    8000140c:	010703b7          	lui	t2,0x1070
    80001410:	0013839b          	addiw	t2,t2,1
    80001414:	01839393          	slli	t2,t2,0x18
    80001418:	10038393          	addi	t2,t2,256 # 1070100 <_start-0x7ef8ff00>
    8000141c:	00728463          	beq	t0,t2,80001424 <test_122>
    80001420:	2510206f          	j	80003e70 <fail>

0000000080001424 <test_122>:
    80001424:	07a00193          	li	gp,122
    80001428:	0005b283          	ld	t0,0(a1)
    8000142c:	00858593          	addi	a1,a1,8
    80001430:	000103b7          	lui	t2,0x10
    80001434:	3f93839b          	addiw	t2,t2,1017
    80001438:	01439393          	slli	t2,t2,0x14
    8000143c:	eff38393          	addi	t2,t2,-257 # feff <_start-0x7fff0101>
    80001440:	00c39393          	slli	t2,t2,0xc
    80001444:	fff38393          	addi	t2,t2,-1
    80001448:	00728463          	beq	t0,t2,80001450 <test_123>
    8000144c:	2250206f          	j	80003e70 <fail>

0000000080001450 <test_123>:
    80001450:	07b00193          	li	gp,123
    80001454:	0005b283          	ld	t0,0(a1)
    80001458:	00858593          	addi	a1,a1,8
    8000145c:	010703b7          	lui	t2,0x1070
    80001460:	0013839b          	addiw	t2,t2,1
    80001464:	01839393          	slli	t2,t2,0x18
    80001468:	10038393          	addi	t2,t2,256 # 1070100 <_start-0x7ef8ff00>
    8000146c:	00728463          	beq	t0,t2,80001474 <test_124>
    80001470:	2010206f          	j	80003e70 <fail>

0000000080001474 <test_124>:
    80001474:	07c00193          	li	gp,124
    80001478:	0005b283          	ld	t0,0(a1)
    8000147c:	00858593          	addi	a1,a1,8
    80001480:	000103b7          	lui	t2,0x10
    80001484:	3f93839b          	addiw	t2,t2,1017
    80001488:	01439393          	slli	t2,t2,0x14
    8000148c:	eff38393          	addi	t2,t2,-257 # feff <_start-0x7fff0101>
    80001490:	00c39393          	slli	t2,t2,0xc
    80001494:	fff38393          	addi	t2,t2,-1
    80001498:	00728463          	beq	t0,t2,800014a0 <test_125>
    8000149c:	1d50206f          	j	80003e70 <fail>

00000000800014a0 <test_125>:
    800014a0:	07d00193          	li	gp,125
    800014a4:	0005b283          	ld	t0,0(a1)
    800014a8:	00858593          	addi	a1,a1,8
    800014ac:	010703b7          	lui	t2,0x1070
    800014b0:	0013839b          	addiw	t2,t2,1
    800014b4:	01839393          	slli	t2,t2,0x18
    800014b8:	10038393          	addi	t2,t2,256 # 1070100 <_start-0x7ef8ff00>
    800014bc:	00728463          	beq	t0,t2,800014c4 <test_126>
    800014c0:	1b10206f          	j	80003e70 <fail>

00000000800014c4 <test_126>:
    800014c4:	07e00193          	li	gp,126
    800014c8:	0005b283          	ld	t0,0(a1)
    800014cc:	00858593          	addi	a1,a1,8
    800014d0:	000103b7          	lui	t2,0x10
    800014d4:	3f93839b          	addiw	t2,t2,1017
    800014d8:	01439393          	slli	t2,t2,0x14
    800014dc:	eff38393          	addi	t2,t2,-257 # feff <_start-0x7fff0101>
    800014e0:	00c39393          	slli	t2,t2,0xc
    800014e4:	fff38393          	addi	t2,t2,-1
    800014e8:	00728463          	beq	t0,t2,800014f0 <test_127>
    800014ec:	1850206f          	j	80003e70 <fail>

00000000800014f0 <test_127>:
    800014f0:	07f00193          	li	gp,127
    800014f4:	0005b283          	ld	t0,0(a1)
    800014f8:	00858593          	addi	a1,a1,8
    800014fc:	010703b7          	lui	t2,0x1070
    80001500:	0013839b          	addiw	t2,t2,1
    80001504:	01839393          	slli	t2,t2,0x18
    80001508:	10038393          	addi	t2,t2,256 # 1070100 <_start-0x7ef8ff00>
    8000150c:	00728463          	beq	t0,t2,80001514 <test_128>
    80001510:	1610206f          	j	80003e70 <fail>

0000000080001514 <test_128>:
    80001514:	08000193          	li	gp,128
    80001518:	0005b283          	ld	t0,0(a1)
    8000151c:	00858593          	addi	a1,a1,8
    80001520:	000103b7          	lui	t2,0x10
    80001524:	3f93839b          	addiw	t2,t2,1017
    80001528:	01439393          	slli	t2,t2,0x14
    8000152c:	eff38393          	addi	t2,t2,-257 # feff <_start-0x7fff0101>
    80001530:	00c39393          	slli	t2,t2,0xc
    80001534:	fff38393          	addi	t2,t2,-1
    80001538:	00728463          	beq	t0,t2,80001540 <test_129>
    8000153c:	1350206f          	j	80003e70 <fail>

0000000080001540 <test_129>:
    80001540:	08100193          	li	gp,129
    80001544:	0005b283          	ld	t0,0(a1)
    80001548:	00858593          	addi	a1,a1,8
    8000154c:	010703b7          	lui	t2,0x1070
    80001550:	0013839b          	addiw	t2,t2,1
    80001554:	01839393          	slli	t2,t2,0x18
    80001558:	10038393          	addi	t2,t2,256 # 1070100 <_start-0x7ef8ff00>
    8000155c:	00728463          	beq	t0,t2,80001564 <test_129+0x24>
    80001560:	1110206f          	j	80003e70 <fail>
    80001564:	fff00293          	li	t0,-1
    80001568:	0c22f357          	vsetvli	t1,t0,e8,m4,ta,ma
    8000156c:	00004617          	auipc	a2,0x4
    80001570:	ca460613          	addi	a2,a2,-860 # 80005210 <tdat>
    80001574:	02060807          	vle8.v	v16,(a2)
    80001578:	0c32f357          	vsetvli	t1,t0,e8,m8,ta,ma
    8000157c:	02060407          	vle8.v	v8,(a2)
    80001580:	00004617          	auipc	a2,0x4
    80001584:	c9860613          	addi	a2,a2,-872 # 80005218 <tdat+0x8>
    80001588:	0c22f357          	vsetvli	t1,t0,e8,m4,ta,ma
    8000158c:	02060c07          	vle8.v	v24,(a2)
    80001590:	07f00293          	li	t0,127
    80001594:	0c22f357          	vsetvli	t1,t0,e8,m4,ta,ma
    80001598:	c30c0457          	vwredsumu.vs	v8,v16,v24
    8000159c:	fff00293          	li	t0,-1
    800015a0:	0c32f357          	vsetvli	t1,t0,e8,m8,ta,ma
    800015a4:	00004597          	auipc	a1,0x4
    800015a8:	a5c58593          	addi	a1,a1,-1444 # 80005000 <begin_signature>
    800015ac:	02058427          	vse8.v	v8,(a1)

00000000800015b0 <test_130>:
    800015b0:	08200193          	li	gp,130
    800015b4:	0005b283          	ld	t0,0(a1)
    800015b8:	00858593          	addi	a1,a1,8
    800015bc:	000103b7          	lui	t2,0x10
    800015c0:	3f93839b          	addiw	t2,t2,1017
    800015c4:	01439393          	slli	t2,t2,0x14
    800015c8:	ef338393          	addi	t2,t2,-269 # fef3 <_start-0x7fff010d>
    800015cc:	00c39393          	slli	t2,t2,0xc
    800015d0:	81038393          	addi	t2,t2,-2032
    800015d4:	00728463          	beq	t0,t2,800015dc <test_131>
    800015d8:	0990206f          	j	80003e70 <fail>

00000000800015dc <test_131>:
    800015dc:	08300193          	li	gp,131
    800015e0:	0005b283          	ld	t0,0(a1)
    800015e4:	00858593          	addi	a1,a1,8
    800015e8:	010703b7          	lui	t2,0x1070
    800015ec:	0013839b          	addiw	t2,t2,1
    800015f0:	01839393          	slli	t2,t2,0x18
    800015f4:	10038393          	addi	t2,t2,256 # 1070100 <_start-0x7ef8ff00>
    800015f8:	00728463          	beq	t0,t2,80001600 <test_132>
    800015fc:	0750206f          	j	80003e70 <fail>

0000000080001600 <test_132>:
    80001600:	08400193          	li	gp,132
    80001604:	0005b283          	ld	t0,0(a1)
    80001608:	00858593          	addi	a1,a1,8
    8000160c:	000103b7          	lui	t2,0x10
    80001610:	3f93839b          	addiw	t2,t2,1017
    80001614:	01439393          	slli	t2,t2,0x14
    80001618:	eff38393          	addi	t2,t2,-257 # feff <_start-0x7fff0101>
    8000161c:	00c39393          	slli	t2,t2,0xc
    80001620:	fff38393          	addi	t2,t2,-1
    80001624:	00728463          	beq	t0,t2,8000162c <test_133>
    80001628:	0490206f          	j	80003e70 <fail>

000000008000162c <test_133>:
    8000162c:	08500193          	li	gp,133
    80001630:	0005b283          	ld	t0,0(a1)
    80001634:	00858593          	addi	a1,a1,8
    80001638:	010703b7          	lui	t2,0x1070
    8000163c:	0013839b          	addiw	t2,t2,1
    80001640:	01839393          	slli	t2,t2,0x18
    80001644:	10038393          	addi	t2,t2,256 # 1070100 <_start-0x7ef8ff00>
    80001648:	00728463          	beq	t0,t2,80001650 <test_134>
    8000164c:	0250206f          	j	80003e70 <fail>

0000000080001650 <test_134>:
    80001650:	08600193          	li	gp,134
    80001654:	0005b283          	ld	t0,0(a1)
    80001658:	00858593          	addi	a1,a1,8
    8000165c:	000103b7          	lui	t2,0x10
    80001660:	3f93839b          	addiw	t2,t2,1017
    80001664:	01439393          	slli	t2,t2,0x14
    80001668:	eff38393          	addi	t2,t2,-257 # feff <_start-0x7fff0101>
    8000166c:	00c39393          	slli	t2,t2,0xc
    80001670:	fff38393          	addi	t2,t2,-1
    80001674:	00728463          	beq	t0,t2,8000167c <test_135>
    80001678:	7f80206f          	j	80003e70 <fail>

000000008000167c <test_135>:
    8000167c:	08700193          	li	gp,135
    80001680:	0005b283          	ld	t0,0(a1)
    80001684:	00858593          	addi	a1,a1,8
    80001688:	010703b7          	lui	t2,0x1070
    8000168c:	0013839b          	addiw	t2,t2,1
    80001690:	01839393          	slli	t2,t2,0x18
    80001694:	10038393          	addi	t2,t2,256 # 1070100 <_start-0x7ef8ff00>
    80001698:	00728463          	beq	t0,t2,800016a0 <test_136>
    8000169c:	7d40206f          	j	80003e70 <fail>

00000000800016a0 <test_136>:
    800016a0:	08800193          	li	gp,136
    800016a4:	0005b283          	ld	t0,0(a1)
    800016a8:	00858593          	addi	a1,a1,8
    800016ac:	000103b7          	lui	t2,0x10
    800016b0:	3f93839b          	addiw	t2,t2,1017
    800016b4:	01439393          	slli	t2,t2,0x14
    800016b8:	eff38393          	addi	t2,t2,-257 # feff <_start-0x7fff0101>
    800016bc:	00c39393          	slli	t2,t2,0xc
    800016c0:	fff38393          	addi	t2,t2,-1
    800016c4:	00728463          	beq	t0,t2,800016cc <test_137>
    800016c8:	7a80206f          	j	80003e70 <fail>

00000000800016cc <test_137>:
    800016cc:	08900193          	li	gp,137
    800016d0:	0005b283          	ld	t0,0(a1)
    800016d4:	00858593          	addi	a1,a1,8
    800016d8:	010703b7          	lui	t2,0x1070
    800016dc:	0013839b          	addiw	t2,t2,1
    800016e0:	01839393          	slli	t2,t2,0x18
    800016e4:	10038393          	addi	t2,t2,256 # 1070100 <_start-0x7ef8ff00>
    800016e8:	00728463          	beq	t0,t2,800016f0 <test_138>
    800016ec:	7840206f          	j	80003e70 <fail>

00000000800016f0 <test_138>:
    800016f0:	08a00193          	li	gp,138
    800016f4:	0005b283          	ld	t0,0(a1)
    800016f8:	00858593          	addi	a1,a1,8
    800016fc:	000103b7          	lui	t2,0x10
    80001700:	3f93839b          	addiw	t2,t2,1017
    80001704:	01439393          	slli	t2,t2,0x14
    80001708:	eff38393          	addi	t2,t2,-257 # feff <_start-0x7fff0101>
    8000170c:	00c39393          	slli	t2,t2,0xc
    80001710:	fff38393          	addi	t2,t2,-1
    80001714:	00728463          	beq	t0,t2,8000171c <test_139>
    80001718:	7580206f          	j	80003e70 <fail>

000000008000171c <test_139>:
    8000171c:	08b00193          	li	gp,139
    80001720:	0005b283          	ld	t0,0(a1)
    80001724:	00858593          	addi	a1,a1,8
    80001728:	010703b7          	lui	t2,0x1070
    8000172c:	0013839b          	addiw	t2,t2,1
    80001730:	01839393          	slli	t2,t2,0x18
    80001734:	10038393          	addi	t2,t2,256 # 1070100 <_start-0x7ef8ff00>
    80001738:	00728463          	beq	t0,t2,80001740 <test_140>
    8000173c:	7340206f          	j	80003e70 <fail>

0000000080001740 <test_140>:
    80001740:	08c00193          	li	gp,140
    80001744:	0005b283          	ld	t0,0(a1)
    80001748:	00858593          	addi	a1,a1,8
    8000174c:	000103b7          	lui	t2,0x10
    80001750:	3f93839b          	addiw	t2,t2,1017
    80001754:	01439393          	slli	t2,t2,0x14
    80001758:	eff38393          	addi	t2,t2,-257 # feff <_start-0x7fff0101>
    8000175c:	00c39393          	slli	t2,t2,0xc
    80001760:	fff38393          	addi	t2,t2,-1
    80001764:	00728463          	beq	t0,t2,8000176c <test_141>
    80001768:	7080206f          	j	80003e70 <fail>

000000008000176c <test_141>:
    8000176c:	08d00193          	li	gp,141
    80001770:	0005b283          	ld	t0,0(a1)
    80001774:	00858593          	addi	a1,a1,8
    80001778:	010703b7          	lui	t2,0x1070
    8000177c:	0013839b          	addiw	t2,t2,1
    80001780:	01839393          	slli	t2,t2,0x18
    80001784:	10038393          	addi	t2,t2,256 # 1070100 <_start-0x7ef8ff00>
    80001788:	00728463          	beq	t0,t2,80001790 <test_142>
    8000178c:	6e40206f          	j	80003e70 <fail>

0000000080001790 <test_142>:
    80001790:	08e00193          	li	gp,142
    80001794:	0005b283          	ld	t0,0(a1)
    80001798:	00858593          	addi	a1,a1,8
    8000179c:	000103b7          	lui	t2,0x10
    800017a0:	3f93839b          	addiw	t2,t2,1017
    800017a4:	01439393          	slli	t2,t2,0x14
    800017a8:	eff38393          	addi	t2,t2,-257 # feff <_start-0x7fff0101>
    800017ac:	00c39393          	slli	t2,t2,0xc
    800017b0:	fff38393          	addi	t2,t2,-1
    800017b4:	00728463          	beq	t0,t2,800017bc <test_143>
    800017b8:	6b80206f          	j	80003e70 <fail>

00000000800017bc <test_143>:
    800017bc:	08f00193          	li	gp,143
    800017c0:	0005b283          	ld	t0,0(a1)
    800017c4:	00858593          	addi	a1,a1,8
    800017c8:	010703b7          	lui	t2,0x1070
    800017cc:	0013839b          	addiw	t2,t2,1
    800017d0:	01839393          	slli	t2,t2,0x18
    800017d4:	10038393          	addi	t2,t2,256 # 1070100 <_start-0x7ef8ff00>
    800017d8:	00728463          	beq	t0,t2,800017e0 <test_144>
    800017dc:	6940206f          	j	80003e70 <fail>

00000000800017e0 <test_144>:
    800017e0:	09000193          	li	gp,144
    800017e4:	0005b283          	ld	t0,0(a1)
    800017e8:	00858593          	addi	a1,a1,8
    800017ec:	000103b7          	lui	t2,0x10
    800017f0:	3f93839b          	addiw	t2,t2,1017
    800017f4:	01439393          	slli	t2,t2,0x14
    800017f8:	eff38393          	addi	t2,t2,-257 # feff <_start-0x7fff0101>
    800017fc:	00c39393          	slli	t2,t2,0xc
    80001800:	fff38393          	addi	t2,t2,-1
    80001804:	00728463          	beq	t0,t2,8000180c <test_145>
    80001808:	6680206f          	j	80003e70 <fail>

000000008000180c <test_145>:
    8000180c:	09100193          	li	gp,145
    80001810:	0005b283          	ld	t0,0(a1)
    80001814:	00858593          	addi	a1,a1,8
    80001818:	010703b7          	lui	t2,0x1070
    8000181c:	0013839b          	addiw	t2,t2,1
    80001820:	01839393          	slli	t2,t2,0x18
    80001824:	10038393          	addi	t2,t2,256 # 1070100 <_start-0x7ef8ff00>
    80001828:	00728463          	beq	t0,t2,80001830 <test_146>
    8000182c:	6440206f          	j	80003e70 <fail>

0000000080001830 <test_146>:
    80001830:	09200193          	li	gp,146
    80001834:	0005b283          	ld	t0,0(a1)
    80001838:	00858593          	addi	a1,a1,8
    8000183c:	000103b7          	lui	t2,0x10
    80001840:	3f93839b          	addiw	t2,t2,1017
    80001844:	01439393          	slli	t2,t2,0x14
    80001848:	eff38393          	addi	t2,t2,-257 # feff <_start-0x7fff0101>
    8000184c:	00c39393          	slli	t2,t2,0xc
    80001850:	fff38393          	addi	t2,t2,-1
    80001854:	00728463          	beq	t0,t2,8000185c <test_147>
    80001858:	6180206f          	j	80003e70 <fail>

000000008000185c <test_147>:
    8000185c:	09300193          	li	gp,147
    80001860:	0005b283          	ld	t0,0(a1)
    80001864:	00858593          	addi	a1,a1,8
    80001868:	010703b7          	lui	t2,0x1070
    8000186c:	0013839b          	addiw	t2,t2,1
    80001870:	01839393          	slli	t2,t2,0x18
    80001874:	10038393          	addi	t2,t2,256 # 1070100 <_start-0x7ef8ff00>
    80001878:	00728463          	beq	t0,t2,80001880 <test_148>
    8000187c:	5f40206f          	j	80003e70 <fail>

0000000080001880 <test_148>:
    80001880:	09400193          	li	gp,148
    80001884:	0005b283          	ld	t0,0(a1)
    80001888:	00858593          	addi	a1,a1,8
    8000188c:	000103b7          	lui	t2,0x10
    80001890:	3f93839b          	addiw	t2,t2,1017
    80001894:	01439393          	slli	t2,t2,0x14
    80001898:	eff38393          	addi	t2,t2,-257 # feff <_start-0x7fff0101>
    8000189c:	00c39393          	slli	t2,t2,0xc
    800018a0:	fff38393          	addi	t2,t2,-1
    800018a4:	00728463          	beq	t0,t2,800018ac <test_149>
    800018a8:	5c80206f          	j	80003e70 <fail>

00000000800018ac <test_149>:
    800018ac:	09500193          	li	gp,149
    800018b0:	0005b283          	ld	t0,0(a1)
    800018b4:	00858593          	addi	a1,a1,8
    800018b8:	010703b7          	lui	t2,0x1070
    800018bc:	0013839b          	addiw	t2,t2,1
    800018c0:	01839393          	slli	t2,t2,0x18
    800018c4:	10038393          	addi	t2,t2,256 # 1070100 <_start-0x7ef8ff00>
    800018c8:	00728463          	beq	t0,t2,800018d0 <test_150>
    800018cc:	5a40206f          	j	80003e70 <fail>

00000000800018d0 <test_150>:
    800018d0:	09600193          	li	gp,150
    800018d4:	0005b283          	ld	t0,0(a1)
    800018d8:	00858593          	addi	a1,a1,8
    800018dc:	000103b7          	lui	t2,0x10
    800018e0:	3f93839b          	addiw	t2,t2,1017
    800018e4:	01439393          	slli	t2,t2,0x14
    800018e8:	eff38393          	addi	t2,t2,-257 # feff <_start-0x7fff0101>
    800018ec:	00c39393          	slli	t2,t2,0xc
    800018f0:	fff38393          	addi	t2,t2,-1
    800018f4:	00728463          	beq	t0,t2,800018fc <test_151>
    800018f8:	5780206f          	j	80003e70 <fail>

00000000800018fc <test_151>:
    800018fc:	09700193          	li	gp,151
    80001900:	0005b283          	ld	t0,0(a1)
    80001904:	00858593          	addi	a1,a1,8
    80001908:	010703b7          	lui	t2,0x1070
    8000190c:	0013839b          	addiw	t2,t2,1
    80001910:	01839393          	slli	t2,t2,0x18
    80001914:	10038393          	addi	t2,t2,256 # 1070100 <_start-0x7ef8ff00>
    80001918:	00728463          	beq	t0,t2,80001920 <test_152>
    8000191c:	5540206f          	j	80003e70 <fail>

0000000080001920 <test_152>:
    80001920:	09800193          	li	gp,152
    80001924:	0005b283          	ld	t0,0(a1)
    80001928:	00858593          	addi	a1,a1,8
    8000192c:	000103b7          	lui	t2,0x10
    80001930:	3f93839b          	addiw	t2,t2,1017
    80001934:	01439393          	slli	t2,t2,0x14
    80001938:	eff38393          	addi	t2,t2,-257 # feff <_start-0x7fff0101>
    8000193c:	00c39393          	slli	t2,t2,0xc
    80001940:	fff38393          	addi	t2,t2,-1
    80001944:	00728463          	beq	t0,t2,8000194c <test_153>
    80001948:	5280206f          	j	80003e70 <fail>

000000008000194c <test_153>:
    8000194c:	09900193          	li	gp,153
    80001950:	0005b283          	ld	t0,0(a1)
    80001954:	00858593          	addi	a1,a1,8
    80001958:	010703b7          	lui	t2,0x1070
    8000195c:	0013839b          	addiw	t2,t2,1
    80001960:	01839393          	slli	t2,t2,0x18
    80001964:	10038393          	addi	t2,t2,256 # 1070100 <_start-0x7ef8ff00>
    80001968:	00728463          	beq	t0,t2,80001970 <test_154>
    8000196c:	5040206f          	j	80003e70 <fail>

0000000080001970 <test_154>:
    80001970:	09a00193          	li	gp,154
    80001974:	0005b283          	ld	t0,0(a1)
    80001978:	00858593          	addi	a1,a1,8
    8000197c:	000103b7          	lui	t2,0x10
    80001980:	3f93839b          	addiw	t2,t2,1017
    80001984:	01439393          	slli	t2,t2,0x14
    80001988:	eff38393          	addi	t2,t2,-257 # feff <_start-0x7fff0101>
    8000198c:	00c39393          	slli	t2,t2,0xc
    80001990:	fff38393          	addi	t2,t2,-1
    80001994:	00728463          	beq	t0,t2,8000199c <test_155>
    80001998:	4d80206f          	j	80003e70 <fail>

000000008000199c <test_155>:
    8000199c:	09b00193          	li	gp,155
    800019a0:	0005b283          	ld	t0,0(a1)
    800019a4:	00858593          	addi	a1,a1,8
    800019a8:	010703b7          	lui	t2,0x1070
    800019ac:	0013839b          	addiw	t2,t2,1
    800019b0:	01839393          	slli	t2,t2,0x18
    800019b4:	10038393          	addi	t2,t2,256 # 1070100 <_start-0x7ef8ff00>
    800019b8:	00728463          	beq	t0,t2,800019c0 <test_156>
    800019bc:	4b40206f          	j	80003e70 <fail>

00000000800019c0 <test_156>:
    800019c0:	09c00193          	li	gp,156
    800019c4:	0005b283          	ld	t0,0(a1)
    800019c8:	00858593          	addi	a1,a1,8
    800019cc:	000103b7          	lui	t2,0x10
    800019d0:	3f93839b          	addiw	t2,t2,1017
    800019d4:	01439393          	slli	t2,t2,0x14
    800019d8:	eff38393          	addi	t2,t2,-257 # feff <_start-0x7fff0101>
    800019dc:	00c39393          	slli	t2,t2,0xc
    800019e0:	fff38393          	addi	t2,t2,-1
    800019e4:	00728463          	beq	t0,t2,800019ec <test_157>
    800019e8:	4880206f          	j	80003e70 <fail>

00000000800019ec <test_157>:
    800019ec:	09d00193          	li	gp,157
    800019f0:	0005b283          	ld	t0,0(a1)
    800019f4:	00858593          	addi	a1,a1,8
    800019f8:	010703b7          	lui	t2,0x1070
    800019fc:	0013839b          	addiw	t2,t2,1
    80001a00:	01839393          	slli	t2,t2,0x18
    80001a04:	10038393          	addi	t2,t2,256 # 1070100 <_start-0x7ef8ff00>
    80001a08:	00728463          	beq	t0,t2,80001a10 <test_158>
    80001a0c:	4640206f          	j	80003e70 <fail>

0000000080001a10 <test_158>:
    80001a10:	09e00193          	li	gp,158
    80001a14:	0005b283          	ld	t0,0(a1)
    80001a18:	00858593          	addi	a1,a1,8
    80001a1c:	000103b7          	lui	t2,0x10
    80001a20:	3f93839b          	addiw	t2,t2,1017
    80001a24:	01439393          	slli	t2,t2,0x14
    80001a28:	eff38393          	addi	t2,t2,-257 # feff <_start-0x7fff0101>
    80001a2c:	00c39393          	slli	t2,t2,0xc
    80001a30:	fff38393          	addi	t2,t2,-1
    80001a34:	00728463          	beq	t0,t2,80001a3c <test_159>
    80001a38:	4380206f          	j	80003e70 <fail>

0000000080001a3c <test_159>:
    80001a3c:	09f00193          	li	gp,159
    80001a40:	0005b283          	ld	t0,0(a1)
    80001a44:	00858593          	addi	a1,a1,8
    80001a48:	010703b7          	lui	t2,0x1070
    80001a4c:	0013839b          	addiw	t2,t2,1
    80001a50:	01839393          	slli	t2,t2,0x18
    80001a54:	10038393          	addi	t2,t2,256 # 1070100 <_start-0x7ef8ff00>
    80001a58:	00728463          	beq	t0,t2,80001a60 <test_160>
    80001a5c:	4140206f          	j	80003e70 <fail>

0000000080001a60 <test_160>:
    80001a60:	0a000193          	li	gp,160
    80001a64:	0005b283          	ld	t0,0(a1)
    80001a68:	00858593          	addi	a1,a1,8
    80001a6c:	000103b7          	lui	t2,0x10
    80001a70:	3f93839b          	addiw	t2,t2,1017
    80001a74:	01439393          	slli	t2,t2,0x14
    80001a78:	eff38393          	addi	t2,t2,-257 # feff <_start-0x7fff0101>
    80001a7c:	00c39393          	slli	t2,t2,0xc
    80001a80:	fff38393          	addi	t2,t2,-1
    80001a84:	00728463          	beq	t0,t2,80001a8c <test_161>
    80001a88:	3e80206f          	j	80003e70 <fail>

0000000080001a8c <test_161>:
    80001a8c:	0a100193          	li	gp,161
    80001a90:	0005b283          	ld	t0,0(a1)
    80001a94:	00858593          	addi	a1,a1,8
    80001a98:	010703b7          	lui	t2,0x1070
    80001a9c:	0013839b          	addiw	t2,t2,1
    80001aa0:	01839393          	slli	t2,t2,0x18
    80001aa4:	10038393          	addi	t2,t2,256 # 1070100 <_start-0x7ef8ff00>
    80001aa8:	00728463          	beq	t0,t2,80001ab0 <test_161+0x24>
    80001aac:	3c40206f          	j	80003e70 <fail>
    80001ab0:	fff00293          	li	t0,-1
    80001ab4:	0c22f357          	vsetvli	t1,t0,e8,m4,ta,ma
    80001ab8:	00003617          	auipc	a2,0x3
    80001abc:	75860613          	addi	a2,a2,1880 # 80005210 <tdat>
    80001ac0:	02060807          	vle8.v	v16,(a2)
    80001ac4:	0c32f357          	vsetvli	t1,t0,e8,m8,ta,ma
    80001ac8:	02060407          	vle8.v	v8,(a2)
    80001acc:	00003617          	auipc	a2,0x3
    80001ad0:	74c60613          	addi	a2,a2,1868 # 80005218 <tdat+0x8>
    80001ad4:	0c22f357          	vsetvli	t1,t0,e8,m4,ta,ma
    80001ad8:	02060c07          	vle8.v	v24,(a2)
    80001adc:	07f00293          	li	t0,127
    80001ae0:	0822f357          	vsetvli	t1,t0,e8,m4,tu,ma
    80001ae4:	c30c0457          	vwredsumu.vs	v8,v16,v24
    80001ae8:	fff00293          	li	t0,-1
    80001aec:	0c32f357          	vsetvli	t1,t0,e8,m8,ta,ma
    80001af0:	00003597          	auipc	a1,0x3
    80001af4:	51058593          	addi	a1,a1,1296 # 80005000 <begin_signature>
    80001af8:	02058427          	vse8.v	v8,(a1)

0000000080001afc <test_162>:
    80001afc:	0a200193          	li	gp,162
    80001b00:	0005b283          	ld	t0,0(a1)
    80001b04:	00858593          	addi	a1,a1,8
    80001b08:	000103b7          	lui	t2,0x10
    80001b0c:	3f93839b          	addiw	t2,t2,1017
    80001b10:	01439393          	slli	t2,t2,0x14
    80001b14:	ef338393          	addi	t2,t2,-269 # fef3 <_start-0x7fff010d>
    80001b18:	00c39393          	slli	t2,t2,0xc
    80001b1c:	81038393          	addi	t2,t2,-2032
    80001b20:	00728463          	beq	t0,t2,80001b28 <test_163>
    80001b24:	34c0206f          	j	80003e70 <fail>

0000000080001b28 <test_163>:
    80001b28:	0a300193          	li	gp,163
    80001b2c:	0005b283          	ld	t0,0(a1)
    80001b30:	00858593          	addi	a1,a1,8
    80001b34:	010703b7          	lui	t2,0x1070
    80001b38:	0013839b          	addiw	t2,t2,1
    80001b3c:	01839393          	slli	t2,t2,0x18
    80001b40:	10038393          	addi	t2,t2,256 # 1070100 <_start-0x7ef8ff00>
    80001b44:	00728463          	beq	t0,t2,80001b4c <test_164>
    80001b48:	3280206f          	j	80003e70 <fail>

0000000080001b4c <test_164>:
    80001b4c:	0a400193          	li	gp,164
    80001b50:	0005b283          	ld	t0,0(a1)
    80001b54:	00858593          	addi	a1,a1,8
    80001b58:	000103b7          	lui	t2,0x10
    80001b5c:	3f93839b          	addiw	t2,t2,1017
    80001b60:	01439393          	slli	t2,t2,0x14
    80001b64:	eff38393          	addi	t2,t2,-257 # feff <_start-0x7fff0101>
    80001b68:	00c39393          	slli	t2,t2,0xc
    80001b6c:	fff38393          	addi	t2,t2,-1
    80001b70:	00728463          	beq	t0,t2,80001b78 <test_165>
    80001b74:	2fc0206f          	j	80003e70 <fail>

0000000080001b78 <test_165>:
    80001b78:	0a500193          	li	gp,165
    80001b7c:	0005b283          	ld	t0,0(a1)
    80001b80:	00858593          	addi	a1,a1,8
    80001b84:	010703b7          	lui	t2,0x1070
    80001b88:	0013839b          	addiw	t2,t2,1
    80001b8c:	01839393          	slli	t2,t2,0x18
    80001b90:	10038393          	addi	t2,t2,256 # 1070100 <_start-0x7ef8ff00>
    80001b94:	00728463          	beq	t0,t2,80001b9c <test_166>
    80001b98:	2d80206f          	j	80003e70 <fail>

0000000080001b9c <test_166>:
    80001b9c:	0a600193          	li	gp,166
    80001ba0:	0005b283          	ld	t0,0(a1)
    80001ba4:	00858593          	addi	a1,a1,8
    80001ba8:	000103b7          	lui	t2,0x10
    80001bac:	3f93839b          	addiw	t2,t2,1017
    80001bb0:	01439393          	slli	t2,t2,0x14
    80001bb4:	eff38393          	addi	t2,t2,-257 # feff <_start-0x7fff0101>
    80001bb8:	00c39393          	slli	t2,t2,0xc
    80001bbc:	fff38393          	addi	t2,t2,-1
    80001bc0:	00728463          	beq	t0,t2,80001bc8 <test_167>
    80001bc4:	2ac0206f          	j	80003e70 <fail>

0000000080001bc8 <test_167>:
    80001bc8:	0a700193          	li	gp,167
    80001bcc:	0005b283          	ld	t0,0(a1)
    80001bd0:	00858593          	addi	a1,a1,8
    80001bd4:	010703b7          	lui	t2,0x1070
    80001bd8:	0013839b          	addiw	t2,t2,1
    80001bdc:	01839393          	slli	t2,t2,0x18
    80001be0:	10038393          	addi	t2,t2,256 # 1070100 <_start-0x7ef8ff00>
    80001be4:	00728463          	beq	t0,t2,80001bec <test_168>
    80001be8:	2880206f          	j	80003e70 <fail>

0000000080001bec <test_168>:
    80001bec:	0a800193          	li	gp,168
    80001bf0:	0005b283          	ld	t0,0(a1)
    80001bf4:	00858593          	addi	a1,a1,8
    80001bf8:	000103b7          	lui	t2,0x10
    80001bfc:	3f93839b          	addiw	t2,t2,1017
    80001c00:	01439393          	slli	t2,t2,0x14
    80001c04:	eff38393          	addi	t2,t2,-257 # feff <_start-0x7fff0101>
    80001c08:	00c39393          	slli	t2,t2,0xc
    80001c0c:	fff38393          	addi	t2,t2,-1
    80001c10:	00728463          	beq	t0,t2,80001c18 <test_169>
    80001c14:	25c0206f          	j	80003e70 <fail>

0000000080001c18 <test_169>:
    80001c18:	0a900193          	li	gp,169
    80001c1c:	0005b283          	ld	t0,0(a1)
    80001c20:	00858593          	addi	a1,a1,8
    80001c24:	010703b7          	lui	t2,0x1070
    80001c28:	0013839b          	addiw	t2,t2,1
    80001c2c:	01839393          	slli	t2,t2,0x18
    80001c30:	10038393          	addi	t2,t2,256 # 1070100 <_start-0x7ef8ff00>
    80001c34:	00728463          	beq	t0,t2,80001c3c <test_170>
    80001c38:	2380206f          	j	80003e70 <fail>

0000000080001c3c <test_170>:
    80001c3c:	0aa00193          	li	gp,170
    80001c40:	0005b283          	ld	t0,0(a1)
    80001c44:	00858593          	addi	a1,a1,8
    80001c48:	000103b7          	lui	t2,0x10
    80001c4c:	3f93839b          	addiw	t2,t2,1017
    80001c50:	01439393          	slli	t2,t2,0x14
    80001c54:	eff38393          	addi	t2,t2,-257 # feff <_start-0x7fff0101>
    80001c58:	00c39393          	slli	t2,t2,0xc
    80001c5c:	fff38393          	addi	t2,t2,-1
    80001c60:	00728463          	beq	t0,t2,80001c68 <test_171>
    80001c64:	20c0206f          	j	80003e70 <fail>

0000000080001c68 <test_171>:
    80001c68:	0ab00193          	li	gp,171
    80001c6c:	0005b283          	ld	t0,0(a1)
    80001c70:	00858593          	addi	a1,a1,8
    80001c74:	010703b7          	lui	t2,0x1070
    80001c78:	0013839b          	addiw	t2,t2,1
    80001c7c:	01839393          	slli	t2,t2,0x18
    80001c80:	10038393          	addi	t2,t2,256 # 1070100 <_start-0x7ef8ff00>
    80001c84:	00728463          	beq	t0,t2,80001c8c <test_172>
    80001c88:	1e80206f          	j	80003e70 <fail>

0000000080001c8c <test_172>:
    80001c8c:	0ac00193          	li	gp,172
    80001c90:	0005b283          	ld	t0,0(a1)
    80001c94:	00858593          	addi	a1,a1,8
    80001c98:	000103b7          	lui	t2,0x10
    80001c9c:	3f93839b          	addiw	t2,t2,1017
    80001ca0:	01439393          	slli	t2,t2,0x14
    80001ca4:	eff38393          	addi	t2,t2,-257 # feff <_start-0x7fff0101>
    80001ca8:	00c39393          	slli	t2,t2,0xc
    80001cac:	fff38393          	addi	t2,t2,-1
    80001cb0:	00728463          	beq	t0,t2,80001cb8 <test_173>
    80001cb4:	1bc0206f          	j	80003e70 <fail>

0000000080001cb8 <test_173>:
    80001cb8:	0ad00193          	li	gp,173
    80001cbc:	0005b283          	ld	t0,0(a1)
    80001cc0:	00858593          	addi	a1,a1,8
    80001cc4:	010703b7          	lui	t2,0x1070
    80001cc8:	0013839b          	addiw	t2,t2,1
    80001ccc:	01839393          	slli	t2,t2,0x18
    80001cd0:	10038393          	addi	t2,t2,256 # 1070100 <_start-0x7ef8ff00>
    80001cd4:	00728463          	beq	t0,t2,80001cdc <test_174>
    80001cd8:	1980206f          	j	80003e70 <fail>

0000000080001cdc <test_174>:
    80001cdc:	0ae00193          	li	gp,174
    80001ce0:	0005b283          	ld	t0,0(a1)
    80001ce4:	00858593          	addi	a1,a1,8
    80001ce8:	000103b7          	lui	t2,0x10
    80001cec:	3f93839b          	addiw	t2,t2,1017
    80001cf0:	01439393          	slli	t2,t2,0x14
    80001cf4:	eff38393          	addi	t2,t2,-257 # feff <_start-0x7fff0101>
    80001cf8:	00c39393          	slli	t2,t2,0xc
    80001cfc:	fff38393          	addi	t2,t2,-1
    80001d00:	00728463          	beq	t0,t2,80001d08 <test_175>
    80001d04:	16c0206f          	j	80003e70 <fail>

0000000080001d08 <test_175>:
    80001d08:	0af00193          	li	gp,175
    80001d0c:	0005b283          	ld	t0,0(a1)
    80001d10:	00858593          	addi	a1,a1,8
    80001d14:	010703b7          	lui	t2,0x1070
    80001d18:	0013839b          	addiw	t2,t2,1
    80001d1c:	01839393          	slli	t2,t2,0x18
    80001d20:	10038393          	addi	t2,t2,256 # 1070100 <_start-0x7ef8ff00>
    80001d24:	00728463          	beq	t0,t2,80001d2c <test_176>
    80001d28:	1480206f          	j	80003e70 <fail>

0000000080001d2c <test_176>:
    80001d2c:	0b000193          	li	gp,176
    80001d30:	0005b283          	ld	t0,0(a1)
    80001d34:	00858593          	addi	a1,a1,8
    80001d38:	000103b7          	lui	t2,0x10
    80001d3c:	3f93839b          	addiw	t2,t2,1017
    80001d40:	01439393          	slli	t2,t2,0x14
    80001d44:	eff38393          	addi	t2,t2,-257 # feff <_start-0x7fff0101>
    80001d48:	00c39393          	slli	t2,t2,0xc
    80001d4c:	fff38393          	addi	t2,t2,-1
    80001d50:	00728463          	beq	t0,t2,80001d58 <test_177>
    80001d54:	11c0206f          	j	80003e70 <fail>

0000000080001d58 <test_177>:
    80001d58:	0b100193          	li	gp,177
    80001d5c:	0005b283          	ld	t0,0(a1)
    80001d60:	00858593          	addi	a1,a1,8
    80001d64:	010703b7          	lui	t2,0x1070
    80001d68:	0013839b          	addiw	t2,t2,1
    80001d6c:	01839393          	slli	t2,t2,0x18
    80001d70:	10038393          	addi	t2,t2,256 # 1070100 <_start-0x7ef8ff00>
    80001d74:	00728463          	beq	t0,t2,80001d7c <test_178>
    80001d78:	0f80206f          	j	80003e70 <fail>

0000000080001d7c <test_178>:
    80001d7c:	0b200193          	li	gp,178
    80001d80:	0005b283          	ld	t0,0(a1)
    80001d84:	00858593          	addi	a1,a1,8
    80001d88:	000103b7          	lui	t2,0x10
    80001d8c:	3f93839b          	addiw	t2,t2,1017
    80001d90:	01439393          	slli	t2,t2,0x14
    80001d94:	eff38393          	addi	t2,t2,-257 # feff <_start-0x7fff0101>
    80001d98:	00c39393          	slli	t2,t2,0xc
    80001d9c:	fff38393          	addi	t2,t2,-1
    80001da0:	00728463          	beq	t0,t2,80001da8 <test_179>
    80001da4:	0cc0206f          	j	80003e70 <fail>

0000000080001da8 <test_179>:
    80001da8:	0b300193          	li	gp,179
    80001dac:	0005b283          	ld	t0,0(a1)
    80001db0:	00858593          	addi	a1,a1,8
    80001db4:	010703b7          	lui	t2,0x1070
    80001db8:	0013839b          	addiw	t2,t2,1
    80001dbc:	01839393          	slli	t2,t2,0x18
    80001dc0:	10038393          	addi	t2,t2,256 # 1070100 <_start-0x7ef8ff00>
    80001dc4:	00728463          	beq	t0,t2,80001dcc <test_180>
    80001dc8:	0a80206f          	j	80003e70 <fail>

0000000080001dcc <test_180>:
    80001dcc:	0b400193          	li	gp,180
    80001dd0:	0005b283          	ld	t0,0(a1)
    80001dd4:	00858593          	addi	a1,a1,8
    80001dd8:	000103b7          	lui	t2,0x10
    80001ddc:	3f93839b          	addiw	t2,t2,1017
    80001de0:	01439393          	slli	t2,t2,0x14
    80001de4:	eff38393          	addi	t2,t2,-257 # feff <_start-0x7fff0101>
    80001de8:	00c39393          	slli	t2,t2,0xc
    80001dec:	fff38393          	addi	t2,t2,-1
    80001df0:	00728463          	beq	t0,t2,80001df8 <test_181>
    80001df4:	07c0206f          	j	80003e70 <fail>

0000000080001df8 <test_181>:
    80001df8:	0b500193          	li	gp,181
    80001dfc:	0005b283          	ld	t0,0(a1)
    80001e00:	00858593          	addi	a1,a1,8
    80001e04:	010703b7          	lui	t2,0x1070
    80001e08:	0013839b          	addiw	t2,t2,1
    80001e0c:	01839393          	slli	t2,t2,0x18
    80001e10:	10038393          	addi	t2,t2,256 # 1070100 <_start-0x7ef8ff00>
    80001e14:	00728463          	beq	t0,t2,80001e1c <test_182>
    80001e18:	0580206f          	j	80003e70 <fail>

0000000080001e1c <test_182>:
    80001e1c:	0b600193          	li	gp,182
    80001e20:	0005b283          	ld	t0,0(a1)
    80001e24:	00858593          	addi	a1,a1,8
    80001e28:	000103b7          	lui	t2,0x10
    80001e2c:	3f93839b          	addiw	t2,t2,1017
    80001e30:	01439393          	slli	t2,t2,0x14
    80001e34:	eff38393          	addi	t2,t2,-257 # feff <_start-0x7fff0101>
    80001e38:	00c39393          	slli	t2,t2,0xc
    80001e3c:	fff38393          	addi	t2,t2,-1
    80001e40:	00728463          	beq	t0,t2,80001e48 <test_183>
    80001e44:	02c0206f          	j	80003e70 <fail>

0000000080001e48 <test_183>:
    80001e48:	0b700193          	li	gp,183
    80001e4c:	0005b283          	ld	t0,0(a1)
    80001e50:	00858593          	addi	a1,a1,8
    80001e54:	010703b7          	lui	t2,0x1070
    80001e58:	0013839b          	addiw	t2,t2,1
    80001e5c:	01839393          	slli	t2,t2,0x18
    80001e60:	10038393          	addi	t2,t2,256 # 1070100 <_start-0x7ef8ff00>
    80001e64:	00728463          	beq	t0,t2,80001e6c <test_184>
    80001e68:	0080206f          	j	80003e70 <fail>

0000000080001e6c <test_184>:
    80001e6c:	0b800193          	li	gp,184
    80001e70:	0005b283          	ld	t0,0(a1)
    80001e74:	00858593          	addi	a1,a1,8
    80001e78:	000103b7          	lui	t2,0x10
    80001e7c:	3f93839b          	addiw	t2,t2,1017
    80001e80:	01439393          	slli	t2,t2,0x14
    80001e84:	eff38393          	addi	t2,t2,-257 # feff <_start-0x7fff0101>
    80001e88:	00c39393          	slli	t2,t2,0xc
    80001e8c:	fff38393          	addi	t2,t2,-1
    80001e90:	00728463          	beq	t0,t2,80001e98 <test_185>
    80001e94:	7dd0106f          	j	80003e70 <fail>

0000000080001e98 <test_185>:
    80001e98:	0b900193          	li	gp,185
    80001e9c:	0005b283          	ld	t0,0(a1)
    80001ea0:	00858593          	addi	a1,a1,8
    80001ea4:	010703b7          	lui	t2,0x1070
    80001ea8:	0013839b          	addiw	t2,t2,1
    80001eac:	01839393          	slli	t2,t2,0x18
    80001eb0:	10038393          	addi	t2,t2,256 # 1070100 <_start-0x7ef8ff00>
    80001eb4:	00728463          	beq	t0,t2,80001ebc <test_186>
    80001eb8:	7b90106f          	j	80003e70 <fail>

0000000080001ebc <test_186>:
    80001ebc:	0ba00193          	li	gp,186
    80001ec0:	0005b283          	ld	t0,0(a1)
    80001ec4:	00858593          	addi	a1,a1,8
    80001ec8:	000103b7          	lui	t2,0x10
    80001ecc:	3f93839b          	addiw	t2,t2,1017
    80001ed0:	01439393          	slli	t2,t2,0x14
    80001ed4:	eff38393          	addi	t2,t2,-257 # feff <_start-0x7fff0101>
    80001ed8:	00c39393          	slli	t2,t2,0xc
    80001edc:	fff38393          	addi	t2,t2,-1
    80001ee0:	00728463          	beq	t0,t2,80001ee8 <test_187>
    80001ee4:	78d0106f          	j	80003e70 <fail>

0000000080001ee8 <test_187>:
    80001ee8:	0bb00193          	li	gp,187
    80001eec:	0005b283          	ld	t0,0(a1)
    80001ef0:	00858593          	addi	a1,a1,8
    80001ef4:	010703b7          	lui	t2,0x1070
    80001ef8:	0013839b          	addiw	t2,t2,1
    80001efc:	01839393          	slli	t2,t2,0x18
    80001f00:	10038393          	addi	t2,t2,256 # 1070100 <_start-0x7ef8ff00>
    80001f04:	00728463          	beq	t0,t2,80001f0c <test_188>
    80001f08:	7690106f          	j	80003e70 <fail>

0000000080001f0c <test_188>:
    80001f0c:	0bc00193          	li	gp,188
    80001f10:	0005b283          	ld	t0,0(a1)
    80001f14:	00858593          	addi	a1,a1,8
    80001f18:	000103b7          	lui	t2,0x10
    80001f1c:	3f93839b          	addiw	t2,t2,1017
    80001f20:	01439393          	slli	t2,t2,0x14
    80001f24:	eff38393          	addi	t2,t2,-257 # feff <_start-0x7fff0101>
    80001f28:	00c39393          	slli	t2,t2,0xc
    80001f2c:	fff38393          	addi	t2,t2,-1
    80001f30:	00728463          	beq	t0,t2,80001f38 <test_189>
    80001f34:	73d0106f          	j	80003e70 <fail>

0000000080001f38 <test_189>:
    80001f38:	0bd00193          	li	gp,189
    80001f3c:	0005b283          	ld	t0,0(a1)
    80001f40:	00858593          	addi	a1,a1,8
    80001f44:	010703b7          	lui	t2,0x1070
    80001f48:	0013839b          	addiw	t2,t2,1
    80001f4c:	01839393          	slli	t2,t2,0x18
    80001f50:	10038393          	addi	t2,t2,256 # 1070100 <_start-0x7ef8ff00>
    80001f54:	00728463          	beq	t0,t2,80001f5c <test_190>
    80001f58:	7190106f          	j	80003e70 <fail>

0000000080001f5c <test_190>:
    80001f5c:	0be00193          	li	gp,190
    80001f60:	0005b283          	ld	t0,0(a1)
    80001f64:	00858593          	addi	a1,a1,8
    80001f68:	000103b7          	lui	t2,0x10
    80001f6c:	3f93839b          	addiw	t2,t2,1017
    80001f70:	01439393          	slli	t2,t2,0x14
    80001f74:	eff38393          	addi	t2,t2,-257 # feff <_start-0x7fff0101>
    80001f78:	00c39393          	slli	t2,t2,0xc
    80001f7c:	fff38393          	addi	t2,t2,-1
    80001f80:	00728463          	beq	t0,t2,80001f88 <test_191>
    80001f84:	6ed0106f          	j	80003e70 <fail>

0000000080001f88 <test_191>:
    80001f88:	0bf00193          	li	gp,191
    80001f8c:	0005b283          	ld	t0,0(a1)
    80001f90:	00858593          	addi	a1,a1,8
    80001f94:	010703b7          	lui	t2,0x1070
    80001f98:	0013839b          	addiw	t2,t2,1
    80001f9c:	01839393          	slli	t2,t2,0x18
    80001fa0:	10038393          	addi	t2,t2,256 # 1070100 <_start-0x7ef8ff00>
    80001fa4:	00728463          	beq	t0,t2,80001fac <test_192>
    80001fa8:	6c90106f          	j	80003e70 <fail>

0000000080001fac <test_192>:
    80001fac:	0c000193          	li	gp,192
    80001fb0:	0005b283          	ld	t0,0(a1)
    80001fb4:	00858593          	addi	a1,a1,8
    80001fb8:	000103b7          	lui	t2,0x10
    80001fbc:	3f93839b          	addiw	t2,t2,1017
    80001fc0:	01439393          	slli	t2,t2,0x14
    80001fc4:	eff38393          	addi	t2,t2,-257 # feff <_start-0x7fff0101>
    80001fc8:	00c39393          	slli	t2,t2,0xc
    80001fcc:	fff38393          	addi	t2,t2,-1
    80001fd0:	00728463          	beq	t0,t2,80001fd8 <test_193>
    80001fd4:	69d0106f          	j	80003e70 <fail>

0000000080001fd8 <test_193>:
    80001fd8:	0c100193          	li	gp,193
    80001fdc:	0005b283          	ld	t0,0(a1)
    80001fe0:	00858593          	addi	a1,a1,8
    80001fe4:	010703b7          	lui	t2,0x1070
    80001fe8:	0013839b          	addiw	t2,t2,1
    80001fec:	01839393          	slli	t2,t2,0x18
    80001ff0:	10038393          	addi	t2,t2,256 # 1070100 <_start-0x7ef8ff00>
    80001ff4:	00728463          	beq	t0,t2,80001ffc <test_193+0x24>
    80001ff8:	6790106f          	j	80003e70 <fail>
    80001ffc:	fff00293          	li	t0,-1
    80002000:	0c22f357          	vsetvli	t1,t0,e8,m4,ta,ma
    80002004:	00003617          	auipc	a2,0x3
    80002008:	20c60613          	addi	a2,a2,524 # 80005210 <tdat>
    8000200c:	02060807          	vle8.v	v16,(a2)
    80002010:	0c32f357          	vsetvli	t1,t0,e8,m8,ta,ma
    80002014:	02060407          	vle8.v	v8,(a2)
    80002018:	00003617          	auipc	a2,0x3
    8000201c:	20060613          	addi	a2,a2,512 # 80005218 <tdat+0x8>
    80002020:	0c22f357          	vsetvli	t1,t0,e8,m4,ta,ma
    80002024:	02060c07          	vle8.v	v24,(a2)
    80002028:	fff00293          	li	t0,-1
    8000202c:	0c02f357          	vsetvli	t1,t0,e8,m1,ta,ma
    80002030:	00003697          	auipc	a3,0x3
    80002034:	2e868693          	addi	a3,a3,744 # 80005318 <mask>
    80002038:	02068007          	vle8.v	v0,(a3)
    8000203c:	07f00293          	li	t0,127
    80002040:	0c22f357          	vsetvli	t1,t0,e8,m4,ta,ma
    80002044:	c10c0457          	vwredsumu.vs	v8,v16,v24,v0.t
    80002048:	fff00293          	li	t0,-1
    8000204c:	0c32f357          	vsetvli	t1,t0,e8,m8,ta,ma
    80002050:	00003597          	auipc	a1,0x3
    80002054:	fb058593          	addi	a1,a1,-80 # 80005000 <begin_signature>
    80002058:	02058427          	vse8.v	v8,(a1)

000000008000205c <test_194>:
    8000205c:	0c200193          	li	gp,194
    80002060:	0005b283          	ld	t0,0(a1)
    80002064:	00858593          	addi	a1,a1,8
    80002068:	000103b7          	lui	t2,0x10
    8000206c:	3f93839b          	addiw	t2,t2,1017
    80002070:	01339393          	slli	t2,t2,0x13
    80002074:	f7938393          	addi	t2,t2,-135 # ff79 <_start-0x7fff0087>
    80002078:	00d39393          	slli	t2,t2,0xd
    8000207c:	84038393          	addi	t2,t2,-1984
    80002080:	00728463          	beq	t0,t2,80002088 <test_195>
    80002084:	5ed0106f          	j	80003e70 <fail>

0000000080002088 <test_195>:
    80002088:	0c300193          	li	gp,195
    8000208c:	0005b283          	ld	t0,0(a1)
    80002090:	00858593          	addi	a1,a1,8
    80002094:	010703b7          	lui	t2,0x1070
    80002098:	0013839b          	addiw	t2,t2,1
    8000209c:	01839393          	slli	t2,t2,0x18
    800020a0:	10038393          	addi	t2,t2,256 # 1070100 <_start-0x7ef8ff00>
    800020a4:	00728463          	beq	t0,t2,800020ac <test_196>
    800020a8:	5c90106f          	j	80003e70 <fail>

00000000800020ac <test_196>:
    800020ac:	0c400193          	li	gp,196
    800020b0:	0005b283          	ld	t0,0(a1)
    800020b4:	00858593          	addi	a1,a1,8
    800020b8:	000103b7          	lui	t2,0x10
    800020bc:	3f93839b          	addiw	t2,t2,1017
    800020c0:	01439393          	slli	t2,t2,0x14
    800020c4:	eff38393          	addi	t2,t2,-257 # feff <_start-0x7fff0101>
    800020c8:	00c39393          	slli	t2,t2,0xc
    800020cc:	fff38393          	addi	t2,t2,-1
    800020d0:	00728463          	beq	t0,t2,800020d8 <test_197>
    800020d4:	59d0106f          	j	80003e70 <fail>

00000000800020d8 <test_197>:
    800020d8:	0c500193          	li	gp,197
    800020dc:	0005b283          	ld	t0,0(a1)
    800020e0:	00858593          	addi	a1,a1,8
    800020e4:	010703b7          	lui	t2,0x1070
    800020e8:	0013839b          	addiw	t2,t2,1
    800020ec:	01839393          	slli	t2,t2,0x18
    800020f0:	10038393          	addi	t2,t2,256 # 1070100 <_start-0x7ef8ff00>
    800020f4:	00728463          	beq	t0,t2,800020fc <test_198>
    800020f8:	5790106f          	j	80003e70 <fail>

00000000800020fc <test_198>:
    800020fc:	0c600193          	li	gp,198
    80002100:	0005b283          	ld	t0,0(a1)
    80002104:	00858593          	addi	a1,a1,8
    80002108:	000103b7          	lui	t2,0x10
    8000210c:	3f93839b          	addiw	t2,t2,1017
    80002110:	01439393          	slli	t2,t2,0x14
    80002114:	eff38393          	addi	t2,t2,-257 # feff <_start-0x7fff0101>
    80002118:	00c39393          	slli	t2,t2,0xc
    8000211c:	fff38393          	addi	t2,t2,-1
    80002120:	00728463          	beq	t0,t2,80002128 <test_199>
    80002124:	54d0106f          	j	80003e70 <fail>

0000000080002128 <test_199>:
    80002128:	0c700193          	li	gp,199
    8000212c:	0005b283          	ld	t0,0(a1)
    80002130:	00858593          	addi	a1,a1,8
    80002134:	010703b7          	lui	t2,0x1070
    80002138:	0013839b          	addiw	t2,t2,1
    8000213c:	01839393          	slli	t2,t2,0x18
    80002140:	10038393          	addi	t2,t2,256 # 1070100 <_start-0x7ef8ff00>
    80002144:	00728463          	beq	t0,t2,8000214c <test_200>
    80002148:	5290106f          	j	80003e70 <fail>

000000008000214c <test_200>:
    8000214c:	0c800193          	li	gp,200
    80002150:	0005b283          	ld	t0,0(a1)
    80002154:	00858593          	addi	a1,a1,8
    80002158:	000103b7          	lui	t2,0x10
    8000215c:	3f93839b          	addiw	t2,t2,1017
    80002160:	01439393          	slli	t2,t2,0x14
    80002164:	eff38393          	addi	t2,t2,-257 # feff <_start-0x7fff0101>
    80002168:	00c39393          	slli	t2,t2,0xc
    8000216c:	fff38393          	addi	t2,t2,-1
    80002170:	00728463          	beq	t0,t2,80002178 <test_201>
    80002174:	4fd0106f          	j	80003e70 <fail>

0000000080002178 <test_201>:
    80002178:	0c900193          	li	gp,201
    8000217c:	0005b283          	ld	t0,0(a1)
    80002180:	00858593          	addi	a1,a1,8
    80002184:	010703b7          	lui	t2,0x1070
    80002188:	0013839b          	addiw	t2,t2,1
    8000218c:	01839393          	slli	t2,t2,0x18
    80002190:	10038393          	addi	t2,t2,256 # 1070100 <_start-0x7ef8ff00>
    80002194:	00728463          	beq	t0,t2,8000219c <test_202>
    80002198:	4d90106f          	j	80003e70 <fail>

000000008000219c <test_202>:
    8000219c:	0ca00193          	li	gp,202
    800021a0:	0005b283          	ld	t0,0(a1)
    800021a4:	00858593          	addi	a1,a1,8
    800021a8:	000103b7          	lui	t2,0x10
    800021ac:	3f93839b          	addiw	t2,t2,1017
    800021b0:	01439393          	slli	t2,t2,0x14
    800021b4:	eff38393          	addi	t2,t2,-257 # feff <_start-0x7fff0101>
    800021b8:	00c39393          	slli	t2,t2,0xc
    800021bc:	fff38393          	addi	t2,t2,-1
    800021c0:	00728463          	beq	t0,t2,800021c8 <test_203>
    800021c4:	4ad0106f          	j	80003e70 <fail>

00000000800021c8 <test_203>:
    800021c8:	0cb00193          	li	gp,203
    800021cc:	0005b283          	ld	t0,0(a1)
    800021d0:	00858593          	addi	a1,a1,8
    800021d4:	010703b7          	lui	t2,0x1070
    800021d8:	0013839b          	addiw	t2,t2,1
    800021dc:	01839393          	slli	t2,t2,0x18
    800021e0:	10038393          	addi	t2,t2,256 # 1070100 <_start-0x7ef8ff00>
    800021e4:	00728463          	beq	t0,t2,800021ec <test_204>
    800021e8:	4890106f          	j	80003e70 <fail>

00000000800021ec <test_204>:
    800021ec:	0cc00193          	li	gp,204
    800021f0:	0005b283          	ld	t0,0(a1)
    800021f4:	00858593          	addi	a1,a1,8
    800021f8:	000103b7          	lui	t2,0x10
    800021fc:	3f93839b          	addiw	t2,t2,1017
    80002200:	01439393          	slli	t2,t2,0x14
    80002204:	eff38393          	addi	t2,t2,-257 # feff <_start-0x7fff0101>
    80002208:	00c39393          	slli	t2,t2,0xc
    8000220c:	fff38393          	addi	t2,t2,-1
    80002210:	00728463          	beq	t0,t2,80002218 <test_205>
    80002214:	45d0106f          	j	80003e70 <fail>

0000000080002218 <test_205>:
    80002218:	0cd00193          	li	gp,205
    8000221c:	0005b283          	ld	t0,0(a1)
    80002220:	00858593          	addi	a1,a1,8
    80002224:	010703b7          	lui	t2,0x1070
    80002228:	0013839b          	addiw	t2,t2,1
    8000222c:	01839393          	slli	t2,t2,0x18
    80002230:	10038393          	addi	t2,t2,256 # 1070100 <_start-0x7ef8ff00>
    80002234:	00728463          	beq	t0,t2,8000223c <test_206>
    80002238:	4390106f          	j	80003e70 <fail>

000000008000223c <test_206>:
    8000223c:	0ce00193          	li	gp,206
    80002240:	0005b283          	ld	t0,0(a1)
    80002244:	00858593          	addi	a1,a1,8
    80002248:	000103b7          	lui	t2,0x10
    8000224c:	3f93839b          	addiw	t2,t2,1017
    80002250:	01439393          	slli	t2,t2,0x14
    80002254:	eff38393          	addi	t2,t2,-257 # feff <_start-0x7fff0101>
    80002258:	00c39393          	slli	t2,t2,0xc
    8000225c:	fff38393          	addi	t2,t2,-1
    80002260:	00728463          	beq	t0,t2,80002268 <test_207>
    80002264:	40d0106f          	j	80003e70 <fail>

0000000080002268 <test_207>:
    80002268:	0cf00193          	li	gp,207
    8000226c:	0005b283          	ld	t0,0(a1)
    80002270:	00858593          	addi	a1,a1,8
    80002274:	010703b7          	lui	t2,0x1070
    80002278:	0013839b          	addiw	t2,t2,1
    8000227c:	01839393          	slli	t2,t2,0x18
    80002280:	10038393          	addi	t2,t2,256 # 1070100 <_start-0x7ef8ff00>
    80002284:	00728463          	beq	t0,t2,8000228c <test_208>
    80002288:	3e90106f          	j	80003e70 <fail>

000000008000228c <test_208>:
    8000228c:	0d000193          	li	gp,208
    80002290:	0005b283          	ld	t0,0(a1)
    80002294:	00858593          	addi	a1,a1,8
    80002298:	000103b7          	lui	t2,0x10
    8000229c:	3f93839b          	addiw	t2,t2,1017
    800022a0:	01439393          	slli	t2,t2,0x14
    800022a4:	eff38393          	addi	t2,t2,-257 # feff <_start-0x7fff0101>
    800022a8:	00c39393          	slli	t2,t2,0xc
    800022ac:	fff38393          	addi	t2,t2,-1
    800022b0:	00728463          	beq	t0,t2,800022b8 <test_209>
    800022b4:	3bd0106f          	j	80003e70 <fail>

00000000800022b8 <test_209>:
    800022b8:	0d100193          	li	gp,209
    800022bc:	0005b283          	ld	t0,0(a1)
    800022c0:	00858593          	addi	a1,a1,8
    800022c4:	010703b7          	lui	t2,0x1070
    800022c8:	0013839b          	addiw	t2,t2,1
    800022cc:	01839393          	slli	t2,t2,0x18
    800022d0:	10038393          	addi	t2,t2,256 # 1070100 <_start-0x7ef8ff00>
    800022d4:	00728463          	beq	t0,t2,800022dc <test_210>
    800022d8:	3990106f          	j	80003e70 <fail>

00000000800022dc <test_210>:
    800022dc:	0d200193          	li	gp,210
    800022e0:	0005b283          	ld	t0,0(a1)
    800022e4:	00858593          	addi	a1,a1,8
    800022e8:	000103b7          	lui	t2,0x10
    800022ec:	3f93839b          	addiw	t2,t2,1017
    800022f0:	01439393          	slli	t2,t2,0x14
    800022f4:	eff38393          	addi	t2,t2,-257 # feff <_start-0x7fff0101>
    800022f8:	00c39393          	slli	t2,t2,0xc
    800022fc:	fff38393          	addi	t2,t2,-1
    80002300:	00728463          	beq	t0,t2,80002308 <test_211>
    80002304:	36d0106f          	j	80003e70 <fail>

0000000080002308 <test_211>:
    80002308:	0d300193          	li	gp,211
    8000230c:	0005b283          	ld	t0,0(a1)
    80002310:	00858593          	addi	a1,a1,8
    80002314:	010703b7          	lui	t2,0x1070
    80002318:	0013839b          	addiw	t2,t2,1
    8000231c:	01839393          	slli	t2,t2,0x18
    80002320:	10038393          	addi	t2,t2,256 # 1070100 <_start-0x7ef8ff00>
    80002324:	00728463          	beq	t0,t2,8000232c <test_212>
    80002328:	3490106f          	j	80003e70 <fail>

000000008000232c <test_212>:
    8000232c:	0d400193          	li	gp,212
    80002330:	0005b283          	ld	t0,0(a1)
    80002334:	00858593          	addi	a1,a1,8
    80002338:	000103b7          	lui	t2,0x10
    8000233c:	3f93839b          	addiw	t2,t2,1017
    80002340:	01439393          	slli	t2,t2,0x14
    80002344:	eff38393          	addi	t2,t2,-257 # feff <_start-0x7fff0101>
    80002348:	00c39393          	slli	t2,t2,0xc
    8000234c:	fff38393          	addi	t2,t2,-1
    80002350:	00728463          	beq	t0,t2,80002358 <test_213>
    80002354:	31d0106f          	j	80003e70 <fail>

0000000080002358 <test_213>:
    80002358:	0d500193          	li	gp,213
    8000235c:	0005b283          	ld	t0,0(a1)
    80002360:	00858593          	addi	a1,a1,8
    80002364:	010703b7          	lui	t2,0x1070
    80002368:	0013839b          	addiw	t2,t2,1
    8000236c:	01839393          	slli	t2,t2,0x18
    80002370:	10038393          	addi	t2,t2,256 # 1070100 <_start-0x7ef8ff00>
    80002374:	00728463          	beq	t0,t2,8000237c <test_214>
    80002378:	2f90106f          	j	80003e70 <fail>

000000008000237c <test_214>:
    8000237c:	0d600193          	li	gp,214
    80002380:	0005b283          	ld	t0,0(a1)
    80002384:	00858593          	addi	a1,a1,8
    80002388:	000103b7          	lui	t2,0x10
    8000238c:	3f93839b          	addiw	t2,t2,1017
    80002390:	01439393          	slli	t2,t2,0x14
    80002394:	eff38393          	addi	t2,t2,-257 # feff <_start-0x7fff0101>
    80002398:	00c39393          	slli	t2,t2,0xc
    8000239c:	fff38393          	addi	t2,t2,-1
    800023a0:	00728463          	beq	t0,t2,800023a8 <test_215>
    800023a4:	2cd0106f          	j	80003e70 <fail>

00000000800023a8 <test_215>:
    800023a8:	0d700193          	li	gp,215
    800023ac:	0005b283          	ld	t0,0(a1)
    800023b0:	00858593          	addi	a1,a1,8
    800023b4:	010703b7          	lui	t2,0x1070
    800023b8:	0013839b          	addiw	t2,t2,1
    800023bc:	01839393          	slli	t2,t2,0x18
    800023c0:	10038393          	addi	t2,t2,256 # 1070100 <_start-0x7ef8ff00>
    800023c4:	00728463          	beq	t0,t2,800023cc <test_216>
    800023c8:	2a90106f          	j	80003e70 <fail>

00000000800023cc <test_216>:
    800023cc:	0d800193          	li	gp,216
    800023d0:	0005b283          	ld	t0,0(a1)
    800023d4:	00858593          	addi	a1,a1,8
    800023d8:	000103b7          	lui	t2,0x10
    800023dc:	3f93839b          	addiw	t2,t2,1017
    800023e0:	01439393          	slli	t2,t2,0x14
    800023e4:	eff38393          	addi	t2,t2,-257 # feff <_start-0x7fff0101>
    800023e8:	00c39393          	slli	t2,t2,0xc
    800023ec:	fff38393          	addi	t2,t2,-1
    800023f0:	00728463          	beq	t0,t2,800023f8 <test_217>
    800023f4:	27d0106f          	j	80003e70 <fail>

00000000800023f8 <test_217>:
    800023f8:	0d900193          	li	gp,217
    800023fc:	0005b283          	ld	t0,0(a1)
    80002400:	00858593          	addi	a1,a1,8
    80002404:	010703b7          	lui	t2,0x1070
    80002408:	0013839b          	addiw	t2,t2,1
    8000240c:	01839393          	slli	t2,t2,0x18
    80002410:	10038393          	addi	t2,t2,256 # 1070100 <_start-0x7ef8ff00>
    80002414:	00728463          	beq	t0,t2,8000241c <test_218>
    80002418:	2590106f          	j	80003e70 <fail>

000000008000241c <test_218>:
    8000241c:	0da00193          	li	gp,218
    80002420:	0005b283          	ld	t0,0(a1)
    80002424:	00858593          	addi	a1,a1,8
    80002428:	000103b7          	lui	t2,0x10
    8000242c:	3f93839b          	addiw	t2,t2,1017
    80002430:	01439393          	slli	t2,t2,0x14
    80002434:	eff38393          	addi	t2,t2,-257 # feff <_start-0x7fff0101>
    80002438:	00c39393          	slli	t2,t2,0xc
    8000243c:	fff38393          	addi	t2,t2,-1
    80002440:	00728463          	beq	t0,t2,80002448 <test_219>
    80002444:	22d0106f          	j	80003e70 <fail>

0000000080002448 <test_219>:
    80002448:	0db00193          	li	gp,219
    8000244c:	0005b283          	ld	t0,0(a1)
    80002450:	00858593          	addi	a1,a1,8
    80002454:	010703b7          	lui	t2,0x1070
    80002458:	0013839b          	addiw	t2,t2,1
    8000245c:	01839393          	slli	t2,t2,0x18
    80002460:	10038393          	addi	t2,t2,256 # 1070100 <_start-0x7ef8ff00>
    80002464:	00728463          	beq	t0,t2,8000246c <test_220>
    80002468:	2090106f          	j	80003e70 <fail>

000000008000246c <test_220>:
    8000246c:	0dc00193          	li	gp,220
    80002470:	0005b283          	ld	t0,0(a1)
    80002474:	00858593          	addi	a1,a1,8
    80002478:	000103b7          	lui	t2,0x10
    8000247c:	3f93839b          	addiw	t2,t2,1017
    80002480:	01439393          	slli	t2,t2,0x14
    80002484:	eff38393          	addi	t2,t2,-257 # feff <_start-0x7fff0101>
    80002488:	00c39393          	slli	t2,t2,0xc
    8000248c:	fff38393          	addi	t2,t2,-1
    80002490:	00728463          	beq	t0,t2,80002498 <test_221>
    80002494:	1dd0106f          	j	80003e70 <fail>

0000000080002498 <test_221>:
    80002498:	0dd00193          	li	gp,221
    8000249c:	0005b283          	ld	t0,0(a1)
    800024a0:	00858593          	addi	a1,a1,8
    800024a4:	010703b7          	lui	t2,0x1070
    800024a8:	0013839b          	addiw	t2,t2,1
    800024ac:	01839393          	slli	t2,t2,0x18
    800024b0:	10038393          	addi	t2,t2,256 # 1070100 <_start-0x7ef8ff00>
    800024b4:	00728463          	beq	t0,t2,800024bc <test_222>
    800024b8:	1b90106f          	j	80003e70 <fail>

00000000800024bc <test_222>:
    800024bc:	0de00193          	li	gp,222
    800024c0:	0005b283          	ld	t0,0(a1)
    800024c4:	00858593          	addi	a1,a1,8
    800024c8:	000103b7          	lui	t2,0x10
    800024cc:	3f93839b          	addiw	t2,t2,1017
    800024d0:	01439393          	slli	t2,t2,0x14
    800024d4:	eff38393          	addi	t2,t2,-257 # feff <_start-0x7fff0101>
    800024d8:	00c39393          	slli	t2,t2,0xc
    800024dc:	fff38393          	addi	t2,t2,-1
    800024e0:	00728463          	beq	t0,t2,800024e8 <test_223>
    800024e4:	18d0106f          	j	80003e70 <fail>

00000000800024e8 <test_223>:
    800024e8:	0df00193          	li	gp,223
    800024ec:	0005b283          	ld	t0,0(a1)
    800024f0:	00858593          	addi	a1,a1,8
    800024f4:	010703b7          	lui	t2,0x1070
    800024f8:	0013839b          	addiw	t2,t2,1
    800024fc:	01839393          	slli	t2,t2,0x18
    80002500:	10038393          	addi	t2,t2,256 # 1070100 <_start-0x7ef8ff00>
    80002504:	00728463          	beq	t0,t2,8000250c <test_224>
    80002508:	1690106f          	j	80003e70 <fail>

000000008000250c <test_224>:
    8000250c:	0e000193          	li	gp,224
    80002510:	0005b283          	ld	t0,0(a1)
    80002514:	00858593          	addi	a1,a1,8
    80002518:	000103b7          	lui	t2,0x10
    8000251c:	3f93839b          	addiw	t2,t2,1017
    80002520:	01439393          	slli	t2,t2,0x14
    80002524:	eff38393          	addi	t2,t2,-257 # feff <_start-0x7fff0101>
    80002528:	00c39393          	slli	t2,t2,0xc
    8000252c:	fff38393          	addi	t2,t2,-1
    80002530:	00728463          	beq	t0,t2,80002538 <test_225>
    80002534:	13d0106f          	j	80003e70 <fail>

0000000080002538 <test_225>:
    80002538:	0e100193          	li	gp,225
    8000253c:	0005b283          	ld	t0,0(a1)
    80002540:	00858593          	addi	a1,a1,8
    80002544:	010703b7          	lui	t2,0x1070
    80002548:	0013839b          	addiw	t2,t2,1
    8000254c:	01839393          	slli	t2,t2,0x18
    80002550:	10038393          	addi	t2,t2,256 # 1070100 <_start-0x7ef8ff00>
    80002554:	00728463          	beq	t0,t2,8000255c <test_225+0x24>
    80002558:	1190106f          	j	80003e70 <fail>
    8000255c:	fff00293          	li	t0,-1
    80002560:	0c22f357          	vsetvli	t1,t0,e8,m4,ta,ma
    80002564:	00003617          	auipc	a2,0x3
    80002568:	cac60613          	addi	a2,a2,-852 # 80005210 <tdat>
    8000256c:	02060807          	vle8.v	v16,(a2)
    80002570:	0c32f357          	vsetvli	t1,t0,e8,m8,ta,ma
    80002574:	02060407          	vle8.v	v8,(a2)
    80002578:	00003617          	auipc	a2,0x3
    8000257c:	ca060613          	addi	a2,a2,-864 # 80005218 <tdat+0x8>
    80002580:	0c22f357          	vsetvli	t1,t0,e8,m4,ta,ma
    80002584:	02060c07          	vle8.v	v24,(a2)
    80002588:	fff00293          	li	t0,-1
    8000258c:	0c02f357          	vsetvli	t1,t0,e8,m1,ta,ma
    80002590:	00003697          	auipc	a3,0x3
    80002594:	d8868693          	addi	a3,a3,-632 # 80005318 <mask>
    80002598:	02068007          	vle8.v	v0,(a3)
    8000259c:	07f00293          	li	t0,127
    800025a0:	0c22f357          	vsetvli	t1,t0,e8,m4,ta,ma
    800025a4:	c10c0457          	vwredsumu.vs	v8,v16,v24,v0.t
    800025a8:	fff00293          	li	t0,-1
    800025ac:	0c32f357          	vsetvli	t1,t0,e8,m8,ta,ma
    800025b0:	00003597          	auipc	a1,0x3
    800025b4:	a5058593          	addi	a1,a1,-1456 # 80005000 <begin_signature>
    800025b8:	02058427          	vse8.v	v8,(a1)

00000000800025bc <test_226>:
    800025bc:	0e200193          	li	gp,226
    800025c0:	0005b283          	ld	t0,0(a1)
    800025c4:	00858593          	addi	a1,a1,8
    800025c8:	000103b7          	lui	t2,0x10
    800025cc:	3f93839b          	addiw	t2,t2,1017
    800025d0:	01339393          	slli	t2,t2,0x13
    800025d4:	f7938393          	addi	t2,t2,-135 # ff79 <_start-0x7fff0087>
    800025d8:	00d39393          	slli	t2,t2,0xd
    800025dc:	84038393          	addi	t2,t2,-1984
    800025e0:	00728463          	beq	t0,t2,800025e8 <test_227>
    800025e4:	08d0106f          	j	80003e70 <fail>

00000000800025e8 <test_227>:
    800025e8:	0e300193          	li	gp,227
    800025ec:	0005b283          	ld	t0,0(a1)
    800025f0:	00858593          	addi	a1,a1,8
    800025f4:	010703b7          	lui	t2,0x1070
    800025f8:	0013839b          	addiw	t2,t2,1
    800025fc:	01839393          	slli	t2,t2,0x18
    80002600:	10038393          	addi	t2,t2,256 # 1070100 <_start-0x7ef8ff00>
    80002604:	00728463          	beq	t0,t2,8000260c <test_228>
    80002608:	0690106f          	j	80003e70 <fail>

000000008000260c <test_228>:
    8000260c:	0e400193          	li	gp,228
    80002610:	0005b283          	ld	t0,0(a1)
    80002614:	00858593          	addi	a1,a1,8
    80002618:	000103b7          	lui	t2,0x10
    8000261c:	3f93839b          	addiw	t2,t2,1017
    80002620:	01439393          	slli	t2,t2,0x14
    80002624:	eff38393          	addi	t2,t2,-257 # feff <_start-0x7fff0101>
    80002628:	00c39393          	slli	t2,t2,0xc
    8000262c:	fff38393          	addi	t2,t2,-1
    80002630:	00728463          	beq	t0,t2,80002638 <test_229>
    80002634:	03d0106f          	j	80003e70 <fail>

0000000080002638 <test_229>:
    80002638:	0e500193          	li	gp,229
    8000263c:	0005b283          	ld	t0,0(a1)
    80002640:	00858593          	addi	a1,a1,8
    80002644:	010703b7          	lui	t2,0x1070
    80002648:	0013839b          	addiw	t2,t2,1
    8000264c:	01839393          	slli	t2,t2,0x18
    80002650:	10038393          	addi	t2,t2,256 # 1070100 <_start-0x7ef8ff00>
    80002654:	00728463          	beq	t0,t2,8000265c <test_230>
    80002658:	0190106f          	j	80003e70 <fail>

000000008000265c <test_230>:
    8000265c:	0e600193          	li	gp,230
    80002660:	0005b283          	ld	t0,0(a1)
    80002664:	00858593          	addi	a1,a1,8
    80002668:	000103b7          	lui	t2,0x10
    8000266c:	3f93839b          	addiw	t2,t2,1017
    80002670:	01439393          	slli	t2,t2,0x14
    80002674:	eff38393          	addi	t2,t2,-257 # feff <_start-0x7fff0101>
    80002678:	00c39393          	slli	t2,t2,0xc
    8000267c:	fff38393          	addi	t2,t2,-1
    80002680:	00728463          	beq	t0,t2,80002688 <test_231>
    80002684:	7ec0106f          	j	80003e70 <fail>

0000000080002688 <test_231>:
    80002688:	0e700193          	li	gp,231
    8000268c:	0005b283          	ld	t0,0(a1)
    80002690:	00858593          	addi	a1,a1,8
    80002694:	010703b7          	lui	t2,0x1070
    80002698:	0013839b          	addiw	t2,t2,1
    8000269c:	01839393          	slli	t2,t2,0x18
    800026a0:	10038393          	addi	t2,t2,256 # 1070100 <_start-0x7ef8ff00>
    800026a4:	00728463          	beq	t0,t2,800026ac <test_232>
    800026a8:	7c80106f          	j	80003e70 <fail>

00000000800026ac <test_232>:
    800026ac:	0e800193          	li	gp,232
    800026b0:	0005b283          	ld	t0,0(a1)
    800026b4:	00858593          	addi	a1,a1,8
    800026b8:	000103b7          	lui	t2,0x10
    800026bc:	3f93839b          	addiw	t2,t2,1017
    800026c0:	01439393          	slli	t2,t2,0x14
    800026c4:	eff38393          	addi	t2,t2,-257 # feff <_start-0x7fff0101>
    800026c8:	00c39393          	slli	t2,t2,0xc
    800026cc:	fff38393          	addi	t2,t2,-1
    800026d0:	00728463          	beq	t0,t2,800026d8 <test_233>
    800026d4:	79c0106f          	j	80003e70 <fail>

00000000800026d8 <test_233>:
    800026d8:	0e900193          	li	gp,233
    800026dc:	0005b283          	ld	t0,0(a1)
    800026e0:	00858593          	addi	a1,a1,8
    800026e4:	010703b7          	lui	t2,0x1070
    800026e8:	0013839b          	addiw	t2,t2,1
    800026ec:	01839393          	slli	t2,t2,0x18
    800026f0:	10038393          	addi	t2,t2,256 # 1070100 <_start-0x7ef8ff00>
    800026f4:	00728463          	beq	t0,t2,800026fc <test_234>
    800026f8:	7780106f          	j	80003e70 <fail>

00000000800026fc <test_234>:
    800026fc:	0ea00193          	li	gp,234
    80002700:	0005b283          	ld	t0,0(a1)
    80002704:	00858593          	addi	a1,a1,8
    80002708:	000103b7          	lui	t2,0x10
    8000270c:	3f93839b          	addiw	t2,t2,1017
    80002710:	01439393          	slli	t2,t2,0x14
    80002714:	eff38393          	addi	t2,t2,-257 # feff <_start-0x7fff0101>
    80002718:	00c39393          	slli	t2,t2,0xc
    8000271c:	fff38393          	addi	t2,t2,-1
    80002720:	00728463          	beq	t0,t2,80002728 <test_235>
    80002724:	74c0106f          	j	80003e70 <fail>

0000000080002728 <test_235>:
    80002728:	0eb00193          	li	gp,235
    8000272c:	0005b283          	ld	t0,0(a1)
    80002730:	00858593          	addi	a1,a1,8
    80002734:	010703b7          	lui	t2,0x1070
    80002738:	0013839b          	addiw	t2,t2,1
    8000273c:	01839393          	slli	t2,t2,0x18
    80002740:	10038393          	addi	t2,t2,256 # 1070100 <_start-0x7ef8ff00>
    80002744:	00728463          	beq	t0,t2,8000274c <test_236>
    80002748:	7280106f          	j	80003e70 <fail>

000000008000274c <test_236>:
    8000274c:	0ec00193          	li	gp,236
    80002750:	0005b283          	ld	t0,0(a1)
    80002754:	00858593          	addi	a1,a1,8
    80002758:	000103b7          	lui	t2,0x10
    8000275c:	3f93839b          	addiw	t2,t2,1017
    80002760:	01439393          	slli	t2,t2,0x14
    80002764:	eff38393          	addi	t2,t2,-257 # feff <_start-0x7fff0101>
    80002768:	00c39393          	slli	t2,t2,0xc
    8000276c:	fff38393          	addi	t2,t2,-1
    80002770:	00728463          	beq	t0,t2,80002778 <test_237>
    80002774:	6fc0106f          	j	80003e70 <fail>

0000000080002778 <test_237>:
    80002778:	0ed00193          	li	gp,237
    8000277c:	0005b283          	ld	t0,0(a1)
    80002780:	00858593          	addi	a1,a1,8
    80002784:	010703b7          	lui	t2,0x1070
    80002788:	0013839b          	addiw	t2,t2,1
    8000278c:	01839393          	slli	t2,t2,0x18
    80002790:	10038393          	addi	t2,t2,256 # 1070100 <_start-0x7ef8ff00>
    80002794:	00728463          	beq	t0,t2,8000279c <test_238>
    80002798:	6d80106f          	j	80003e70 <fail>

000000008000279c <test_238>:
    8000279c:	0ee00193          	li	gp,238
    800027a0:	0005b283          	ld	t0,0(a1)
    800027a4:	00858593          	addi	a1,a1,8
    800027a8:	000103b7          	lui	t2,0x10
    800027ac:	3f93839b          	addiw	t2,t2,1017
    800027b0:	01439393          	slli	t2,t2,0x14
    800027b4:	eff38393          	addi	t2,t2,-257 # feff <_start-0x7fff0101>
    800027b8:	00c39393          	slli	t2,t2,0xc
    800027bc:	fff38393          	addi	t2,t2,-1
    800027c0:	00728463          	beq	t0,t2,800027c8 <test_239>
    800027c4:	6ac0106f          	j	80003e70 <fail>

00000000800027c8 <test_239>:
    800027c8:	0ef00193          	li	gp,239
    800027cc:	0005b283          	ld	t0,0(a1)
    800027d0:	00858593          	addi	a1,a1,8
    800027d4:	010703b7          	lui	t2,0x1070
    800027d8:	0013839b          	addiw	t2,t2,1
    800027dc:	01839393          	slli	t2,t2,0x18
    800027e0:	10038393          	addi	t2,t2,256 # 1070100 <_start-0x7ef8ff00>
    800027e4:	00728463          	beq	t0,t2,800027ec <test_240>
    800027e8:	6880106f          	j	80003e70 <fail>

00000000800027ec <test_240>:
    800027ec:	0f000193          	li	gp,240
    800027f0:	0005b283          	ld	t0,0(a1)
    800027f4:	00858593          	addi	a1,a1,8
    800027f8:	000103b7          	lui	t2,0x10
    800027fc:	3f93839b          	addiw	t2,t2,1017
    80002800:	01439393          	slli	t2,t2,0x14
    80002804:	eff38393          	addi	t2,t2,-257 # feff <_start-0x7fff0101>
    80002808:	00c39393          	slli	t2,t2,0xc
    8000280c:	fff38393          	addi	t2,t2,-1
    80002810:	00728463          	beq	t0,t2,80002818 <test_241>
    80002814:	65c0106f          	j	80003e70 <fail>

0000000080002818 <test_241>:
    80002818:	0f100193          	li	gp,241
    8000281c:	0005b283          	ld	t0,0(a1)
    80002820:	00858593          	addi	a1,a1,8
    80002824:	010703b7          	lui	t2,0x1070
    80002828:	0013839b          	addiw	t2,t2,1
    8000282c:	01839393          	slli	t2,t2,0x18
    80002830:	10038393          	addi	t2,t2,256 # 1070100 <_start-0x7ef8ff00>
    80002834:	00728463          	beq	t0,t2,8000283c <test_242>
    80002838:	6380106f          	j	80003e70 <fail>

000000008000283c <test_242>:
    8000283c:	0f200193          	li	gp,242
    80002840:	0005b283          	ld	t0,0(a1)
    80002844:	00858593          	addi	a1,a1,8
    80002848:	000103b7          	lui	t2,0x10
    8000284c:	3f93839b          	addiw	t2,t2,1017
    80002850:	01439393          	slli	t2,t2,0x14
    80002854:	eff38393          	addi	t2,t2,-257 # feff <_start-0x7fff0101>
    80002858:	00c39393          	slli	t2,t2,0xc
    8000285c:	fff38393          	addi	t2,t2,-1
    80002860:	00728463          	beq	t0,t2,80002868 <test_243>
    80002864:	60c0106f          	j	80003e70 <fail>

0000000080002868 <test_243>:
    80002868:	0f300193          	li	gp,243
    8000286c:	0005b283          	ld	t0,0(a1)
    80002870:	00858593          	addi	a1,a1,8
    80002874:	010703b7          	lui	t2,0x1070
    80002878:	0013839b          	addiw	t2,t2,1
    8000287c:	01839393          	slli	t2,t2,0x18
    80002880:	10038393          	addi	t2,t2,256 # 1070100 <_start-0x7ef8ff00>
    80002884:	00728463          	beq	t0,t2,8000288c <test_244>
    80002888:	5e80106f          	j	80003e70 <fail>

000000008000288c <test_244>:
    8000288c:	0f400193          	li	gp,244
    80002890:	0005b283          	ld	t0,0(a1)
    80002894:	00858593          	addi	a1,a1,8
    80002898:	000103b7          	lui	t2,0x10
    8000289c:	3f93839b          	addiw	t2,t2,1017
    800028a0:	01439393          	slli	t2,t2,0x14
    800028a4:	eff38393          	addi	t2,t2,-257 # feff <_start-0x7fff0101>
    800028a8:	00c39393          	slli	t2,t2,0xc
    800028ac:	fff38393          	addi	t2,t2,-1
    800028b0:	00728463          	beq	t0,t2,800028b8 <test_245>
    800028b4:	5bc0106f          	j	80003e70 <fail>

00000000800028b8 <test_245>:
    800028b8:	0f500193          	li	gp,245
    800028bc:	0005b283          	ld	t0,0(a1)
    800028c0:	00858593          	addi	a1,a1,8
    800028c4:	010703b7          	lui	t2,0x1070
    800028c8:	0013839b          	addiw	t2,t2,1
    800028cc:	01839393          	slli	t2,t2,0x18
    800028d0:	10038393          	addi	t2,t2,256 # 1070100 <_start-0x7ef8ff00>
    800028d4:	00728463          	beq	t0,t2,800028dc <test_246>
    800028d8:	5980106f          	j	80003e70 <fail>

00000000800028dc <test_246>:
    800028dc:	0f600193          	li	gp,246
    800028e0:	0005b283          	ld	t0,0(a1)
    800028e4:	00858593          	addi	a1,a1,8
    800028e8:	000103b7          	lui	t2,0x10
    800028ec:	3f93839b          	addiw	t2,t2,1017
    800028f0:	01439393          	slli	t2,t2,0x14
    800028f4:	eff38393          	addi	t2,t2,-257 # feff <_start-0x7fff0101>
    800028f8:	00c39393          	slli	t2,t2,0xc
    800028fc:	fff38393          	addi	t2,t2,-1
    80002900:	00728463          	beq	t0,t2,80002908 <test_247>
    80002904:	56c0106f          	j	80003e70 <fail>

0000000080002908 <test_247>:
    80002908:	0f700193          	li	gp,247
    8000290c:	0005b283          	ld	t0,0(a1)
    80002910:	00858593          	addi	a1,a1,8
    80002914:	010703b7          	lui	t2,0x1070
    80002918:	0013839b          	addiw	t2,t2,1
    8000291c:	01839393          	slli	t2,t2,0x18
    80002920:	10038393          	addi	t2,t2,256 # 1070100 <_start-0x7ef8ff00>
    80002924:	00728463          	beq	t0,t2,8000292c <test_248>
    80002928:	5480106f          	j	80003e70 <fail>

000000008000292c <test_248>:
    8000292c:	0f800193          	li	gp,248
    80002930:	0005b283          	ld	t0,0(a1)
    80002934:	00858593          	addi	a1,a1,8
    80002938:	000103b7          	lui	t2,0x10
    8000293c:	3f93839b          	addiw	t2,t2,1017
    80002940:	01439393          	slli	t2,t2,0x14
    80002944:	eff38393          	addi	t2,t2,-257 # feff <_start-0x7fff0101>
    80002948:	00c39393          	slli	t2,t2,0xc
    8000294c:	fff38393          	addi	t2,t2,-1
    80002950:	00728463          	beq	t0,t2,80002958 <test_249>
    80002954:	51c0106f          	j	80003e70 <fail>

0000000080002958 <test_249>:
    80002958:	0f900193          	li	gp,249
    8000295c:	0005b283          	ld	t0,0(a1)
    80002960:	00858593          	addi	a1,a1,8
    80002964:	010703b7          	lui	t2,0x1070
    80002968:	0013839b          	addiw	t2,t2,1
    8000296c:	01839393          	slli	t2,t2,0x18
    80002970:	10038393          	addi	t2,t2,256 # 1070100 <_start-0x7ef8ff00>
    80002974:	00728463          	beq	t0,t2,8000297c <test_250>
    80002978:	4f80106f          	j	80003e70 <fail>

000000008000297c <test_250>:
    8000297c:	0fa00193          	li	gp,250
    80002980:	0005b283          	ld	t0,0(a1)
    80002984:	00858593          	addi	a1,a1,8
    80002988:	000103b7          	lui	t2,0x10
    8000298c:	3f93839b          	addiw	t2,t2,1017
    80002990:	01439393          	slli	t2,t2,0x14
    80002994:	eff38393          	addi	t2,t2,-257 # feff <_start-0x7fff0101>
    80002998:	00c39393          	slli	t2,t2,0xc
    8000299c:	fff38393          	addi	t2,t2,-1
    800029a0:	00728463          	beq	t0,t2,800029a8 <test_251>
    800029a4:	4cc0106f          	j	80003e70 <fail>

00000000800029a8 <test_251>:
    800029a8:	0fb00193          	li	gp,251
    800029ac:	0005b283          	ld	t0,0(a1)
    800029b0:	00858593          	addi	a1,a1,8
    800029b4:	010703b7          	lui	t2,0x1070
    800029b8:	0013839b          	addiw	t2,t2,1
    800029bc:	01839393          	slli	t2,t2,0x18
    800029c0:	10038393          	addi	t2,t2,256 # 1070100 <_start-0x7ef8ff00>
    800029c4:	00728463          	beq	t0,t2,800029cc <test_252>
    800029c8:	4a80106f          	j	80003e70 <fail>

00000000800029cc <test_252>:
    800029cc:	0fc00193          	li	gp,252
    800029d0:	0005b283          	ld	t0,0(a1)
    800029d4:	00858593          	addi	a1,a1,8
    800029d8:	000103b7          	lui	t2,0x10
    800029dc:	3f93839b          	addiw	t2,t2,1017
    800029e0:	01439393          	slli	t2,t2,0x14
    800029e4:	eff38393          	addi	t2,t2,-257 # feff <_start-0x7fff0101>
    800029e8:	00c39393          	slli	t2,t2,0xc
    800029ec:	fff38393          	addi	t2,t2,-1
    800029f0:	00728463          	beq	t0,t2,800029f8 <test_253>
    800029f4:	47c0106f          	j	80003e70 <fail>

00000000800029f8 <test_253>:
    800029f8:	0fd00193          	li	gp,253
    800029fc:	0005b283          	ld	t0,0(a1)
    80002a00:	00858593          	addi	a1,a1,8
    80002a04:	010703b7          	lui	t2,0x1070
    80002a08:	0013839b          	addiw	t2,t2,1
    80002a0c:	01839393          	slli	t2,t2,0x18
    80002a10:	10038393          	addi	t2,t2,256 # 1070100 <_start-0x7ef8ff00>
    80002a14:	00728463          	beq	t0,t2,80002a1c <test_254>
    80002a18:	4580106f          	j	80003e70 <fail>

0000000080002a1c <test_254>:
    80002a1c:	0fe00193          	li	gp,254
    80002a20:	0005b283          	ld	t0,0(a1)
    80002a24:	00858593          	addi	a1,a1,8
    80002a28:	000103b7          	lui	t2,0x10
    80002a2c:	3f93839b          	addiw	t2,t2,1017
    80002a30:	01439393          	slli	t2,t2,0x14
    80002a34:	eff38393          	addi	t2,t2,-257 # feff <_start-0x7fff0101>
    80002a38:	00c39393          	slli	t2,t2,0xc
    80002a3c:	fff38393          	addi	t2,t2,-1
    80002a40:	00728463          	beq	t0,t2,80002a48 <test_255>
    80002a44:	42c0106f          	j	80003e70 <fail>

0000000080002a48 <test_255>:
    80002a48:	0ff00193          	li	gp,255
    80002a4c:	0005b283          	ld	t0,0(a1)
    80002a50:	00858593          	addi	a1,a1,8
    80002a54:	010703b7          	lui	t2,0x1070
    80002a58:	0013839b          	addiw	t2,t2,1
    80002a5c:	01839393          	slli	t2,t2,0x18
    80002a60:	10038393          	addi	t2,t2,256 # 1070100 <_start-0x7ef8ff00>
    80002a64:	00728463          	beq	t0,t2,80002a6c <test_256>
    80002a68:	4080106f          	j	80003e70 <fail>

0000000080002a6c <test_256>:
    80002a6c:	10000193          	li	gp,256
    80002a70:	0005b283          	ld	t0,0(a1)
    80002a74:	00858593          	addi	a1,a1,8
    80002a78:	000103b7          	lui	t2,0x10
    80002a7c:	3f93839b          	addiw	t2,t2,1017
    80002a80:	01439393          	slli	t2,t2,0x14
    80002a84:	eff38393          	addi	t2,t2,-257 # feff <_start-0x7fff0101>
    80002a88:	00c39393          	slli	t2,t2,0xc
    80002a8c:	fff38393          	addi	t2,t2,-1
    80002a90:	00728463          	beq	t0,t2,80002a98 <test_257>
    80002a94:	3dc0106f          	j	80003e70 <fail>

0000000080002a98 <test_257>:
    80002a98:	10100193          	li	gp,257
    80002a9c:	0005b283          	ld	t0,0(a1)
    80002aa0:	00858593          	addi	a1,a1,8
    80002aa4:	010703b7          	lui	t2,0x1070
    80002aa8:	0013839b          	addiw	t2,t2,1
    80002aac:	01839393          	slli	t2,t2,0x18
    80002ab0:	10038393          	addi	t2,t2,256 # 1070100 <_start-0x7ef8ff00>
    80002ab4:	00728463          	beq	t0,t2,80002abc <test_257+0x24>
    80002ab8:	3b80106f          	j	80003e70 <fail>
    80002abc:	fff00293          	li	t0,-1
    80002ac0:	0c22f357          	vsetvli	t1,t0,e8,m4,ta,ma
    80002ac4:	00002617          	auipc	a2,0x2
    80002ac8:	74c60613          	addi	a2,a2,1868 # 80005210 <tdat>
    80002acc:	02060807          	vle8.v	v16,(a2)
    80002ad0:	0c32f357          	vsetvli	t1,t0,e8,m8,ta,ma
    80002ad4:	02060407          	vle8.v	v8,(a2)
    80002ad8:	00002617          	auipc	a2,0x2
    80002adc:	74060613          	addi	a2,a2,1856 # 80005218 <tdat+0x8>
    80002ae0:	0c22f357          	vsetvli	t1,t0,e8,m4,ta,ma
    80002ae4:	02060c07          	vle8.v	v24,(a2)
    80002ae8:	08000293          	li	t0,128
    80002aec:	0c22f357          	vsetvli	t1,t0,e8,m4,ta,ma
    80002af0:	c30c0457          	vwredsumu.vs	v8,v16,v24
    80002af4:	fff00293          	li	t0,-1
    80002af8:	0c32f357          	vsetvli	t1,t0,e8,m8,ta,ma
    80002afc:	00002597          	auipc	a1,0x2
    80002b00:	50458593          	addi	a1,a1,1284 # 80005000 <begin_signature>
    80002b04:	02058427          	vse8.v	v8,(a1)

0000000080002b08 <test_258>:
    80002b08:	10200193          	li	gp,258
    80002b0c:	0005b283          	ld	t0,0(a1)
    80002b10:	00858593          	addi	a1,a1,8
    80002b14:	000103b7          	lui	t2,0x10
    80002b18:	3f93839b          	addiw	t2,t2,1017
    80002b1c:	01439393          	slli	t2,t2,0x14
    80002b20:	ef338393          	addi	t2,t2,-269 # fef3 <_start-0x7fff010d>
    80002b24:	00c39393          	slli	t2,t2,0xc
    80002b28:	81038393          	addi	t2,t2,-2032
    80002b2c:	00728463          	beq	t0,t2,80002b34 <test_259>
    80002b30:	3400106f          	j	80003e70 <fail>

0000000080002b34 <test_259>:
    80002b34:	10300193          	li	gp,259
    80002b38:	0005b283          	ld	t0,0(a1)
    80002b3c:	00858593          	addi	a1,a1,8
    80002b40:	010703b7          	lui	t2,0x1070
    80002b44:	0013839b          	addiw	t2,t2,1
    80002b48:	01839393          	slli	t2,t2,0x18
    80002b4c:	10038393          	addi	t2,t2,256 # 1070100 <_start-0x7ef8ff00>
    80002b50:	00728463          	beq	t0,t2,80002b58 <test_260>
    80002b54:	31c0106f          	j	80003e70 <fail>

0000000080002b58 <test_260>:
    80002b58:	10400193          	li	gp,260
    80002b5c:	0005b283          	ld	t0,0(a1)
    80002b60:	00858593          	addi	a1,a1,8
    80002b64:	000103b7          	lui	t2,0x10
    80002b68:	3f93839b          	addiw	t2,t2,1017
    80002b6c:	01439393          	slli	t2,t2,0x14
    80002b70:	eff38393          	addi	t2,t2,-257 # feff <_start-0x7fff0101>
    80002b74:	00c39393          	slli	t2,t2,0xc
    80002b78:	fff38393          	addi	t2,t2,-1
    80002b7c:	00728463          	beq	t0,t2,80002b84 <test_261>
    80002b80:	2f00106f          	j	80003e70 <fail>

0000000080002b84 <test_261>:
    80002b84:	10500193          	li	gp,261
    80002b88:	0005b283          	ld	t0,0(a1)
    80002b8c:	00858593          	addi	a1,a1,8
    80002b90:	010703b7          	lui	t2,0x1070
    80002b94:	0013839b          	addiw	t2,t2,1
    80002b98:	01839393          	slli	t2,t2,0x18
    80002b9c:	10038393          	addi	t2,t2,256 # 1070100 <_start-0x7ef8ff00>
    80002ba0:	00728463          	beq	t0,t2,80002ba8 <test_262>
    80002ba4:	2cc0106f          	j	80003e70 <fail>

0000000080002ba8 <test_262>:
    80002ba8:	10600193          	li	gp,262
    80002bac:	0005b283          	ld	t0,0(a1)
    80002bb0:	00858593          	addi	a1,a1,8
    80002bb4:	000103b7          	lui	t2,0x10
    80002bb8:	3f93839b          	addiw	t2,t2,1017
    80002bbc:	01439393          	slli	t2,t2,0x14
    80002bc0:	eff38393          	addi	t2,t2,-257 # feff <_start-0x7fff0101>
    80002bc4:	00c39393          	slli	t2,t2,0xc
    80002bc8:	fff38393          	addi	t2,t2,-1
    80002bcc:	00728463          	beq	t0,t2,80002bd4 <test_263>
    80002bd0:	2a00106f          	j	80003e70 <fail>

0000000080002bd4 <test_263>:
    80002bd4:	10700193          	li	gp,263
    80002bd8:	0005b283          	ld	t0,0(a1)
    80002bdc:	00858593          	addi	a1,a1,8
    80002be0:	010703b7          	lui	t2,0x1070
    80002be4:	0013839b          	addiw	t2,t2,1
    80002be8:	01839393          	slli	t2,t2,0x18
    80002bec:	10038393          	addi	t2,t2,256 # 1070100 <_start-0x7ef8ff00>
    80002bf0:	00728463          	beq	t0,t2,80002bf8 <test_264>
    80002bf4:	27c0106f          	j	80003e70 <fail>

0000000080002bf8 <test_264>:
    80002bf8:	10800193          	li	gp,264
    80002bfc:	0005b283          	ld	t0,0(a1)
    80002c00:	00858593          	addi	a1,a1,8
    80002c04:	000103b7          	lui	t2,0x10
    80002c08:	3f93839b          	addiw	t2,t2,1017
    80002c0c:	01439393          	slli	t2,t2,0x14
    80002c10:	eff38393          	addi	t2,t2,-257 # feff <_start-0x7fff0101>
    80002c14:	00c39393          	slli	t2,t2,0xc
    80002c18:	fff38393          	addi	t2,t2,-1
    80002c1c:	00728463          	beq	t0,t2,80002c24 <test_265>
    80002c20:	2500106f          	j	80003e70 <fail>

0000000080002c24 <test_265>:
    80002c24:	10900193          	li	gp,265
    80002c28:	0005b283          	ld	t0,0(a1)
    80002c2c:	00858593          	addi	a1,a1,8
    80002c30:	010703b7          	lui	t2,0x1070
    80002c34:	0013839b          	addiw	t2,t2,1
    80002c38:	01839393          	slli	t2,t2,0x18
    80002c3c:	10038393          	addi	t2,t2,256 # 1070100 <_start-0x7ef8ff00>
    80002c40:	00728463          	beq	t0,t2,80002c48 <test_266>
    80002c44:	22c0106f          	j	80003e70 <fail>

0000000080002c48 <test_266>:
    80002c48:	10a00193          	li	gp,266
    80002c4c:	0005b283          	ld	t0,0(a1)
    80002c50:	00858593          	addi	a1,a1,8
    80002c54:	000103b7          	lui	t2,0x10
    80002c58:	3f93839b          	addiw	t2,t2,1017
    80002c5c:	01439393          	slli	t2,t2,0x14
    80002c60:	eff38393          	addi	t2,t2,-257 # feff <_start-0x7fff0101>
    80002c64:	00c39393          	slli	t2,t2,0xc
    80002c68:	fff38393          	addi	t2,t2,-1
    80002c6c:	00728463          	beq	t0,t2,80002c74 <test_267>
    80002c70:	2000106f          	j	80003e70 <fail>

0000000080002c74 <test_267>:
    80002c74:	10b00193          	li	gp,267
    80002c78:	0005b283          	ld	t0,0(a1)
    80002c7c:	00858593          	addi	a1,a1,8
    80002c80:	010703b7          	lui	t2,0x1070
    80002c84:	0013839b          	addiw	t2,t2,1
    80002c88:	01839393          	slli	t2,t2,0x18
    80002c8c:	10038393          	addi	t2,t2,256 # 1070100 <_start-0x7ef8ff00>
    80002c90:	00728463          	beq	t0,t2,80002c98 <test_268>
    80002c94:	1dc0106f          	j	80003e70 <fail>

0000000080002c98 <test_268>:
    80002c98:	10c00193          	li	gp,268
    80002c9c:	0005b283          	ld	t0,0(a1)
    80002ca0:	00858593          	addi	a1,a1,8
    80002ca4:	000103b7          	lui	t2,0x10
    80002ca8:	3f93839b          	addiw	t2,t2,1017
    80002cac:	01439393          	slli	t2,t2,0x14
    80002cb0:	eff38393          	addi	t2,t2,-257 # feff <_start-0x7fff0101>
    80002cb4:	00c39393          	slli	t2,t2,0xc
    80002cb8:	fff38393          	addi	t2,t2,-1
    80002cbc:	00728463          	beq	t0,t2,80002cc4 <test_269>
    80002cc0:	1b00106f          	j	80003e70 <fail>

0000000080002cc4 <test_269>:
    80002cc4:	10d00193          	li	gp,269
    80002cc8:	0005b283          	ld	t0,0(a1)
    80002ccc:	00858593          	addi	a1,a1,8
    80002cd0:	010703b7          	lui	t2,0x1070
    80002cd4:	0013839b          	addiw	t2,t2,1
    80002cd8:	01839393          	slli	t2,t2,0x18
    80002cdc:	10038393          	addi	t2,t2,256 # 1070100 <_start-0x7ef8ff00>
    80002ce0:	00728463          	beq	t0,t2,80002ce8 <test_270>
    80002ce4:	18c0106f          	j	80003e70 <fail>

0000000080002ce8 <test_270>:
    80002ce8:	10e00193          	li	gp,270
    80002cec:	0005b283          	ld	t0,0(a1)
    80002cf0:	00858593          	addi	a1,a1,8
    80002cf4:	000103b7          	lui	t2,0x10
    80002cf8:	3f93839b          	addiw	t2,t2,1017
    80002cfc:	01439393          	slli	t2,t2,0x14
    80002d00:	eff38393          	addi	t2,t2,-257 # feff <_start-0x7fff0101>
    80002d04:	00c39393          	slli	t2,t2,0xc
    80002d08:	fff38393          	addi	t2,t2,-1
    80002d0c:	00728463          	beq	t0,t2,80002d14 <test_271>
    80002d10:	1600106f          	j	80003e70 <fail>

0000000080002d14 <test_271>:
    80002d14:	10f00193          	li	gp,271
    80002d18:	0005b283          	ld	t0,0(a1)
    80002d1c:	00858593          	addi	a1,a1,8
    80002d20:	010703b7          	lui	t2,0x1070
    80002d24:	0013839b          	addiw	t2,t2,1
    80002d28:	01839393          	slli	t2,t2,0x18
    80002d2c:	10038393          	addi	t2,t2,256 # 1070100 <_start-0x7ef8ff00>
    80002d30:	00728463          	beq	t0,t2,80002d38 <test_272>
    80002d34:	13c0106f          	j	80003e70 <fail>

0000000080002d38 <test_272>:
    80002d38:	11000193          	li	gp,272
    80002d3c:	0005b283          	ld	t0,0(a1)
    80002d40:	00858593          	addi	a1,a1,8
    80002d44:	000103b7          	lui	t2,0x10
    80002d48:	3f93839b          	addiw	t2,t2,1017
    80002d4c:	01439393          	slli	t2,t2,0x14
    80002d50:	eff38393          	addi	t2,t2,-257 # feff <_start-0x7fff0101>
    80002d54:	00c39393          	slli	t2,t2,0xc
    80002d58:	fff38393          	addi	t2,t2,-1
    80002d5c:	00728463          	beq	t0,t2,80002d64 <test_273>
    80002d60:	1100106f          	j	80003e70 <fail>

0000000080002d64 <test_273>:
    80002d64:	11100193          	li	gp,273
    80002d68:	0005b283          	ld	t0,0(a1)
    80002d6c:	00858593          	addi	a1,a1,8
    80002d70:	010703b7          	lui	t2,0x1070
    80002d74:	0013839b          	addiw	t2,t2,1
    80002d78:	01839393          	slli	t2,t2,0x18
    80002d7c:	10038393          	addi	t2,t2,256 # 1070100 <_start-0x7ef8ff00>
    80002d80:	00728463          	beq	t0,t2,80002d88 <test_274>
    80002d84:	0ec0106f          	j	80003e70 <fail>

0000000080002d88 <test_274>:
    80002d88:	11200193          	li	gp,274
    80002d8c:	0005b283          	ld	t0,0(a1)
    80002d90:	00858593          	addi	a1,a1,8
    80002d94:	000103b7          	lui	t2,0x10
    80002d98:	3f93839b          	addiw	t2,t2,1017
    80002d9c:	01439393          	slli	t2,t2,0x14
    80002da0:	eff38393          	addi	t2,t2,-257 # feff <_start-0x7fff0101>
    80002da4:	00c39393          	slli	t2,t2,0xc
    80002da8:	fff38393          	addi	t2,t2,-1
    80002dac:	00728463          	beq	t0,t2,80002db4 <test_275>
    80002db0:	0c00106f          	j	80003e70 <fail>

0000000080002db4 <test_275>:
    80002db4:	11300193          	li	gp,275
    80002db8:	0005b283          	ld	t0,0(a1)
    80002dbc:	00858593          	addi	a1,a1,8
    80002dc0:	010703b7          	lui	t2,0x1070
    80002dc4:	0013839b          	addiw	t2,t2,1
    80002dc8:	01839393          	slli	t2,t2,0x18
    80002dcc:	10038393          	addi	t2,t2,256 # 1070100 <_start-0x7ef8ff00>
    80002dd0:	00728463          	beq	t0,t2,80002dd8 <test_276>
    80002dd4:	09c0106f          	j	80003e70 <fail>

0000000080002dd8 <test_276>:
    80002dd8:	11400193          	li	gp,276
    80002ddc:	0005b283          	ld	t0,0(a1)
    80002de0:	00858593          	addi	a1,a1,8
    80002de4:	000103b7          	lui	t2,0x10
    80002de8:	3f93839b          	addiw	t2,t2,1017
    80002dec:	01439393          	slli	t2,t2,0x14
    80002df0:	eff38393          	addi	t2,t2,-257 # feff <_start-0x7fff0101>
    80002df4:	00c39393          	slli	t2,t2,0xc
    80002df8:	fff38393          	addi	t2,t2,-1
    80002dfc:	00728463          	beq	t0,t2,80002e04 <test_277>
    80002e00:	0700106f          	j	80003e70 <fail>

0000000080002e04 <test_277>:
    80002e04:	11500193          	li	gp,277
    80002e08:	0005b283          	ld	t0,0(a1)
    80002e0c:	00858593          	addi	a1,a1,8
    80002e10:	010703b7          	lui	t2,0x1070
    80002e14:	0013839b          	addiw	t2,t2,1
    80002e18:	01839393          	slli	t2,t2,0x18
    80002e1c:	10038393          	addi	t2,t2,256 # 1070100 <_start-0x7ef8ff00>
    80002e20:	00728463          	beq	t0,t2,80002e28 <test_278>
    80002e24:	04c0106f          	j	80003e70 <fail>

0000000080002e28 <test_278>:
    80002e28:	11600193          	li	gp,278
    80002e2c:	0005b283          	ld	t0,0(a1)
    80002e30:	00858593          	addi	a1,a1,8
    80002e34:	000103b7          	lui	t2,0x10
    80002e38:	3f93839b          	addiw	t2,t2,1017
    80002e3c:	01439393          	slli	t2,t2,0x14
    80002e40:	eff38393          	addi	t2,t2,-257 # feff <_start-0x7fff0101>
    80002e44:	00c39393          	slli	t2,t2,0xc
    80002e48:	fff38393          	addi	t2,t2,-1
    80002e4c:	00728463          	beq	t0,t2,80002e54 <test_279>
    80002e50:	0200106f          	j	80003e70 <fail>

0000000080002e54 <test_279>:
    80002e54:	11700193          	li	gp,279
    80002e58:	0005b283          	ld	t0,0(a1)
    80002e5c:	00858593          	addi	a1,a1,8
    80002e60:	010703b7          	lui	t2,0x1070
    80002e64:	0013839b          	addiw	t2,t2,1
    80002e68:	01839393          	slli	t2,t2,0x18
    80002e6c:	10038393          	addi	t2,t2,256 # 1070100 <_start-0x7ef8ff00>
    80002e70:	00728463          	beq	t0,t2,80002e78 <test_280>
    80002e74:	7fd0006f          	j	80003e70 <fail>

0000000080002e78 <test_280>:
    80002e78:	11800193          	li	gp,280
    80002e7c:	0005b283          	ld	t0,0(a1)
    80002e80:	00858593          	addi	a1,a1,8
    80002e84:	000103b7          	lui	t2,0x10
    80002e88:	3f93839b          	addiw	t2,t2,1017
    80002e8c:	01439393          	slli	t2,t2,0x14
    80002e90:	eff38393          	addi	t2,t2,-257 # feff <_start-0x7fff0101>
    80002e94:	00c39393          	slli	t2,t2,0xc
    80002e98:	fff38393          	addi	t2,t2,-1
    80002e9c:	7c729ae3          	bne	t0,t2,80003e70 <fail>

0000000080002ea0 <test_281>:
    80002ea0:	11900193          	li	gp,281
    80002ea4:	0005b283          	ld	t0,0(a1)
    80002ea8:	00858593          	addi	a1,a1,8
    80002eac:	010703b7          	lui	t2,0x1070
    80002eb0:	0013839b          	addiw	t2,t2,1
    80002eb4:	01839393          	slli	t2,t2,0x18
    80002eb8:	10038393          	addi	t2,t2,256 # 1070100 <_start-0x7ef8ff00>
    80002ebc:	7a729ae3          	bne	t0,t2,80003e70 <fail>

0000000080002ec0 <test_282>:
    80002ec0:	11a00193          	li	gp,282
    80002ec4:	0005b283          	ld	t0,0(a1)
    80002ec8:	00858593          	addi	a1,a1,8
    80002ecc:	000103b7          	lui	t2,0x10
    80002ed0:	3f93839b          	addiw	t2,t2,1017
    80002ed4:	01439393          	slli	t2,t2,0x14
    80002ed8:	eff38393          	addi	t2,t2,-257 # feff <_start-0x7fff0101>
    80002edc:	00c39393          	slli	t2,t2,0xc
    80002ee0:	fff38393          	addi	t2,t2,-1
    80002ee4:	787296e3          	bne	t0,t2,80003e70 <fail>

0000000080002ee8 <test_283>:
    80002ee8:	11b00193          	li	gp,283
    80002eec:	0005b283          	ld	t0,0(a1)
    80002ef0:	00858593          	addi	a1,a1,8
    80002ef4:	010703b7          	lui	t2,0x1070
    80002ef8:	0013839b          	addiw	t2,t2,1
    80002efc:	01839393          	slli	t2,t2,0x18
    80002f00:	10038393          	addi	t2,t2,256 # 1070100 <_start-0x7ef8ff00>
    80002f04:	767296e3          	bne	t0,t2,80003e70 <fail>

0000000080002f08 <test_284>:
    80002f08:	11c00193          	li	gp,284
    80002f0c:	0005b283          	ld	t0,0(a1)
    80002f10:	00858593          	addi	a1,a1,8
    80002f14:	000103b7          	lui	t2,0x10
    80002f18:	3f93839b          	addiw	t2,t2,1017
    80002f1c:	01439393          	slli	t2,t2,0x14
    80002f20:	eff38393          	addi	t2,t2,-257 # feff <_start-0x7fff0101>
    80002f24:	00c39393          	slli	t2,t2,0xc
    80002f28:	fff38393          	addi	t2,t2,-1
    80002f2c:	747292e3          	bne	t0,t2,80003e70 <fail>

0000000080002f30 <test_285>:
    80002f30:	11d00193          	li	gp,285
    80002f34:	0005b283          	ld	t0,0(a1)
    80002f38:	00858593          	addi	a1,a1,8
    80002f3c:	010703b7          	lui	t2,0x1070
    80002f40:	0013839b          	addiw	t2,t2,1
    80002f44:	01839393          	slli	t2,t2,0x18
    80002f48:	10038393          	addi	t2,t2,256 # 1070100 <_start-0x7ef8ff00>
    80002f4c:	727292e3          	bne	t0,t2,80003e70 <fail>

0000000080002f50 <test_286>:
    80002f50:	11e00193          	li	gp,286
    80002f54:	0005b283          	ld	t0,0(a1)
    80002f58:	00858593          	addi	a1,a1,8
    80002f5c:	000103b7          	lui	t2,0x10
    80002f60:	3f93839b          	addiw	t2,t2,1017
    80002f64:	01439393          	slli	t2,t2,0x14
    80002f68:	eff38393          	addi	t2,t2,-257 # feff <_start-0x7fff0101>
    80002f6c:	00c39393          	slli	t2,t2,0xc
    80002f70:	fff38393          	addi	t2,t2,-1
    80002f74:	6e729ee3          	bne	t0,t2,80003e70 <fail>

0000000080002f78 <test_287>:
    80002f78:	11f00193          	li	gp,287
    80002f7c:	0005b283          	ld	t0,0(a1)
    80002f80:	00858593          	addi	a1,a1,8
    80002f84:	010703b7          	lui	t2,0x1070
    80002f88:	0013839b          	addiw	t2,t2,1
    80002f8c:	01839393          	slli	t2,t2,0x18
    80002f90:	10038393          	addi	t2,t2,256 # 1070100 <_start-0x7ef8ff00>
    80002f94:	6c729ee3          	bne	t0,t2,80003e70 <fail>

0000000080002f98 <test_288>:
    80002f98:	12000193          	li	gp,288
    80002f9c:	0005b283          	ld	t0,0(a1)
    80002fa0:	00858593          	addi	a1,a1,8
    80002fa4:	000103b7          	lui	t2,0x10
    80002fa8:	3f93839b          	addiw	t2,t2,1017
    80002fac:	01439393          	slli	t2,t2,0x14
    80002fb0:	eff38393          	addi	t2,t2,-257 # feff <_start-0x7fff0101>
    80002fb4:	00c39393          	slli	t2,t2,0xc
    80002fb8:	fff38393          	addi	t2,t2,-1
    80002fbc:	6a729ae3          	bne	t0,t2,80003e70 <fail>

0000000080002fc0 <test_289>:
    80002fc0:	12100193          	li	gp,289
    80002fc4:	0005b283          	ld	t0,0(a1)
    80002fc8:	00858593          	addi	a1,a1,8
    80002fcc:	010703b7          	lui	t2,0x1070
    80002fd0:	0013839b          	addiw	t2,t2,1
    80002fd4:	01839393          	slli	t2,t2,0x18
    80002fd8:	10038393          	addi	t2,t2,256 # 1070100 <_start-0x7ef8ff00>
    80002fdc:	68729ae3          	bne	t0,t2,80003e70 <fail>
    80002fe0:	fff00293          	li	t0,-1
    80002fe4:	0c22f357          	vsetvli	t1,t0,e8,m4,ta,ma
    80002fe8:	00002617          	auipc	a2,0x2
    80002fec:	22860613          	addi	a2,a2,552 # 80005210 <tdat>
    80002ff0:	02060807          	vle8.v	v16,(a2)
    80002ff4:	0c32f357          	vsetvli	t1,t0,e8,m8,ta,ma
    80002ff8:	02060407          	vle8.v	v8,(a2)
    80002ffc:	00002617          	auipc	a2,0x2
    80003000:	21c60613          	addi	a2,a2,540 # 80005218 <tdat+0x8>
    80003004:	0c22f357          	vsetvli	t1,t0,e8,m4,ta,ma
    80003008:	02060c07          	vle8.v	v24,(a2)
    8000300c:	08000293          	li	t0,128
    80003010:	0822f357          	vsetvli	t1,t0,e8,m4,tu,ma
    80003014:	c30c0457          	vwredsumu.vs	v8,v16,v24
    80003018:	fff00293          	li	t0,-1
    8000301c:	0c32f357          	vsetvli	t1,t0,e8,m8,ta,ma
    80003020:	00002597          	auipc	a1,0x2
    80003024:	fe058593          	addi	a1,a1,-32 # 80005000 <begin_signature>
    80003028:	02058427          	vse8.v	v8,(a1)

000000008000302c <test_290>:
    8000302c:	12200193          	li	gp,290
    80003030:	0005b283          	ld	t0,0(a1)
    80003034:	00858593          	addi	a1,a1,8
    80003038:	000103b7          	lui	t2,0x10
    8000303c:	3f93839b          	addiw	t2,t2,1017
    80003040:	01439393          	slli	t2,t2,0x14
    80003044:	ef338393          	addi	t2,t2,-269 # fef3 <_start-0x7fff010d>
    80003048:	00c39393          	slli	t2,t2,0xc
    8000304c:	81038393          	addi	t2,t2,-2032
    80003050:	627290e3          	bne	t0,t2,80003e70 <fail>

0000000080003054 <test_291>:
    80003054:	12300193          	li	gp,291
    80003058:	0005b283          	ld	t0,0(a1)
    8000305c:	00858593          	addi	a1,a1,8
    80003060:	010703b7          	lui	t2,0x1070
    80003064:	0013839b          	addiw	t2,t2,1
    80003068:	01839393          	slli	t2,t2,0x18
    8000306c:	10038393          	addi	t2,t2,256 # 1070100 <_start-0x7ef8ff00>
    80003070:	607290e3          	bne	t0,t2,80003e70 <fail>

0000000080003074 <test_292>:
    80003074:	12400193          	li	gp,292
    80003078:	0005b283          	ld	t0,0(a1)
    8000307c:	00858593          	addi	a1,a1,8
    80003080:	000103b7          	lui	t2,0x10
    80003084:	3f93839b          	addiw	t2,t2,1017
    80003088:	01439393          	slli	t2,t2,0x14
    8000308c:	eff38393          	addi	t2,t2,-257 # feff <_start-0x7fff0101>
    80003090:	00c39393          	slli	t2,t2,0xc
    80003094:	fff38393          	addi	t2,t2,-1
    80003098:	5c729ce3          	bne	t0,t2,80003e70 <fail>

000000008000309c <test_293>:
    8000309c:	12500193          	li	gp,293
    800030a0:	0005b283          	ld	t0,0(a1)
    800030a4:	00858593          	addi	a1,a1,8
    800030a8:	010703b7          	lui	t2,0x1070
    800030ac:	0013839b          	addiw	t2,t2,1
    800030b0:	01839393          	slli	t2,t2,0x18
    800030b4:	10038393          	addi	t2,t2,256 # 1070100 <_start-0x7ef8ff00>
    800030b8:	5a729ce3          	bne	t0,t2,80003e70 <fail>

00000000800030bc <test_294>:
    800030bc:	12600193          	li	gp,294
    800030c0:	0005b283          	ld	t0,0(a1)
    800030c4:	00858593          	addi	a1,a1,8
    800030c8:	000103b7          	lui	t2,0x10
    800030cc:	3f93839b          	addiw	t2,t2,1017
    800030d0:	01439393          	slli	t2,t2,0x14
    800030d4:	eff38393          	addi	t2,t2,-257 # feff <_start-0x7fff0101>
    800030d8:	00c39393          	slli	t2,t2,0xc
    800030dc:	fff38393          	addi	t2,t2,-1
    800030e0:	587298e3          	bne	t0,t2,80003e70 <fail>

00000000800030e4 <test_295>:
    800030e4:	12700193          	li	gp,295
    800030e8:	0005b283          	ld	t0,0(a1)
    800030ec:	00858593          	addi	a1,a1,8
    800030f0:	010703b7          	lui	t2,0x1070
    800030f4:	0013839b          	addiw	t2,t2,1
    800030f8:	01839393          	slli	t2,t2,0x18
    800030fc:	10038393          	addi	t2,t2,256 # 1070100 <_start-0x7ef8ff00>
    80003100:	567298e3          	bne	t0,t2,80003e70 <fail>

0000000080003104 <test_296>:
    80003104:	12800193          	li	gp,296
    80003108:	0005b283          	ld	t0,0(a1)
    8000310c:	00858593          	addi	a1,a1,8
    80003110:	000103b7          	lui	t2,0x10
    80003114:	3f93839b          	addiw	t2,t2,1017
    80003118:	01439393          	slli	t2,t2,0x14
    8000311c:	eff38393          	addi	t2,t2,-257 # feff <_start-0x7fff0101>
    80003120:	00c39393          	slli	t2,t2,0xc
    80003124:	fff38393          	addi	t2,t2,-1
    80003128:	547294e3          	bne	t0,t2,80003e70 <fail>

000000008000312c <test_297>:
    8000312c:	12900193          	li	gp,297
    80003130:	0005b283          	ld	t0,0(a1)
    80003134:	00858593          	addi	a1,a1,8
    80003138:	010703b7          	lui	t2,0x1070
    8000313c:	0013839b          	addiw	t2,t2,1
    80003140:	01839393          	slli	t2,t2,0x18
    80003144:	10038393          	addi	t2,t2,256 # 1070100 <_start-0x7ef8ff00>
    80003148:	527294e3          	bne	t0,t2,80003e70 <fail>

000000008000314c <test_298>:
    8000314c:	12a00193          	li	gp,298
    80003150:	0005b283          	ld	t0,0(a1)
    80003154:	00858593          	addi	a1,a1,8
    80003158:	000103b7          	lui	t2,0x10
    8000315c:	3f93839b          	addiw	t2,t2,1017
    80003160:	01439393          	slli	t2,t2,0x14
    80003164:	eff38393          	addi	t2,t2,-257 # feff <_start-0x7fff0101>
    80003168:	00c39393          	slli	t2,t2,0xc
    8000316c:	fff38393          	addi	t2,t2,-1
    80003170:	507290e3          	bne	t0,t2,80003e70 <fail>

0000000080003174 <test_299>:
    80003174:	12b00193          	li	gp,299
    80003178:	0005b283          	ld	t0,0(a1)
    8000317c:	00858593          	addi	a1,a1,8
    80003180:	010703b7          	lui	t2,0x1070
    80003184:	0013839b          	addiw	t2,t2,1
    80003188:	01839393          	slli	t2,t2,0x18
    8000318c:	10038393          	addi	t2,t2,256 # 1070100 <_start-0x7ef8ff00>
    80003190:	4e7290e3          	bne	t0,t2,80003e70 <fail>

0000000080003194 <test_300>:
    80003194:	12c00193          	li	gp,300
    80003198:	0005b283          	ld	t0,0(a1)
    8000319c:	00858593          	addi	a1,a1,8
    800031a0:	000103b7          	lui	t2,0x10
    800031a4:	3f93839b          	addiw	t2,t2,1017
    800031a8:	01439393          	slli	t2,t2,0x14
    800031ac:	eff38393          	addi	t2,t2,-257 # feff <_start-0x7fff0101>
    800031b0:	00c39393          	slli	t2,t2,0xc
    800031b4:	fff38393          	addi	t2,t2,-1
    800031b8:	4a729ce3          	bne	t0,t2,80003e70 <fail>

00000000800031bc <test_301>:
    800031bc:	12d00193          	li	gp,301
    800031c0:	0005b283          	ld	t0,0(a1)
    800031c4:	00858593          	addi	a1,a1,8
    800031c8:	010703b7          	lui	t2,0x1070
    800031cc:	0013839b          	addiw	t2,t2,1
    800031d0:	01839393          	slli	t2,t2,0x18
    800031d4:	10038393          	addi	t2,t2,256 # 1070100 <_start-0x7ef8ff00>
    800031d8:	48729ce3          	bne	t0,t2,80003e70 <fail>

00000000800031dc <test_302>:
    800031dc:	12e00193          	li	gp,302
    800031e0:	0005b283          	ld	t0,0(a1)
    800031e4:	00858593          	addi	a1,a1,8
    800031e8:	000103b7          	lui	t2,0x10
    800031ec:	3f93839b          	addiw	t2,t2,1017
    800031f0:	01439393          	slli	t2,t2,0x14
    800031f4:	eff38393          	addi	t2,t2,-257 # feff <_start-0x7fff0101>
    800031f8:	00c39393          	slli	t2,t2,0xc
    800031fc:	fff38393          	addi	t2,t2,-1
    80003200:	467298e3          	bne	t0,t2,80003e70 <fail>

0000000080003204 <test_303>:
    80003204:	12f00193          	li	gp,303
    80003208:	0005b283          	ld	t0,0(a1)
    8000320c:	00858593          	addi	a1,a1,8
    80003210:	010703b7          	lui	t2,0x1070
    80003214:	0013839b          	addiw	t2,t2,1
    80003218:	01839393          	slli	t2,t2,0x18
    8000321c:	10038393          	addi	t2,t2,256 # 1070100 <_start-0x7ef8ff00>
    80003220:	447298e3          	bne	t0,t2,80003e70 <fail>

0000000080003224 <test_304>:
    80003224:	13000193          	li	gp,304
    80003228:	0005b283          	ld	t0,0(a1)
    8000322c:	00858593          	addi	a1,a1,8
    80003230:	000103b7          	lui	t2,0x10
    80003234:	3f93839b          	addiw	t2,t2,1017
    80003238:	01439393          	slli	t2,t2,0x14
    8000323c:	eff38393          	addi	t2,t2,-257 # feff <_start-0x7fff0101>
    80003240:	00c39393          	slli	t2,t2,0xc
    80003244:	fff38393          	addi	t2,t2,-1
    80003248:	427294e3          	bne	t0,t2,80003e70 <fail>

000000008000324c <test_305>:
    8000324c:	13100193          	li	gp,305
    80003250:	0005b283          	ld	t0,0(a1)
    80003254:	00858593          	addi	a1,a1,8
    80003258:	010703b7          	lui	t2,0x1070
    8000325c:	0013839b          	addiw	t2,t2,1
    80003260:	01839393          	slli	t2,t2,0x18
    80003264:	10038393          	addi	t2,t2,256 # 1070100 <_start-0x7ef8ff00>
    80003268:	407294e3          	bne	t0,t2,80003e70 <fail>

000000008000326c <test_306>:
    8000326c:	13200193          	li	gp,306
    80003270:	0005b283          	ld	t0,0(a1)
    80003274:	00858593          	addi	a1,a1,8
    80003278:	000103b7          	lui	t2,0x10
    8000327c:	3f93839b          	addiw	t2,t2,1017
    80003280:	01439393          	slli	t2,t2,0x14
    80003284:	eff38393          	addi	t2,t2,-257 # feff <_start-0x7fff0101>
    80003288:	00c39393          	slli	t2,t2,0xc
    8000328c:	fff38393          	addi	t2,t2,-1
    80003290:	3e7290e3          	bne	t0,t2,80003e70 <fail>

0000000080003294 <test_307>:
    80003294:	13300193          	li	gp,307
    80003298:	0005b283          	ld	t0,0(a1)
    8000329c:	00858593          	addi	a1,a1,8
    800032a0:	010703b7          	lui	t2,0x1070
    800032a4:	0013839b          	addiw	t2,t2,1
    800032a8:	01839393          	slli	t2,t2,0x18
    800032ac:	10038393          	addi	t2,t2,256 # 1070100 <_start-0x7ef8ff00>
    800032b0:	3c7290e3          	bne	t0,t2,80003e70 <fail>

00000000800032b4 <test_308>:
    800032b4:	13400193          	li	gp,308
    800032b8:	0005b283          	ld	t0,0(a1)
    800032bc:	00858593          	addi	a1,a1,8
    800032c0:	000103b7          	lui	t2,0x10
    800032c4:	3f93839b          	addiw	t2,t2,1017
    800032c8:	01439393          	slli	t2,t2,0x14
    800032cc:	eff38393          	addi	t2,t2,-257 # feff <_start-0x7fff0101>
    800032d0:	00c39393          	slli	t2,t2,0xc
    800032d4:	fff38393          	addi	t2,t2,-1
    800032d8:	38729ce3          	bne	t0,t2,80003e70 <fail>

00000000800032dc <test_309>:
    800032dc:	13500193          	li	gp,309
    800032e0:	0005b283          	ld	t0,0(a1)
    800032e4:	00858593          	addi	a1,a1,8
    800032e8:	010703b7          	lui	t2,0x1070
    800032ec:	0013839b          	addiw	t2,t2,1
    800032f0:	01839393          	slli	t2,t2,0x18
    800032f4:	10038393          	addi	t2,t2,256 # 1070100 <_start-0x7ef8ff00>
    800032f8:	36729ce3          	bne	t0,t2,80003e70 <fail>

00000000800032fc <test_310>:
    800032fc:	13600193          	li	gp,310
    80003300:	0005b283          	ld	t0,0(a1)
    80003304:	00858593          	addi	a1,a1,8
    80003308:	000103b7          	lui	t2,0x10
    8000330c:	3f93839b          	addiw	t2,t2,1017
    80003310:	01439393          	slli	t2,t2,0x14
    80003314:	eff38393          	addi	t2,t2,-257 # feff <_start-0x7fff0101>
    80003318:	00c39393          	slli	t2,t2,0xc
    8000331c:	fff38393          	addi	t2,t2,-1
    80003320:	347298e3          	bne	t0,t2,80003e70 <fail>

0000000080003324 <test_311>:
    80003324:	13700193          	li	gp,311
    80003328:	0005b283          	ld	t0,0(a1)
    8000332c:	00858593          	addi	a1,a1,8
    80003330:	010703b7          	lui	t2,0x1070
    80003334:	0013839b          	addiw	t2,t2,1
    80003338:	01839393          	slli	t2,t2,0x18
    8000333c:	10038393          	addi	t2,t2,256 # 1070100 <_start-0x7ef8ff00>
    80003340:	327298e3          	bne	t0,t2,80003e70 <fail>

0000000080003344 <test_312>:
    80003344:	13800193          	li	gp,312
    80003348:	0005b283          	ld	t0,0(a1)
    8000334c:	00858593          	addi	a1,a1,8
    80003350:	000103b7          	lui	t2,0x10
    80003354:	3f93839b          	addiw	t2,t2,1017
    80003358:	01439393          	slli	t2,t2,0x14
    8000335c:	eff38393          	addi	t2,t2,-257 # feff <_start-0x7fff0101>
    80003360:	00c39393          	slli	t2,t2,0xc
    80003364:	fff38393          	addi	t2,t2,-1
    80003368:	307294e3          	bne	t0,t2,80003e70 <fail>

000000008000336c <test_313>:
    8000336c:	13900193          	li	gp,313
    80003370:	0005b283          	ld	t0,0(a1)
    80003374:	00858593          	addi	a1,a1,8
    80003378:	010703b7          	lui	t2,0x1070
    8000337c:	0013839b          	addiw	t2,t2,1
    80003380:	01839393          	slli	t2,t2,0x18
    80003384:	10038393          	addi	t2,t2,256 # 1070100 <_start-0x7ef8ff00>
    80003388:	2e7294e3          	bne	t0,t2,80003e70 <fail>

000000008000338c <test_314>:
    8000338c:	13a00193          	li	gp,314
    80003390:	0005b283          	ld	t0,0(a1)
    80003394:	00858593          	addi	a1,a1,8
    80003398:	000103b7          	lui	t2,0x10
    8000339c:	3f93839b          	addiw	t2,t2,1017
    800033a0:	01439393          	slli	t2,t2,0x14
    800033a4:	eff38393          	addi	t2,t2,-257 # feff <_start-0x7fff0101>
    800033a8:	00c39393          	slli	t2,t2,0xc
    800033ac:	fff38393          	addi	t2,t2,-1
    800033b0:	2c7290e3          	bne	t0,t2,80003e70 <fail>

00000000800033b4 <test_315>:
    800033b4:	13b00193          	li	gp,315
    800033b8:	0005b283          	ld	t0,0(a1)
    800033bc:	00858593          	addi	a1,a1,8
    800033c0:	010703b7          	lui	t2,0x1070
    800033c4:	0013839b          	addiw	t2,t2,1
    800033c8:	01839393          	slli	t2,t2,0x18
    800033cc:	10038393          	addi	t2,t2,256 # 1070100 <_start-0x7ef8ff00>
    800033d0:	2a7290e3          	bne	t0,t2,80003e70 <fail>

00000000800033d4 <test_316>:
    800033d4:	13c00193          	li	gp,316
    800033d8:	0005b283          	ld	t0,0(a1)
    800033dc:	00858593          	addi	a1,a1,8
    800033e0:	000103b7          	lui	t2,0x10
    800033e4:	3f93839b          	addiw	t2,t2,1017
    800033e8:	01439393          	slli	t2,t2,0x14
    800033ec:	eff38393          	addi	t2,t2,-257 # feff <_start-0x7fff0101>
    800033f0:	00c39393          	slli	t2,t2,0xc
    800033f4:	fff38393          	addi	t2,t2,-1
    800033f8:	26729ce3          	bne	t0,t2,80003e70 <fail>

00000000800033fc <test_317>:
    800033fc:	13d00193          	li	gp,317
    80003400:	0005b283          	ld	t0,0(a1)
    80003404:	00858593          	addi	a1,a1,8
    80003408:	010703b7          	lui	t2,0x1070
    8000340c:	0013839b          	addiw	t2,t2,1
    80003410:	01839393          	slli	t2,t2,0x18
    80003414:	10038393          	addi	t2,t2,256 # 1070100 <_start-0x7ef8ff00>
    80003418:	24729ce3          	bne	t0,t2,80003e70 <fail>

000000008000341c <test_318>:
    8000341c:	13e00193          	li	gp,318
    80003420:	0005b283          	ld	t0,0(a1)
    80003424:	00858593          	addi	a1,a1,8
    80003428:	000103b7          	lui	t2,0x10
    8000342c:	3f93839b          	addiw	t2,t2,1017
    80003430:	01439393          	slli	t2,t2,0x14
    80003434:	eff38393          	addi	t2,t2,-257 # feff <_start-0x7fff0101>
    80003438:	00c39393          	slli	t2,t2,0xc
    8000343c:	fff38393          	addi	t2,t2,-1
    80003440:	227298e3          	bne	t0,t2,80003e70 <fail>

0000000080003444 <test_319>:
    80003444:	13f00193          	li	gp,319
    80003448:	0005b283          	ld	t0,0(a1)
    8000344c:	00858593          	addi	a1,a1,8
    80003450:	010703b7          	lui	t2,0x1070
    80003454:	0013839b          	addiw	t2,t2,1
    80003458:	01839393          	slli	t2,t2,0x18
    8000345c:	10038393          	addi	t2,t2,256 # 1070100 <_start-0x7ef8ff00>
    80003460:	207298e3          	bne	t0,t2,80003e70 <fail>

0000000080003464 <test_320>:
    80003464:	14000193          	li	gp,320
    80003468:	0005b283          	ld	t0,0(a1)
    8000346c:	00858593          	addi	a1,a1,8
    80003470:	000103b7          	lui	t2,0x10
    80003474:	3f93839b          	addiw	t2,t2,1017
    80003478:	01439393          	slli	t2,t2,0x14
    8000347c:	eff38393          	addi	t2,t2,-257 # feff <_start-0x7fff0101>
    80003480:	00c39393          	slli	t2,t2,0xc
    80003484:	fff38393          	addi	t2,t2,-1
    80003488:	1e7294e3          	bne	t0,t2,80003e70 <fail>

000000008000348c <test_321>:
    8000348c:	14100193          	li	gp,321
    80003490:	0005b283          	ld	t0,0(a1)
    80003494:	00858593          	addi	a1,a1,8
    80003498:	010703b7          	lui	t2,0x1070
    8000349c:	0013839b          	addiw	t2,t2,1
    800034a0:	01839393          	slli	t2,t2,0x18
    800034a4:	10038393          	addi	t2,t2,256 # 1070100 <_start-0x7ef8ff00>
    800034a8:	1c7294e3          	bne	t0,t2,80003e70 <fail>
    800034ac:	fff00293          	li	t0,-1
    800034b0:	0c22f357          	vsetvli	t1,t0,e8,m4,ta,ma
    800034b4:	00002617          	auipc	a2,0x2
    800034b8:	d5c60613          	addi	a2,a2,-676 # 80005210 <tdat>
    800034bc:	02060807          	vle8.v	v16,(a2)
    800034c0:	0c32f357          	vsetvli	t1,t0,e8,m8,ta,ma
    800034c4:	02060407          	vle8.v	v8,(a2)
    800034c8:	00002617          	auipc	a2,0x2
    800034cc:	d5060613          	addi	a2,a2,-688 # 80005218 <tdat+0x8>
    800034d0:	0c22f357          	vsetvli	t1,t0,e8,m4,ta,ma
    800034d4:	02060c07          	vle8.v	v24,(a2)
    800034d8:	fff00293          	li	t0,-1
    800034dc:	0c02f357          	vsetvli	t1,t0,e8,m1,ta,ma
    800034e0:	00002697          	auipc	a3,0x2
    800034e4:	e3868693          	addi	a3,a3,-456 # 80005318 <mask>
    800034e8:	02068007          	vle8.v	v0,(a3)
    800034ec:	08000293          	li	t0,128
    800034f0:	0c22f357          	vsetvli	t1,t0,e8,m4,ta,ma
    800034f4:	c10c0457          	vwredsumu.vs	v8,v16,v24,v0.t
    800034f8:	fff00293          	li	t0,-1
    800034fc:	0c32f357          	vsetvli	t1,t0,e8,m8,ta,ma
    80003500:	00002597          	auipc	a1,0x2
    80003504:	b0058593          	addi	a1,a1,-1280 # 80005000 <begin_signature>
    80003508:	02058427          	vse8.v	v8,(a1)

000000008000350c <test_322>:
    8000350c:	14200193          	li	gp,322
    80003510:	0005b283          	ld	t0,0(a1)
    80003514:	00858593          	addi	a1,a1,8
    80003518:	000103b7          	lui	t2,0x10
    8000351c:	3f93839b          	addiw	t2,t2,1017
    80003520:	01339393          	slli	t2,t2,0x13
    80003524:	f7938393          	addi	t2,t2,-135 # ff79 <_start-0x7fff0087>
    80003528:	00d39393          	slli	t2,t2,0xd
    8000352c:	84038393          	addi	t2,t2,-1984
    80003530:	147290e3          	bne	t0,t2,80003e70 <fail>

0000000080003534 <test_323>:
    80003534:	14300193          	li	gp,323
    80003538:	0005b283          	ld	t0,0(a1)
    8000353c:	00858593          	addi	a1,a1,8
    80003540:	010703b7          	lui	t2,0x1070
    80003544:	0013839b          	addiw	t2,t2,1
    80003548:	01839393          	slli	t2,t2,0x18
    8000354c:	10038393          	addi	t2,t2,256 # 1070100 <_start-0x7ef8ff00>
    80003550:	127290e3          	bne	t0,t2,80003e70 <fail>

0000000080003554 <test_324>:
    80003554:	14400193          	li	gp,324
    80003558:	0005b283          	ld	t0,0(a1)
    8000355c:	00858593          	addi	a1,a1,8
    80003560:	000103b7          	lui	t2,0x10
    80003564:	3f93839b          	addiw	t2,t2,1017
    80003568:	01439393          	slli	t2,t2,0x14
    8000356c:	eff38393          	addi	t2,t2,-257 # feff <_start-0x7fff0101>
    80003570:	00c39393          	slli	t2,t2,0xc
    80003574:	fff38393          	addi	t2,t2,-1
    80003578:	0e729ce3          	bne	t0,t2,80003e70 <fail>

000000008000357c <test_325>:
    8000357c:	14500193          	li	gp,325
    80003580:	0005b283          	ld	t0,0(a1)
    80003584:	00858593          	addi	a1,a1,8
    80003588:	010703b7          	lui	t2,0x1070
    8000358c:	0013839b          	addiw	t2,t2,1
    80003590:	01839393          	slli	t2,t2,0x18
    80003594:	10038393          	addi	t2,t2,256 # 1070100 <_start-0x7ef8ff00>
    80003598:	0c729ce3          	bne	t0,t2,80003e70 <fail>

000000008000359c <test_326>:
    8000359c:	14600193          	li	gp,326
    800035a0:	0005b283          	ld	t0,0(a1)
    800035a4:	00858593          	addi	a1,a1,8
    800035a8:	000103b7          	lui	t2,0x10
    800035ac:	3f93839b          	addiw	t2,t2,1017
    800035b0:	01439393          	slli	t2,t2,0x14
    800035b4:	eff38393          	addi	t2,t2,-257 # feff <_start-0x7fff0101>
    800035b8:	00c39393          	slli	t2,t2,0xc
    800035bc:	fff38393          	addi	t2,t2,-1
    800035c0:	0a7298e3          	bne	t0,t2,80003e70 <fail>

00000000800035c4 <test_327>:
    800035c4:	14700193          	li	gp,327
    800035c8:	0005b283          	ld	t0,0(a1)
    800035cc:	00858593          	addi	a1,a1,8
    800035d0:	010703b7          	lui	t2,0x1070
    800035d4:	0013839b          	addiw	t2,t2,1
    800035d8:	01839393          	slli	t2,t2,0x18
    800035dc:	10038393          	addi	t2,t2,256 # 1070100 <_start-0x7ef8ff00>
    800035e0:	087298e3          	bne	t0,t2,80003e70 <fail>

00000000800035e4 <test_328>:
    800035e4:	14800193          	li	gp,328
    800035e8:	0005b283          	ld	t0,0(a1)
    800035ec:	00858593          	addi	a1,a1,8
    800035f0:	000103b7          	lui	t2,0x10
    800035f4:	3f93839b          	addiw	t2,t2,1017
    800035f8:	01439393          	slli	t2,t2,0x14
    800035fc:	eff38393          	addi	t2,t2,-257 # feff <_start-0x7fff0101>
    80003600:	00c39393          	slli	t2,t2,0xc
    80003604:	fff38393          	addi	t2,t2,-1
    80003608:	067294e3          	bne	t0,t2,80003e70 <fail>

000000008000360c <test_329>:
    8000360c:	14900193          	li	gp,329
    80003610:	0005b283          	ld	t0,0(a1)
    80003614:	00858593          	addi	a1,a1,8
    80003618:	010703b7          	lui	t2,0x1070
    8000361c:	0013839b          	addiw	t2,t2,1
    80003620:	01839393          	slli	t2,t2,0x18
    80003624:	10038393          	addi	t2,t2,256 # 1070100 <_start-0x7ef8ff00>
    80003628:	047294e3          	bne	t0,t2,80003e70 <fail>

000000008000362c <test_330>:
    8000362c:	14a00193          	li	gp,330
    80003630:	0005b283          	ld	t0,0(a1)
    80003634:	00858593          	addi	a1,a1,8
    80003638:	000103b7          	lui	t2,0x10
    8000363c:	3f93839b          	addiw	t2,t2,1017
    80003640:	01439393          	slli	t2,t2,0x14
    80003644:	eff38393          	addi	t2,t2,-257 # feff <_start-0x7fff0101>
    80003648:	00c39393          	slli	t2,t2,0xc
    8000364c:	fff38393          	addi	t2,t2,-1
    80003650:	027290e3          	bne	t0,t2,80003e70 <fail>

0000000080003654 <test_331>:
    80003654:	14b00193          	li	gp,331
    80003658:	0005b283          	ld	t0,0(a1)
    8000365c:	00858593          	addi	a1,a1,8
    80003660:	010703b7          	lui	t2,0x1070
    80003664:	0013839b          	addiw	t2,t2,1
    80003668:	01839393          	slli	t2,t2,0x18
    8000366c:	10038393          	addi	t2,t2,256 # 1070100 <_start-0x7ef8ff00>
    80003670:	007290e3          	bne	t0,t2,80003e70 <fail>

0000000080003674 <test_332>:
    80003674:	14c00193          	li	gp,332
    80003678:	0005b283          	ld	t0,0(a1)
    8000367c:	00858593          	addi	a1,a1,8
    80003680:	000103b7          	lui	t2,0x10
    80003684:	3f93839b          	addiw	t2,t2,1017
    80003688:	01439393          	slli	t2,t2,0x14
    8000368c:	eff38393          	addi	t2,t2,-257 # feff <_start-0x7fff0101>
    80003690:	00c39393          	slli	t2,t2,0xc
    80003694:	fff38393          	addi	t2,t2,-1
    80003698:	7c729c63          	bne	t0,t2,80003e70 <fail>

000000008000369c <test_333>:
    8000369c:	14d00193          	li	gp,333
    800036a0:	0005b283          	ld	t0,0(a1)
    800036a4:	00858593          	addi	a1,a1,8
    800036a8:	010703b7          	lui	t2,0x1070
    800036ac:	0013839b          	addiw	t2,t2,1
    800036b0:	01839393          	slli	t2,t2,0x18
    800036b4:	10038393          	addi	t2,t2,256 # 1070100 <_start-0x7ef8ff00>
    800036b8:	7a729c63          	bne	t0,t2,80003e70 <fail>

00000000800036bc <test_334>:
    800036bc:	14e00193          	li	gp,334
    800036c0:	0005b283          	ld	t0,0(a1)
    800036c4:	00858593          	addi	a1,a1,8
    800036c8:	000103b7          	lui	t2,0x10
    800036cc:	3f93839b          	addiw	t2,t2,1017
    800036d0:	01439393          	slli	t2,t2,0x14
    800036d4:	eff38393          	addi	t2,t2,-257 # feff <_start-0x7fff0101>
    800036d8:	00c39393          	slli	t2,t2,0xc
    800036dc:	fff38393          	addi	t2,t2,-1
    800036e0:	78729863          	bne	t0,t2,80003e70 <fail>

00000000800036e4 <test_335>:
    800036e4:	14f00193          	li	gp,335
    800036e8:	0005b283          	ld	t0,0(a1)
    800036ec:	00858593          	addi	a1,a1,8
    800036f0:	010703b7          	lui	t2,0x1070
    800036f4:	0013839b          	addiw	t2,t2,1
    800036f8:	01839393          	slli	t2,t2,0x18
    800036fc:	10038393          	addi	t2,t2,256 # 1070100 <_start-0x7ef8ff00>
    80003700:	76729863          	bne	t0,t2,80003e70 <fail>

0000000080003704 <test_336>:
    80003704:	15000193          	li	gp,336
    80003708:	0005b283          	ld	t0,0(a1)
    8000370c:	00858593          	addi	a1,a1,8
    80003710:	000103b7          	lui	t2,0x10
    80003714:	3f93839b          	addiw	t2,t2,1017
    80003718:	01439393          	slli	t2,t2,0x14
    8000371c:	eff38393          	addi	t2,t2,-257 # feff <_start-0x7fff0101>
    80003720:	00c39393          	slli	t2,t2,0xc
    80003724:	fff38393          	addi	t2,t2,-1
    80003728:	74729463          	bne	t0,t2,80003e70 <fail>

000000008000372c <test_337>:
    8000372c:	15100193          	li	gp,337
    80003730:	0005b283          	ld	t0,0(a1)
    80003734:	00858593          	addi	a1,a1,8
    80003738:	010703b7          	lui	t2,0x1070
    8000373c:	0013839b          	addiw	t2,t2,1
    80003740:	01839393          	slli	t2,t2,0x18
    80003744:	10038393          	addi	t2,t2,256 # 1070100 <_start-0x7ef8ff00>
    80003748:	72729463          	bne	t0,t2,80003e70 <fail>

000000008000374c <test_338>:
    8000374c:	15200193          	li	gp,338
    80003750:	0005b283          	ld	t0,0(a1)
    80003754:	00858593          	addi	a1,a1,8
    80003758:	000103b7          	lui	t2,0x10
    8000375c:	3f93839b          	addiw	t2,t2,1017
    80003760:	01439393          	slli	t2,t2,0x14
    80003764:	eff38393          	addi	t2,t2,-257 # feff <_start-0x7fff0101>
    80003768:	00c39393          	slli	t2,t2,0xc
    8000376c:	fff38393          	addi	t2,t2,-1
    80003770:	70729063          	bne	t0,t2,80003e70 <fail>

0000000080003774 <test_339>:
    80003774:	15300193          	li	gp,339
    80003778:	0005b283          	ld	t0,0(a1)
    8000377c:	00858593          	addi	a1,a1,8
    80003780:	010703b7          	lui	t2,0x1070
    80003784:	0013839b          	addiw	t2,t2,1
    80003788:	01839393          	slli	t2,t2,0x18
    8000378c:	10038393          	addi	t2,t2,256 # 1070100 <_start-0x7ef8ff00>
    80003790:	6e729063          	bne	t0,t2,80003e70 <fail>

0000000080003794 <test_340>:
    80003794:	15400193          	li	gp,340
    80003798:	0005b283          	ld	t0,0(a1)
    8000379c:	00858593          	addi	a1,a1,8
    800037a0:	000103b7          	lui	t2,0x10
    800037a4:	3f93839b          	addiw	t2,t2,1017
    800037a8:	01439393          	slli	t2,t2,0x14
    800037ac:	eff38393          	addi	t2,t2,-257 # feff <_start-0x7fff0101>
    800037b0:	00c39393          	slli	t2,t2,0xc
    800037b4:	fff38393          	addi	t2,t2,-1
    800037b8:	6a729c63          	bne	t0,t2,80003e70 <fail>

00000000800037bc <test_341>:
    800037bc:	15500193          	li	gp,341
    800037c0:	0005b283          	ld	t0,0(a1)
    800037c4:	00858593          	addi	a1,a1,8
    800037c8:	010703b7          	lui	t2,0x1070
    800037cc:	0013839b          	addiw	t2,t2,1
    800037d0:	01839393          	slli	t2,t2,0x18
    800037d4:	10038393          	addi	t2,t2,256 # 1070100 <_start-0x7ef8ff00>
    800037d8:	68729c63          	bne	t0,t2,80003e70 <fail>

00000000800037dc <test_342>:
    800037dc:	15600193          	li	gp,342
    800037e0:	0005b283          	ld	t0,0(a1)
    800037e4:	00858593          	addi	a1,a1,8
    800037e8:	000103b7          	lui	t2,0x10
    800037ec:	3f93839b          	addiw	t2,t2,1017
    800037f0:	01439393          	slli	t2,t2,0x14
    800037f4:	eff38393          	addi	t2,t2,-257 # feff <_start-0x7fff0101>
    800037f8:	00c39393          	slli	t2,t2,0xc
    800037fc:	fff38393          	addi	t2,t2,-1
    80003800:	66729863          	bne	t0,t2,80003e70 <fail>

0000000080003804 <test_343>:
    80003804:	15700193          	li	gp,343
    80003808:	0005b283          	ld	t0,0(a1)
    8000380c:	00858593          	addi	a1,a1,8
    80003810:	010703b7          	lui	t2,0x1070
    80003814:	0013839b          	addiw	t2,t2,1
    80003818:	01839393          	slli	t2,t2,0x18
    8000381c:	10038393          	addi	t2,t2,256 # 1070100 <_start-0x7ef8ff00>
    80003820:	64729863          	bne	t0,t2,80003e70 <fail>

0000000080003824 <test_344>:
    80003824:	15800193          	li	gp,344
    80003828:	0005b283          	ld	t0,0(a1)
    8000382c:	00858593          	addi	a1,a1,8
    80003830:	000103b7          	lui	t2,0x10
    80003834:	3f93839b          	addiw	t2,t2,1017
    80003838:	01439393          	slli	t2,t2,0x14
    8000383c:	eff38393          	addi	t2,t2,-257 # feff <_start-0x7fff0101>
    80003840:	00c39393          	slli	t2,t2,0xc
    80003844:	fff38393          	addi	t2,t2,-1
    80003848:	62729463          	bne	t0,t2,80003e70 <fail>

000000008000384c <test_345>:
    8000384c:	15900193          	li	gp,345
    80003850:	0005b283          	ld	t0,0(a1)
    80003854:	00858593          	addi	a1,a1,8
    80003858:	010703b7          	lui	t2,0x1070
    8000385c:	0013839b          	addiw	t2,t2,1
    80003860:	01839393          	slli	t2,t2,0x18
    80003864:	10038393          	addi	t2,t2,256 # 1070100 <_start-0x7ef8ff00>
    80003868:	60729463          	bne	t0,t2,80003e70 <fail>

000000008000386c <test_346>:
    8000386c:	15a00193          	li	gp,346
    80003870:	0005b283          	ld	t0,0(a1)
    80003874:	00858593          	addi	a1,a1,8
    80003878:	000103b7          	lui	t2,0x10
    8000387c:	3f93839b          	addiw	t2,t2,1017
    80003880:	01439393          	slli	t2,t2,0x14
    80003884:	eff38393          	addi	t2,t2,-257 # feff <_start-0x7fff0101>
    80003888:	00c39393          	slli	t2,t2,0xc
    8000388c:	fff38393          	addi	t2,t2,-1
    80003890:	5e729063          	bne	t0,t2,80003e70 <fail>

0000000080003894 <test_347>:
    80003894:	15b00193          	li	gp,347
    80003898:	0005b283          	ld	t0,0(a1)
    8000389c:	00858593          	addi	a1,a1,8
    800038a0:	010703b7          	lui	t2,0x1070
    800038a4:	0013839b          	addiw	t2,t2,1
    800038a8:	01839393          	slli	t2,t2,0x18
    800038ac:	10038393          	addi	t2,t2,256 # 1070100 <_start-0x7ef8ff00>
    800038b0:	5c729063          	bne	t0,t2,80003e70 <fail>

00000000800038b4 <test_348>:
    800038b4:	15c00193          	li	gp,348
    800038b8:	0005b283          	ld	t0,0(a1)
    800038bc:	00858593          	addi	a1,a1,8
    800038c0:	000103b7          	lui	t2,0x10
    800038c4:	3f93839b          	addiw	t2,t2,1017
    800038c8:	01439393          	slli	t2,t2,0x14
    800038cc:	eff38393          	addi	t2,t2,-257 # feff <_start-0x7fff0101>
    800038d0:	00c39393          	slli	t2,t2,0xc
    800038d4:	fff38393          	addi	t2,t2,-1
    800038d8:	58729c63          	bne	t0,t2,80003e70 <fail>

00000000800038dc <test_349>:
    800038dc:	15d00193          	li	gp,349
    800038e0:	0005b283          	ld	t0,0(a1)
    800038e4:	00858593          	addi	a1,a1,8
    800038e8:	010703b7          	lui	t2,0x1070
    800038ec:	0013839b          	addiw	t2,t2,1
    800038f0:	01839393          	slli	t2,t2,0x18
    800038f4:	10038393          	addi	t2,t2,256 # 1070100 <_start-0x7ef8ff00>
    800038f8:	56729c63          	bne	t0,t2,80003e70 <fail>

00000000800038fc <test_350>:
    800038fc:	15e00193          	li	gp,350
    80003900:	0005b283          	ld	t0,0(a1)
    80003904:	00858593          	addi	a1,a1,8
    80003908:	000103b7          	lui	t2,0x10
    8000390c:	3f93839b          	addiw	t2,t2,1017
    80003910:	01439393          	slli	t2,t2,0x14
    80003914:	eff38393          	addi	t2,t2,-257 # feff <_start-0x7fff0101>
    80003918:	00c39393          	slli	t2,t2,0xc
    8000391c:	fff38393          	addi	t2,t2,-1
    80003920:	54729863          	bne	t0,t2,80003e70 <fail>

0000000080003924 <test_351>:
    80003924:	15f00193          	li	gp,351
    80003928:	0005b283          	ld	t0,0(a1)
    8000392c:	00858593          	addi	a1,a1,8
    80003930:	010703b7          	lui	t2,0x1070
    80003934:	0013839b          	addiw	t2,t2,1
    80003938:	01839393          	slli	t2,t2,0x18
    8000393c:	10038393          	addi	t2,t2,256 # 1070100 <_start-0x7ef8ff00>
    80003940:	52729863          	bne	t0,t2,80003e70 <fail>

0000000080003944 <test_352>:
    80003944:	16000193          	li	gp,352
    80003948:	0005b283          	ld	t0,0(a1)
    8000394c:	00858593          	addi	a1,a1,8
    80003950:	000103b7          	lui	t2,0x10
    80003954:	3f93839b          	addiw	t2,t2,1017
    80003958:	01439393          	slli	t2,t2,0x14
    8000395c:	eff38393          	addi	t2,t2,-257 # feff <_start-0x7fff0101>
    80003960:	00c39393          	slli	t2,t2,0xc
    80003964:	fff38393          	addi	t2,t2,-1
    80003968:	50729463          	bne	t0,t2,80003e70 <fail>

000000008000396c <test_353>:
    8000396c:	16100193          	li	gp,353
    80003970:	0005b283          	ld	t0,0(a1)
    80003974:	00858593          	addi	a1,a1,8
    80003978:	010703b7          	lui	t2,0x1070
    8000397c:	0013839b          	addiw	t2,t2,1
    80003980:	01839393          	slli	t2,t2,0x18
    80003984:	10038393          	addi	t2,t2,256 # 1070100 <_start-0x7ef8ff00>
    80003988:	4e729463          	bne	t0,t2,80003e70 <fail>
    8000398c:	fff00293          	li	t0,-1
    80003990:	0c22f357          	vsetvli	t1,t0,e8,m4,ta,ma
    80003994:	00002617          	auipc	a2,0x2
    80003998:	87c60613          	addi	a2,a2,-1924 # 80005210 <tdat>
    8000399c:	02060807          	vle8.v	v16,(a2)
    800039a0:	0c32f357          	vsetvli	t1,t0,e8,m8,ta,ma
    800039a4:	02060407          	vle8.v	v8,(a2)
    800039a8:	00002617          	auipc	a2,0x2
    800039ac:	87060613          	addi	a2,a2,-1936 # 80005218 <tdat+0x8>
    800039b0:	0c22f357          	vsetvli	t1,t0,e8,m4,ta,ma
    800039b4:	02060c07          	vle8.v	v24,(a2)
    800039b8:	fff00293          	li	t0,-1
    800039bc:	0c02f357          	vsetvli	t1,t0,e8,m1,ta,ma
    800039c0:	00002697          	auipc	a3,0x2
    800039c4:	95868693          	addi	a3,a3,-1704 # 80005318 <mask>
    800039c8:	02068007          	vle8.v	v0,(a3)
    800039cc:	08000293          	li	t0,128
    800039d0:	0c22f357          	vsetvli	t1,t0,e8,m4,ta,ma
    800039d4:	c10c0457          	vwredsumu.vs	v8,v16,v24,v0.t
    800039d8:	fff00293          	li	t0,-1
    800039dc:	0c32f357          	vsetvli	t1,t0,e8,m8,ta,ma
    800039e0:	00001597          	auipc	a1,0x1
    800039e4:	62058593          	addi	a1,a1,1568 # 80005000 <begin_signature>
    800039e8:	02058427          	vse8.v	v8,(a1)

00000000800039ec <test_354>:
    800039ec:	16200193          	li	gp,354
    800039f0:	0005b283          	ld	t0,0(a1)
    800039f4:	00858593          	addi	a1,a1,8
    800039f8:	000103b7          	lui	t2,0x10
    800039fc:	3f93839b          	addiw	t2,t2,1017
    80003a00:	01339393          	slli	t2,t2,0x13
    80003a04:	f7938393          	addi	t2,t2,-135 # ff79 <_start-0x7fff0087>
    80003a08:	00d39393          	slli	t2,t2,0xd
    80003a0c:	84038393          	addi	t2,t2,-1984
    80003a10:	46729063          	bne	t0,t2,80003e70 <fail>

0000000080003a14 <test_355>:
    80003a14:	16300193          	li	gp,355
    80003a18:	0005b283          	ld	t0,0(a1)
    80003a1c:	00858593          	addi	a1,a1,8
    80003a20:	010703b7          	lui	t2,0x1070
    80003a24:	0013839b          	addiw	t2,t2,1
    80003a28:	01839393          	slli	t2,t2,0x18
    80003a2c:	10038393          	addi	t2,t2,256 # 1070100 <_start-0x7ef8ff00>
    80003a30:	44729063          	bne	t0,t2,80003e70 <fail>

0000000080003a34 <test_356>:
    80003a34:	16400193          	li	gp,356
    80003a38:	0005b283          	ld	t0,0(a1)
    80003a3c:	00858593          	addi	a1,a1,8
    80003a40:	000103b7          	lui	t2,0x10
    80003a44:	3f93839b          	addiw	t2,t2,1017
    80003a48:	01439393          	slli	t2,t2,0x14
    80003a4c:	eff38393          	addi	t2,t2,-257 # feff <_start-0x7fff0101>
    80003a50:	00c39393          	slli	t2,t2,0xc
    80003a54:	fff38393          	addi	t2,t2,-1
    80003a58:	40729c63          	bne	t0,t2,80003e70 <fail>

0000000080003a5c <test_357>:
    80003a5c:	16500193          	li	gp,357
    80003a60:	0005b283          	ld	t0,0(a1)
    80003a64:	00858593          	addi	a1,a1,8
    80003a68:	010703b7          	lui	t2,0x1070
    80003a6c:	0013839b          	addiw	t2,t2,1
    80003a70:	01839393          	slli	t2,t2,0x18
    80003a74:	10038393          	addi	t2,t2,256 # 1070100 <_start-0x7ef8ff00>
    80003a78:	3e729c63          	bne	t0,t2,80003e70 <fail>

0000000080003a7c <test_358>:
    80003a7c:	16600193          	li	gp,358
    80003a80:	0005b283          	ld	t0,0(a1)
    80003a84:	00858593          	addi	a1,a1,8
    80003a88:	000103b7          	lui	t2,0x10
    80003a8c:	3f93839b          	addiw	t2,t2,1017
    80003a90:	01439393          	slli	t2,t2,0x14
    80003a94:	eff38393          	addi	t2,t2,-257 # feff <_start-0x7fff0101>
    80003a98:	00c39393          	slli	t2,t2,0xc
    80003a9c:	fff38393          	addi	t2,t2,-1
    80003aa0:	3c729863          	bne	t0,t2,80003e70 <fail>

0000000080003aa4 <test_359>:
    80003aa4:	16700193          	li	gp,359
    80003aa8:	0005b283          	ld	t0,0(a1)
    80003aac:	00858593          	addi	a1,a1,8
    80003ab0:	010703b7          	lui	t2,0x1070
    80003ab4:	0013839b          	addiw	t2,t2,1
    80003ab8:	01839393          	slli	t2,t2,0x18
    80003abc:	10038393          	addi	t2,t2,256 # 1070100 <_start-0x7ef8ff00>
    80003ac0:	3a729863          	bne	t0,t2,80003e70 <fail>

0000000080003ac4 <test_360>:
    80003ac4:	16800193          	li	gp,360
    80003ac8:	0005b283          	ld	t0,0(a1)
    80003acc:	00858593          	addi	a1,a1,8
    80003ad0:	000103b7          	lui	t2,0x10
    80003ad4:	3f93839b          	addiw	t2,t2,1017
    80003ad8:	01439393          	slli	t2,t2,0x14
    80003adc:	eff38393          	addi	t2,t2,-257 # feff <_start-0x7fff0101>
    80003ae0:	00c39393          	slli	t2,t2,0xc
    80003ae4:	fff38393          	addi	t2,t2,-1
    80003ae8:	38729463          	bne	t0,t2,80003e70 <fail>

0000000080003aec <test_361>:
    80003aec:	16900193          	li	gp,361
    80003af0:	0005b283          	ld	t0,0(a1)
    80003af4:	00858593          	addi	a1,a1,8
    80003af8:	010703b7          	lui	t2,0x1070
    80003afc:	0013839b          	addiw	t2,t2,1
    80003b00:	01839393          	slli	t2,t2,0x18
    80003b04:	10038393          	addi	t2,t2,256 # 1070100 <_start-0x7ef8ff00>
    80003b08:	36729463          	bne	t0,t2,80003e70 <fail>

0000000080003b0c <test_362>:
    80003b0c:	16a00193          	li	gp,362
    80003b10:	0005b283          	ld	t0,0(a1)
    80003b14:	00858593          	addi	a1,a1,8
    80003b18:	000103b7          	lui	t2,0x10
    80003b1c:	3f93839b          	addiw	t2,t2,1017
    80003b20:	01439393          	slli	t2,t2,0x14
    80003b24:	eff38393          	addi	t2,t2,-257 # feff <_start-0x7fff0101>
    80003b28:	00c39393          	slli	t2,t2,0xc
    80003b2c:	fff38393          	addi	t2,t2,-1
    80003b30:	34729063          	bne	t0,t2,80003e70 <fail>

0000000080003b34 <test_363>:
    80003b34:	16b00193          	li	gp,363
    80003b38:	0005b283          	ld	t0,0(a1)
    80003b3c:	00858593          	addi	a1,a1,8
    80003b40:	010703b7          	lui	t2,0x1070
    80003b44:	0013839b          	addiw	t2,t2,1
    80003b48:	01839393          	slli	t2,t2,0x18
    80003b4c:	10038393          	addi	t2,t2,256 # 1070100 <_start-0x7ef8ff00>
    80003b50:	32729063          	bne	t0,t2,80003e70 <fail>

0000000080003b54 <test_364>:
    80003b54:	16c00193          	li	gp,364
    80003b58:	0005b283          	ld	t0,0(a1)
    80003b5c:	00858593          	addi	a1,a1,8
    80003b60:	000103b7          	lui	t2,0x10
    80003b64:	3f93839b          	addiw	t2,t2,1017
    80003b68:	01439393          	slli	t2,t2,0x14
    80003b6c:	eff38393          	addi	t2,t2,-257 # feff <_start-0x7fff0101>
    80003b70:	00c39393          	slli	t2,t2,0xc
    80003b74:	fff38393          	addi	t2,t2,-1
    80003b78:	2e729c63          	bne	t0,t2,80003e70 <fail>

0000000080003b7c <test_365>:
    80003b7c:	16d00193          	li	gp,365
    80003b80:	0005b283          	ld	t0,0(a1)
    80003b84:	00858593          	addi	a1,a1,8
    80003b88:	010703b7          	lui	t2,0x1070
    80003b8c:	0013839b          	addiw	t2,t2,1
    80003b90:	01839393          	slli	t2,t2,0x18
    80003b94:	10038393          	addi	t2,t2,256 # 1070100 <_start-0x7ef8ff00>
    80003b98:	2c729c63          	bne	t0,t2,80003e70 <fail>

0000000080003b9c <test_366>:
    80003b9c:	16e00193          	li	gp,366
    80003ba0:	0005b283          	ld	t0,0(a1)
    80003ba4:	00858593          	addi	a1,a1,8
    80003ba8:	000103b7          	lui	t2,0x10
    80003bac:	3f93839b          	addiw	t2,t2,1017
    80003bb0:	01439393          	slli	t2,t2,0x14
    80003bb4:	eff38393          	addi	t2,t2,-257 # feff <_start-0x7fff0101>
    80003bb8:	00c39393          	slli	t2,t2,0xc
    80003bbc:	fff38393          	addi	t2,t2,-1
    80003bc0:	2a729863          	bne	t0,t2,80003e70 <fail>

0000000080003bc4 <test_367>:
    80003bc4:	16f00193          	li	gp,367
    80003bc8:	0005b283          	ld	t0,0(a1)
    80003bcc:	00858593          	addi	a1,a1,8
    80003bd0:	010703b7          	lui	t2,0x1070
    80003bd4:	0013839b          	addiw	t2,t2,1
    80003bd8:	01839393          	slli	t2,t2,0x18
    80003bdc:	10038393          	addi	t2,t2,256 # 1070100 <_start-0x7ef8ff00>
    80003be0:	28729863          	bne	t0,t2,80003e70 <fail>

0000000080003be4 <test_368>:
    80003be4:	17000193          	li	gp,368
    80003be8:	0005b283          	ld	t0,0(a1)
    80003bec:	00858593          	addi	a1,a1,8
    80003bf0:	000103b7          	lui	t2,0x10
    80003bf4:	3f93839b          	addiw	t2,t2,1017
    80003bf8:	01439393          	slli	t2,t2,0x14
    80003bfc:	eff38393          	addi	t2,t2,-257 # feff <_start-0x7fff0101>
    80003c00:	00c39393          	slli	t2,t2,0xc
    80003c04:	fff38393          	addi	t2,t2,-1
    80003c08:	26729463          	bne	t0,t2,80003e70 <fail>

0000000080003c0c <test_369>:
    80003c0c:	17100193          	li	gp,369
    80003c10:	0005b283          	ld	t0,0(a1)
    80003c14:	00858593          	addi	a1,a1,8
    80003c18:	010703b7          	lui	t2,0x1070
    80003c1c:	0013839b          	addiw	t2,t2,1
    80003c20:	01839393          	slli	t2,t2,0x18
    80003c24:	10038393          	addi	t2,t2,256 # 1070100 <_start-0x7ef8ff00>
    80003c28:	24729463          	bne	t0,t2,80003e70 <fail>

0000000080003c2c <test_370>:
    80003c2c:	17200193          	li	gp,370
    80003c30:	0005b283          	ld	t0,0(a1)
    80003c34:	00858593          	addi	a1,a1,8
    80003c38:	000103b7          	lui	t2,0x10
    80003c3c:	3f93839b          	addiw	t2,t2,1017
    80003c40:	01439393          	slli	t2,t2,0x14
    80003c44:	eff38393          	addi	t2,t2,-257 # feff <_start-0x7fff0101>
    80003c48:	00c39393          	slli	t2,t2,0xc
    80003c4c:	fff38393          	addi	t2,t2,-1
    80003c50:	22729063          	bne	t0,t2,80003e70 <fail>

0000000080003c54 <test_371>:
    80003c54:	17300193          	li	gp,371
    80003c58:	0005b283          	ld	t0,0(a1)
    80003c5c:	00858593          	addi	a1,a1,8
    80003c60:	010703b7          	lui	t2,0x1070
    80003c64:	0013839b          	addiw	t2,t2,1
    80003c68:	01839393          	slli	t2,t2,0x18
    80003c6c:	10038393          	addi	t2,t2,256 # 1070100 <_start-0x7ef8ff00>
    80003c70:	20729063          	bne	t0,t2,80003e70 <fail>

0000000080003c74 <test_372>:
    80003c74:	17400193          	li	gp,372
    80003c78:	0005b283          	ld	t0,0(a1)
    80003c7c:	00858593          	addi	a1,a1,8
    80003c80:	000103b7          	lui	t2,0x10
    80003c84:	3f93839b          	addiw	t2,t2,1017
    80003c88:	01439393          	slli	t2,t2,0x14
    80003c8c:	eff38393          	addi	t2,t2,-257 # feff <_start-0x7fff0101>
    80003c90:	00c39393          	slli	t2,t2,0xc
    80003c94:	fff38393          	addi	t2,t2,-1
    80003c98:	1c729c63          	bne	t0,t2,80003e70 <fail>

0000000080003c9c <test_373>:
    80003c9c:	17500193          	li	gp,373
    80003ca0:	0005b283          	ld	t0,0(a1)
    80003ca4:	00858593          	addi	a1,a1,8
    80003ca8:	010703b7          	lui	t2,0x1070
    80003cac:	0013839b          	addiw	t2,t2,1
    80003cb0:	01839393          	slli	t2,t2,0x18
    80003cb4:	10038393          	addi	t2,t2,256 # 1070100 <_start-0x7ef8ff00>
    80003cb8:	1a729c63          	bne	t0,t2,80003e70 <fail>

0000000080003cbc <test_374>:
    80003cbc:	17600193          	li	gp,374
    80003cc0:	0005b283          	ld	t0,0(a1)
    80003cc4:	00858593          	addi	a1,a1,8
    80003cc8:	000103b7          	lui	t2,0x10
    80003ccc:	3f93839b          	addiw	t2,t2,1017
    80003cd0:	01439393          	slli	t2,t2,0x14
    80003cd4:	eff38393          	addi	t2,t2,-257 # feff <_start-0x7fff0101>
    80003cd8:	00c39393          	slli	t2,t2,0xc
    80003cdc:	fff38393          	addi	t2,t2,-1
    80003ce0:	18729863          	bne	t0,t2,80003e70 <fail>

0000000080003ce4 <test_375>:
    80003ce4:	17700193          	li	gp,375
    80003ce8:	0005b283          	ld	t0,0(a1)
    80003cec:	00858593          	addi	a1,a1,8
    80003cf0:	010703b7          	lui	t2,0x1070
    80003cf4:	0013839b          	addiw	t2,t2,1
    80003cf8:	01839393          	slli	t2,t2,0x18
    80003cfc:	10038393          	addi	t2,t2,256 # 1070100 <_start-0x7ef8ff00>
    80003d00:	16729863          	bne	t0,t2,80003e70 <fail>

0000000080003d04 <test_376>:
    80003d04:	17800193          	li	gp,376
    80003d08:	0005b283          	ld	t0,0(a1)
    80003d0c:	00858593          	addi	a1,a1,8
    80003d10:	000103b7          	lui	t2,0x10
    80003d14:	3f93839b          	addiw	t2,t2,1017
    80003d18:	01439393          	slli	t2,t2,0x14
    80003d1c:	eff38393          	addi	t2,t2,-257 # feff <_start-0x7fff0101>
    80003d20:	00c39393          	slli	t2,t2,0xc
    80003d24:	fff38393          	addi	t2,t2,-1
    80003d28:	14729463          	bne	t0,t2,80003e70 <fail>

0000000080003d2c <test_377>:
    80003d2c:	17900193          	li	gp,377
    80003d30:	0005b283          	ld	t0,0(a1)
    80003d34:	00858593          	addi	a1,a1,8
    80003d38:	010703b7          	lui	t2,0x1070
    80003d3c:	0013839b          	addiw	t2,t2,1
    80003d40:	01839393          	slli	t2,t2,0x18
    80003d44:	10038393          	addi	t2,t2,256 # 1070100 <_start-0x7ef8ff00>
    80003d48:	12729463          	bne	t0,t2,80003e70 <fail>

0000000080003d4c <test_378>:
    80003d4c:	17a00193          	li	gp,378
    80003d50:	0005b283          	ld	t0,0(a1)
    80003d54:	00858593          	addi	a1,a1,8
    80003d58:	000103b7          	lui	t2,0x10
    80003d5c:	3f93839b          	addiw	t2,t2,1017
    80003d60:	01439393          	slli	t2,t2,0x14
    80003d64:	eff38393          	addi	t2,t2,-257 # feff <_start-0x7fff0101>
    80003d68:	00c39393          	slli	t2,t2,0xc
    80003d6c:	fff38393          	addi	t2,t2,-1
    80003d70:	10729063          	bne	t0,t2,80003e70 <fail>

0000000080003d74 <test_379>:
    80003d74:	17b00193          	li	gp,379
    80003d78:	0005b283          	ld	t0,0(a1)
    80003d7c:	00858593          	addi	a1,a1,8
    80003d80:	010703b7          	lui	t2,0x1070
    80003d84:	0013839b          	addiw	t2,t2,1
    80003d88:	01839393          	slli	t2,t2,0x18
    80003d8c:	10038393          	addi	t2,t2,256 # 1070100 <_start-0x7ef8ff00>
    80003d90:	0e729063          	bne	t0,t2,80003e70 <fail>

0000000080003d94 <test_380>:
    80003d94:	17c00193          	li	gp,380
    80003d98:	0005b283          	ld	t0,0(a1)
    80003d9c:	00858593          	addi	a1,a1,8
    80003da0:	000103b7          	lui	t2,0x10
    80003da4:	3f93839b          	addiw	t2,t2,1017
    80003da8:	01439393          	slli	t2,t2,0x14
    80003dac:	eff38393          	addi	t2,t2,-257 # feff <_start-0x7fff0101>
    80003db0:	00c39393          	slli	t2,t2,0xc
    80003db4:	fff38393          	addi	t2,t2,-1
    80003db8:	0a729c63          	bne	t0,t2,80003e70 <fail>

0000000080003dbc <test_381>:
    80003dbc:	17d00193          	li	gp,381
    80003dc0:	0005b283          	ld	t0,0(a1)
    80003dc4:	00858593          	addi	a1,a1,8
    80003dc8:	010703b7          	lui	t2,0x1070
    80003dcc:	0013839b          	addiw	t2,t2,1
    80003dd0:	01839393          	slli	t2,t2,0x18
    80003dd4:	10038393          	addi	t2,t2,256 # 1070100 <_start-0x7ef8ff00>
    80003dd8:	08729c63          	bne	t0,t2,80003e70 <fail>

0000000080003ddc <test_382>:
    80003ddc:	17e00193          	li	gp,382
    80003de0:	0005b283          	ld	t0,0(a1)
    80003de4:	00858593          	addi	a1,a1,8
    80003de8:	000103b7          	lui	t2,0x10
    80003dec:	3f93839b          	addiw	t2,t2,1017
    80003df0:	01439393          	slli	t2,t2,0x14
    80003df4:	eff38393          	addi	t2,t2,-257 # feff <_start-0x7fff0101>
    80003df8:	00c39393          	slli	t2,t2,0xc
    80003dfc:	fff38393          	addi	t2,t2,-1
    80003e00:	06729863          	bne	t0,t2,80003e70 <fail>

0000000080003e04 <test_383>:
    80003e04:	17f00193          	li	gp,383
    80003e08:	0005b283          	ld	t0,0(a1)
    80003e0c:	00858593          	addi	a1,a1,8
    80003e10:	010703b7          	lui	t2,0x1070
    80003e14:	0013839b          	addiw	t2,t2,1
    80003e18:	01839393          	slli	t2,t2,0x18
    80003e1c:	10038393          	addi	t2,t2,256 # 1070100 <_start-0x7ef8ff00>
    80003e20:	04729863          	bne	t0,t2,80003e70 <fail>

0000000080003e24 <test_384>:
    80003e24:	18000193          	li	gp,384
    80003e28:	0005b283          	ld	t0,0(a1)
    80003e2c:	00858593          	addi	a1,a1,8
    80003e30:	000103b7          	lui	t2,0x10
    80003e34:	3f93839b          	addiw	t2,t2,1017
    80003e38:	01439393          	slli	t2,t2,0x14
    80003e3c:	eff38393          	addi	t2,t2,-257 # feff <_start-0x7fff0101>
    80003e40:	00c39393          	slli	t2,t2,0xc
    80003e44:	fff38393          	addi	t2,t2,-1
    80003e48:	02729463          	bne	t0,t2,80003e70 <fail>

0000000080003e4c <test_385>:
    80003e4c:	18100193          	li	gp,385
    80003e50:	0005b283          	ld	t0,0(a1)
    80003e54:	00858593          	addi	a1,a1,8
    80003e58:	010703b7          	lui	t2,0x1070
    80003e5c:	0013839b          	addiw	t2,t2,1
    80003e60:	01839393          	slli	t2,t2,0x18
    80003e64:	10038393          	addi	t2,t2,256 # 1070100 <_start-0x7ef8ff00>
    80003e68:	00729463          	bne	t0,t2,80003e70 <fail>
    80003e6c:	00301a63          	bne	zero,gp,80003e80 <pass>

0000000080003e70 <fail>:
    80003e70:	0ff0000f          	fence
    80003e74:	00018513          	mv	a0,gp
    80003e78:	05d00893          	li	a7,93
    80003e7c:	00000073          	ecall

0000000080003e80 <pass>:
    80003e80:	0ff0000f          	fence
    80003e84:	00000513          	li	a0,0
    80003e88:	05d00893          	li	a7,93
    80003e8c:	00000073          	ecall
    80003e90:	0000                	unimp
    80003e92:	0000                	unimp
    80003e94:	0000                	unimp
    80003e96:	0000                	unimp
    80003e98:	0000                	unimp
    80003e9a:	0000                	unimp
    80003e9c:	0000                	unimp
    80003e9e:	0000                	unimp
    80003ea0:	0000                	unimp
    80003ea2:	0000                	unimp
    80003ea4:	0000                	unimp
    80003ea6:	0000                	unimp
    80003ea8:	0000                	unimp
    80003eaa:	0000                	unimp
    80003eac:	0000                	unimp
    80003eae:	0000                	unimp
    80003eb0:	0000                	unimp
    80003eb2:	0000                	unimp
    80003eb4:	0000                	unimp
    80003eb6:	0000                	unimp
    80003eb8:	0000                	unimp
    80003eba:	0000                	unimp
    80003ebc:	0000                	unimp
    80003ebe:	0000                	unimp
    80003ec0:	0000                	unimp
    80003ec2:	0000                	unimp
