
rv64uv-ps-vwredsumu.vs_LMUL1SEW8:     file format elf64-littleriscv


Disassembly of section .text.init:

0000000080000000 <_start>:
    80000000:	00000297          	auipc	t0,0x0
    80000004:	00c28293          	addi	t0,t0,12 # 8000000c <_start+0xc>
    80000008:	00028067          	jr	t0
    8000000c:	fff00293          	li	t0,-1
    80000010:	0c02f357          	vsetvli	t1,t0,e8,m1,ta,ma
    80000014:	00003617          	auipc	a2,0x3
    80000018:	07c60613          	addi	a2,a2,124 # 80003090 <tdat>
    8000001c:	02060207          	vle8.v	v4,(a2)
    80000020:	0c12f357          	vsetvli	t1,t0,e8,m2,ta,ma
    80000024:	02060107          	vle8.v	v2,(a2)
    80000028:	00003617          	auipc	a2,0x3
    8000002c:	07060613          	addi	a2,a2,112 # 80003098 <tdat+0x8>
    80000030:	0c02f357          	vsetvli	t1,t0,e8,m1,ta,ma
    80000034:	02060307          	vle8.v	v6,(a2)
    80000038:	01000293          	li	t0,16
    8000003c:	0c02f357          	vsetvli	t1,t0,e8,m1,ta,ma
    80000040:	c2430157          	vwredsumu.vs	v2,v4,v6
    80000044:	fff00293          	li	t0,-1
    80000048:	0c12f357          	vsetvli	t1,t0,e8,m2,ta,ma
    8000004c:	00003597          	auipc	a1,0x3
    80000050:	fb458593          	addi	a1,a1,-76 # 80003000 <begin_signature>
    80000054:	02058127          	vse8.v	v2,(a1)

0000000080000058 <test_2>:
    80000058:	00200193          	li	gp,2
    8000005c:	0005b283          	ld	t0,0(a1)
    80000060:	00858593          	addi	a1,a1,8
    80000064:	000103b7          	lui	t2,0x10
    80000068:	3f93839b          	addiw	t2,t2,1017
    8000006c:	01039393          	slli	t2,t2,0x10
    80000070:	fef38393          	addi	t2,t2,-17 # ffef <_start-0x7fff0011>
    80000074:	01039393          	slli	t2,t2,0x10
    80000078:	5e238393          	addi	t2,t2,1506
    8000007c:	00728463          	beq	t0,t2,80000084 <test_3>
    80000080:	1380106f          	j	800011b8 <fail>

0000000080000084 <test_3>:
    80000084:	00300193          	li	gp,3
    80000088:	0005b283          	ld	t0,0(a1)
    8000008c:	00858593          	addi	a1,a1,8
    80000090:	010703b7          	lui	t2,0x1070
    80000094:	0013839b          	addiw	t2,t2,1
    80000098:	01839393          	slli	t2,t2,0x18
    8000009c:	10038393          	addi	t2,t2,256 # 1070100 <_start-0x7ef8ff00>
    800000a0:	00728463          	beq	t0,t2,800000a8 <test_4>
    800000a4:	1140106f          	j	800011b8 <fail>

00000000800000a8 <test_4>:
    800000a8:	00400193          	li	gp,4
    800000ac:	0005b283          	ld	t0,0(a1)
    800000b0:	00858593          	addi	a1,a1,8
    800000b4:	000103b7          	lui	t2,0x10
    800000b8:	3f93839b          	addiw	t2,t2,1017
    800000bc:	01439393          	slli	t2,t2,0x14
    800000c0:	eff38393          	addi	t2,t2,-257 # feff <_start-0x7fff0101>
    800000c4:	00c39393          	slli	t2,t2,0xc
    800000c8:	fff38393          	addi	t2,t2,-1
    800000cc:	00728463          	beq	t0,t2,800000d4 <test_5>
    800000d0:	0e80106f          	j	800011b8 <fail>

00000000800000d4 <test_5>:
    800000d4:	00500193          	li	gp,5
    800000d8:	0005b283          	ld	t0,0(a1)
    800000dc:	00858593          	addi	a1,a1,8
    800000e0:	010703b7          	lui	t2,0x1070
    800000e4:	0013839b          	addiw	t2,t2,1
    800000e8:	01839393          	slli	t2,t2,0x18
    800000ec:	10038393          	addi	t2,t2,256 # 1070100 <_start-0x7ef8ff00>
    800000f0:	00728463          	beq	t0,t2,800000f8 <test_6>
    800000f4:	0c40106f          	j	800011b8 <fail>

00000000800000f8 <test_6>:
    800000f8:	00600193          	li	gp,6
    800000fc:	0005b283          	ld	t0,0(a1)
    80000100:	00858593          	addi	a1,a1,8
    80000104:	000103b7          	lui	t2,0x10
    80000108:	3f93839b          	addiw	t2,t2,1017
    8000010c:	01439393          	slli	t2,t2,0x14
    80000110:	eff38393          	addi	t2,t2,-257 # feff <_start-0x7fff0101>
    80000114:	00c39393          	slli	t2,t2,0xc
    80000118:	fff38393          	addi	t2,t2,-1
    8000011c:	00728463          	beq	t0,t2,80000124 <test_7>
    80000120:	0980106f          	j	800011b8 <fail>

0000000080000124 <test_7>:
    80000124:	00700193          	li	gp,7
    80000128:	0005b283          	ld	t0,0(a1)
    8000012c:	00858593          	addi	a1,a1,8
    80000130:	010703b7          	lui	t2,0x1070
    80000134:	0013839b          	addiw	t2,t2,1
    80000138:	01839393          	slli	t2,t2,0x18
    8000013c:	10038393          	addi	t2,t2,256 # 1070100 <_start-0x7ef8ff00>
    80000140:	00728463          	beq	t0,t2,80000148 <test_8>
    80000144:	0740106f          	j	800011b8 <fail>

0000000080000148 <test_8>:
    80000148:	00800193          	li	gp,8
    8000014c:	0005b283          	ld	t0,0(a1)
    80000150:	00858593          	addi	a1,a1,8
    80000154:	000103b7          	lui	t2,0x10
    80000158:	3f93839b          	addiw	t2,t2,1017
    8000015c:	01439393          	slli	t2,t2,0x14
    80000160:	eff38393          	addi	t2,t2,-257 # feff <_start-0x7fff0101>
    80000164:	00c39393          	slli	t2,t2,0xc
    80000168:	fff38393          	addi	t2,t2,-1
    8000016c:	00728463          	beq	t0,t2,80000174 <test_9>
    80000170:	0480106f          	j	800011b8 <fail>

0000000080000174 <test_9>:
    80000174:	00900193          	li	gp,9
    80000178:	0005b283          	ld	t0,0(a1)
    8000017c:	00858593          	addi	a1,a1,8
    80000180:	010703b7          	lui	t2,0x1070
    80000184:	0013839b          	addiw	t2,t2,1
    80000188:	01839393          	slli	t2,t2,0x18
    8000018c:	10038393          	addi	t2,t2,256 # 1070100 <_start-0x7ef8ff00>
    80000190:	00728463          	beq	t0,t2,80000198 <test_9+0x24>
    80000194:	0240106f          	j	800011b8 <fail>
    80000198:	fff00293          	li	t0,-1
    8000019c:	0c02f357          	vsetvli	t1,t0,e8,m1,ta,ma
    800001a0:	00003617          	auipc	a2,0x3
    800001a4:	ef060613          	addi	a2,a2,-272 # 80003090 <tdat>
    800001a8:	02060207          	vle8.v	v4,(a2)
    800001ac:	0c12f357          	vsetvli	t1,t0,e8,m2,ta,ma
    800001b0:	02060107          	vle8.v	v2,(a2)
    800001b4:	00003617          	auipc	a2,0x3
    800001b8:	ee460613          	addi	a2,a2,-284 # 80003098 <tdat+0x8>
    800001bc:	0c02f357          	vsetvli	t1,t0,e8,m1,ta,ma
    800001c0:	02060307          	vle8.v	v6,(a2)
    800001c4:	01000293          	li	t0,16
    800001c8:	0802f357          	vsetvli	t1,t0,e8,m1,tu,ma
    800001cc:	c2430157          	vwredsumu.vs	v2,v4,v6
    800001d0:	fff00293          	li	t0,-1
    800001d4:	0c12f357          	vsetvli	t1,t0,e8,m2,ta,ma
    800001d8:	00003597          	auipc	a1,0x3
    800001dc:	e2858593          	addi	a1,a1,-472 # 80003000 <begin_signature>
    800001e0:	02058127          	vse8.v	v2,(a1)

00000000800001e4 <test_10>:
    800001e4:	00a00193          	li	gp,10
    800001e8:	0005b283          	ld	t0,0(a1)
    800001ec:	00858593          	addi	a1,a1,8
    800001f0:	000103b7          	lui	t2,0x10
    800001f4:	3f93839b          	addiw	t2,t2,1017
    800001f8:	01039393          	slli	t2,t2,0x10
    800001fc:	fef38393          	addi	t2,t2,-17 # ffef <_start-0x7fff0011>
    80000200:	01039393          	slli	t2,t2,0x10
    80000204:	5e238393          	addi	t2,t2,1506
    80000208:	7a7298e3          	bne	t0,t2,800011b8 <fail>

000000008000020c <test_11>:
    8000020c:	00b00193          	li	gp,11
    80000210:	0005b283          	ld	t0,0(a1)
    80000214:	00858593          	addi	a1,a1,8
    80000218:	010703b7          	lui	t2,0x1070
    8000021c:	0013839b          	addiw	t2,t2,1
    80000220:	01839393          	slli	t2,t2,0x18
    80000224:	10038393          	addi	t2,t2,256 # 1070100 <_start-0x7ef8ff00>
    80000228:	787298e3          	bne	t0,t2,800011b8 <fail>

000000008000022c <test_12>:
    8000022c:	00c00193          	li	gp,12
    80000230:	0005b283          	ld	t0,0(a1)
    80000234:	00858593          	addi	a1,a1,8
    80000238:	000103b7          	lui	t2,0x10
    8000023c:	3f93839b          	addiw	t2,t2,1017
    80000240:	01439393          	slli	t2,t2,0x14
    80000244:	eff38393          	addi	t2,t2,-257 # feff <_start-0x7fff0101>
    80000248:	00c39393          	slli	t2,t2,0xc
    8000024c:	fff38393          	addi	t2,t2,-1
    80000250:	767294e3          	bne	t0,t2,800011b8 <fail>

0000000080000254 <test_13>:
    80000254:	00d00193          	li	gp,13
    80000258:	0005b283          	ld	t0,0(a1)
    8000025c:	00858593          	addi	a1,a1,8
    80000260:	010703b7          	lui	t2,0x1070
    80000264:	0013839b          	addiw	t2,t2,1
    80000268:	01839393          	slli	t2,t2,0x18
    8000026c:	10038393          	addi	t2,t2,256 # 1070100 <_start-0x7ef8ff00>
    80000270:	747294e3          	bne	t0,t2,800011b8 <fail>

0000000080000274 <test_14>:
    80000274:	00e00193          	li	gp,14
    80000278:	0005b283          	ld	t0,0(a1)
    8000027c:	00858593          	addi	a1,a1,8
    80000280:	000103b7          	lui	t2,0x10
    80000284:	3f93839b          	addiw	t2,t2,1017
    80000288:	01439393          	slli	t2,t2,0x14
    8000028c:	eff38393          	addi	t2,t2,-257 # feff <_start-0x7fff0101>
    80000290:	00c39393          	slli	t2,t2,0xc
    80000294:	fff38393          	addi	t2,t2,-1
    80000298:	727290e3          	bne	t0,t2,800011b8 <fail>

000000008000029c <test_15>:
    8000029c:	00f00193          	li	gp,15
    800002a0:	0005b283          	ld	t0,0(a1)
    800002a4:	00858593          	addi	a1,a1,8
    800002a8:	010703b7          	lui	t2,0x1070
    800002ac:	0013839b          	addiw	t2,t2,1
    800002b0:	01839393          	slli	t2,t2,0x18
    800002b4:	10038393          	addi	t2,t2,256 # 1070100 <_start-0x7ef8ff00>
    800002b8:	707290e3          	bne	t0,t2,800011b8 <fail>

00000000800002bc <test_16>:
    800002bc:	01000193          	li	gp,16
    800002c0:	0005b283          	ld	t0,0(a1)
    800002c4:	00858593          	addi	a1,a1,8
    800002c8:	000103b7          	lui	t2,0x10
    800002cc:	3f93839b          	addiw	t2,t2,1017
    800002d0:	01439393          	slli	t2,t2,0x14
    800002d4:	eff38393          	addi	t2,t2,-257 # feff <_start-0x7fff0101>
    800002d8:	00c39393          	slli	t2,t2,0xc
    800002dc:	fff38393          	addi	t2,t2,-1
    800002e0:	6c729ce3          	bne	t0,t2,800011b8 <fail>

00000000800002e4 <test_17>:
    800002e4:	01100193          	li	gp,17
    800002e8:	0005b283          	ld	t0,0(a1)
    800002ec:	00858593          	addi	a1,a1,8
    800002f0:	010703b7          	lui	t2,0x1070
    800002f4:	0013839b          	addiw	t2,t2,1
    800002f8:	01839393          	slli	t2,t2,0x18
    800002fc:	10038393          	addi	t2,t2,256 # 1070100 <_start-0x7ef8ff00>
    80000300:	6a729ce3          	bne	t0,t2,800011b8 <fail>
    80000304:	fff00293          	li	t0,-1
    80000308:	0c02f357          	vsetvli	t1,t0,e8,m1,ta,ma
    8000030c:	00003617          	auipc	a2,0x3
    80000310:	d8460613          	addi	a2,a2,-636 # 80003090 <tdat>
    80000314:	02060207          	vle8.v	v4,(a2)
    80000318:	0c12f357          	vsetvli	t1,t0,e8,m2,ta,ma
    8000031c:	02060107          	vle8.v	v2,(a2)
    80000320:	00003617          	auipc	a2,0x3
    80000324:	d7860613          	addi	a2,a2,-648 # 80003098 <tdat+0x8>
    80000328:	0c02f357          	vsetvli	t1,t0,e8,m1,ta,ma
    8000032c:	02060307          	vle8.v	v6,(a2)
    80000330:	fff00293          	li	t0,-1
    80000334:	0c02f357          	vsetvli	t1,t0,e8,m1,ta,ma
    80000338:	00003697          	auipc	a3,0x3
    8000033c:	da068693          	addi	a3,a3,-608 # 800030d8 <mask>
    80000340:	02068007          	vle8.v	v0,(a3)
    80000344:	01000293          	li	t0,16
    80000348:	0c02f357          	vsetvli	t1,t0,e8,m1,ta,ma
    8000034c:	c0430157          	vwredsumu.vs	v2,v4,v6,v0.t
    80000350:	fff00293          	li	t0,-1
    80000354:	0c12f357          	vsetvli	t1,t0,e8,m2,ta,ma
    80000358:	00003597          	auipc	a1,0x3
    8000035c:	ca858593          	addi	a1,a1,-856 # 80003000 <begin_signature>
    80000360:	02058127          	vse8.v	v2,(a1)

0000000080000364 <test_18>:
    80000364:	01200193          	li	gp,18
    80000368:	0005b283          	ld	t0,0(a1)
    8000036c:	00858593          	addi	a1,a1,8
    80000370:	000103b7          	lui	t2,0x10
    80000374:	3f93839b          	addiw	t2,t2,1017
    80000378:	01039393          	slli	t2,t2,0x10
    8000037c:	fef38393          	addi	t2,t2,-17 # ffef <_start-0x7fff0011>
    80000380:	01039393          	slli	t2,t2,0x10
    80000384:	3e838393          	addi	t2,t2,1000
    80000388:	627298e3          	bne	t0,t2,800011b8 <fail>

000000008000038c <test_19>:
    8000038c:	01300193          	li	gp,19
    80000390:	0005b283          	ld	t0,0(a1)
    80000394:	00858593          	addi	a1,a1,8
    80000398:	010703b7          	lui	t2,0x1070
    8000039c:	0013839b          	addiw	t2,t2,1
    800003a0:	01839393          	slli	t2,t2,0x18
    800003a4:	10038393          	addi	t2,t2,256 # 1070100 <_start-0x7ef8ff00>
    800003a8:	607298e3          	bne	t0,t2,800011b8 <fail>

00000000800003ac <test_20>:
    800003ac:	01400193          	li	gp,20
    800003b0:	0005b283          	ld	t0,0(a1)
    800003b4:	00858593          	addi	a1,a1,8
    800003b8:	000103b7          	lui	t2,0x10
    800003bc:	3f93839b          	addiw	t2,t2,1017
    800003c0:	01439393          	slli	t2,t2,0x14
    800003c4:	eff38393          	addi	t2,t2,-257 # feff <_start-0x7fff0101>
    800003c8:	00c39393          	slli	t2,t2,0xc
    800003cc:	fff38393          	addi	t2,t2,-1
    800003d0:	5e7294e3          	bne	t0,t2,800011b8 <fail>

00000000800003d4 <test_21>:
    800003d4:	01500193          	li	gp,21
    800003d8:	0005b283          	ld	t0,0(a1)
    800003dc:	00858593          	addi	a1,a1,8
    800003e0:	010703b7          	lui	t2,0x1070
    800003e4:	0013839b          	addiw	t2,t2,1
    800003e8:	01839393          	slli	t2,t2,0x18
    800003ec:	10038393          	addi	t2,t2,256 # 1070100 <_start-0x7ef8ff00>
    800003f0:	5c7294e3          	bne	t0,t2,800011b8 <fail>

00000000800003f4 <test_22>:
    800003f4:	01600193          	li	gp,22
    800003f8:	0005b283          	ld	t0,0(a1)
    800003fc:	00858593          	addi	a1,a1,8
    80000400:	000103b7          	lui	t2,0x10
    80000404:	3f93839b          	addiw	t2,t2,1017
    80000408:	01439393          	slli	t2,t2,0x14
    8000040c:	eff38393          	addi	t2,t2,-257 # feff <_start-0x7fff0101>
    80000410:	00c39393          	slli	t2,t2,0xc
    80000414:	fff38393          	addi	t2,t2,-1
    80000418:	5a7290e3          	bne	t0,t2,800011b8 <fail>

000000008000041c <test_23>:
    8000041c:	01700193          	li	gp,23
    80000420:	0005b283          	ld	t0,0(a1)
    80000424:	00858593          	addi	a1,a1,8
    80000428:	010703b7          	lui	t2,0x1070
    8000042c:	0013839b          	addiw	t2,t2,1
    80000430:	01839393          	slli	t2,t2,0x18
    80000434:	10038393          	addi	t2,t2,256 # 1070100 <_start-0x7ef8ff00>
    80000438:	587290e3          	bne	t0,t2,800011b8 <fail>

000000008000043c <test_24>:
    8000043c:	01800193          	li	gp,24
    80000440:	0005b283          	ld	t0,0(a1)
    80000444:	00858593          	addi	a1,a1,8
    80000448:	000103b7          	lui	t2,0x10
    8000044c:	3f93839b          	addiw	t2,t2,1017
    80000450:	01439393          	slli	t2,t2,0x14
    80000454:	eff38393          	addi	t2,t2,-257 # feff <_start-0x7fff0101>
    80000458:	00c39393          	slli	t2,t2,0xc
    8000045c:	fff38393          	addi	t2,t2,-1
    80000460:	54729ce3          	bne	t0,t2,800011b8 <fail>

0000000080000464 <test_25>:
    80000464:	01900193          	li	gp,25
    80000468:	0005b283          	ld	t0,0(a1)
    8000046c:	00858593          	addi	a1,a1,8
    80000470:	010703b7          	lui	t2,0x1070
    80000474:	0013839b          	addiw	t2,t2,1
    80000478:	01839393          	slli	t2,t2,0x18
    8000047c:	10038393          	addi	t2,t2,256 # 1070100 <_start-0x7ef8ff00>
    80000480:	52729ce3          	bne	t0,t2,800011b8 <fail>
    80000484:	fff00293          	li	t0,-1
    80000488:	0c02f357          	vsetvli	t1,t0,e8,m1,ta,ma
    8000048c:	00003617          	auipc	a2,0x3
    80000490:	c0460613          	addi	a2,a2,-1020 # 80003090 <tdat>
    80000494:	02060207          	vle8.v	v4,(a2)
    80000498:	0c12f357          	vsetvli	t1,t0,e8,m2,ta,ma
    8000049c:	02060107          	vle8.v	v2,(a2)
    800004a0:	00003617          	auipc	a2,0x3
    800004a4:	bf860613          	addi	a2,a2,-1032 # 80003098 <tdat+0x8>
    800004a8:	0c02f357          	vsetvli	t1,t0,e8,m1,ta,ma
    800004ac:	02060307          	vle8.v	v6,(a2)
    800004b0:	fff00293          	li	t0,-1
    800004b4:	0c02f357          	vsetvli	t1,t0,e8,m1,ta,ma
    800004b8:	00003697          	auipc	a3,0x3
    800004bc:	c2068693          	addi	a3,a3,-992 # 800030d8 <mask>
    800004c0:	02068007          	vle8.v	v0,(a3)
    800004c4:	01000293          	li	t0,16
    800004c8:	0c02f357          	vsetvli	t1,t0,e8,m1,ta,ma
    800004cc:	c0430157          	vwredsumu.vs	v2,v4,v6,v0.t
    800004d0:	fff00293          	li	t0,-1
    800004d4:	0c12f357          	vsetvli	t1,t0,e8,m2,ta,ma
    800004d8:	00003597          	auipc	a1,0x3
    800004dc:	b2858593          	addi	a1,a1,-1240 # 80003000 <begin_signature>
    800004e0:	02058127          	vse8.v	v2,(a1)

00000000800004e4 <test_26>:
    800004e4:	01a00193          	li	gp,26
    800004e8:	0005b283          	ld	t0,0(a1)
    800004ec:	00858593          	addi	a1,a1,8
    800004f0:	000103b7          	lui	t2,0x10
    800004f4:	3f93839b          	addiw	t2,t2,1017
    800004f8:	01039393          	slli	t2,t2,0x10
    800004fc:	fef38393          	addi	t2,t2,-17 # ffef <_start-0x7fff0011>
    80000500:	01039393          	slli	t2,t2,0x10
    80000504:	3e838393          	addi	t2,t2,1000
    80000508:	4a7298e3          	bne	t0,t2,800011b8 <fail>

000000008000050c <test_27>:
    8000050c:	01b00193          	li	gp,27
    80000510:	0005b283          	ld	t0,0(a1)
    80000514:	00858593          	addi	a1,a1,8
    80000518:	010703b7          	lui	t2,0x1070
    8000051c:	0013839b          	addiw	t2,t2,1
    80000520:	01839393          	slli	t2,t2,0x18
    80000524:	10038393          	addi	t2,t2,256 # 1070100 <_start-0x7ef8ff00>
    80000528:	487298e3          	bne	t0,t2,800011b8 <fail>

000000008000052c <test_28>:
    8000052c:	01c00193          	li	gp,28
    80000530:	0005b283          	ld	t0,0(a1)
    80000534:	00858593          	addi	a1,a1,8
    80000538:	000103b7          	lui	t2,0x10
    8000053c:	3f93839b          	addiw	t2,t2,1017
    80000540:	01439393          	slli	t2,t2,0x14
    80000544:	eff38393          	addi	t2,t2,-257 # feff <_start-0x7fff0101>
    80000548:	00c39393          	slli	t2,t2,0xc
    8000054c:	fff38393          	addi	t2,t2,-1
    80000550:	467294e3          	bne	t0,t2,800011b8 <fail>

0000000080000554 <test_29>:
    80000554:	01d00193          	li	gp,29
    80000558:	0005b283          	ld	t0,0(a1)
    8000055c:	00858593          	addi	a1,a1,8
    80000560:	010703b7          	lui	t2,0x1070
    80000564:	0013839b          	addiw	t2,t2,1
    80000568:	01839393          	slli	t2,t2,0x18
    8000056c:	10038393          	addi	t2,t2,256 # 1070100 <_start-0x7ef8ff00>
    80000570:	447294e3          	bne	t0,t2,800011b8 <fail>

0000000080000574 <test_30>:
    80000574:	01e00193          	li	gp,30
    80000578:	0005b283          	ld	t0,0(a1)
    8000057c:	00858593          	addi	a1,a1,8
    80000580:	000103b7          	lui	t2,0x10
    80000584:	3f93839b          	addiw	t2,t2,1017
    80000588:	01439393          	slli	t2,t2,0x14
    8000058c:	eff38393          	addi	t2,t2,-257 # feff <_start-0x7fff0101>
    80000590:	00c39393          	slli	t2,t2,0xc
    80000594:	fff38393          	addi	t2,t2,-1
    80000598:	427290e3          	bne	t0,t2,800011b8 <fail>

000000008000059c <test_31>:
    8000059c:	01f00193          	li	gp,31
    800005a0:	0005b283          	ld	t0,0(a1)
    800005a4:	00858593          	addi	a1,a1,8
    800005a8:	010703b7          	lui	t2,0x1070
    800005ac:	0013839b          	addiw	t2,t2,1
    800005b0:	01839393          	slli	t2,t2,0x18
    800005b4:	10038393          	addi	t2,t2,256 # 1070100 <_start-0x7ef8ff00>
    800005b8:	407290e3          	bne	t0,t2,800011b8 <fail>

00000000800005bc <test_32>:
    800005bc:	02000193          	li	gp,32
    800005c0:	0005b283          	ld	t0,0(a1)
    800005c4:	00858593          	addi	a1,a1,8
    800005c8:	000103b7          	lui	t2,0x10
    800005cc:	3f93839b          	addiw	t2,t2,1017
    800005d0:	01439393          	slli	t2,t2,0x14
    800005d4:	eff38393          	addi	t2,t2,-257 # feff <_start-0x7fff0101>
    800005d8:	00c39393          	slli	t2,t2,0xc
    800005dc:	fff38393          	addi	t2,t2,-1
    800005e0:	3c729ce3          	bne	t0,t2,800011b8 <fail>

00000000800005e4 <test_33>:
    800005e4:	02100193          	li	gp,33
    800005e8:	0005b283          	ld	t0,0(a1)
    800005ec:	00858593          	addi	a1,a1,8
    800005f0:	010703b7          	lui	t2,0x1070
    800005f4:	0013839b          	addiw	t2,t2,1
    800005f8:	01839393          	slli	t2,t2,0x18
    800005fc:	10038393          	addi	t2,t2,256 # 1070100 <_start-0x7ef8ff00>
    80000600:	3a729ce3          	bne	t0,t2,800011b8 <fail>
    80000604:	fff00293          	li	t0,-1
    80000608:	0c02f357          	vsetvli	t1,t0,e8,m1,ta,ma
    8000060c:	00003617          	auipc	a2,0x3
    80000610:	a8460613          	addi	a2,a2,-1404 # 80003090 <tdat>
    80000614:	02060207          	vle8.v	v4,(a2)
    80000618:	0c12f357          	vsetvli	t1,t0,e8,m2,ta,ma
    8000061c:	02060107          	vle8.v	v2,(a2)
    80000620:	00003617          	auipc	a2,0x3
    80000624:	a7860613          	addi	a2,a2,-1416 # 80003098 <tdat+0x8>
    80000628:	0c02f357          	vsetvli	t1,t0,e8,m1,ta,ma
    8000062c:	02060307          	vle8.v	v6,(a2)
    80000630:	01f00293          	li	t0,31
    80000634:	0c02f357          	vsetvli	t1,t0,e8,m1,ta,ma
    80000638:	c2430157          	vwredsumu.vs	v2,v4,v6
    8000063c:	fff00293          	li	t0,-1
    80000640:	0c12f357          	vsetvli	t1,t0,e8,m2,ta,ma
    80000644:	00003597          	auipc	a1,0x3
    80000648:	9bc58593          	addi	a1,a1,-1604 # 80003000 <begin_signature>
    8000064c:	02058127          	vse8.v	v2,(a1)

0000000080000650 <test_34>:
    80000650:	02200193          	li	gp,34
    80000654:	0005b283          	ld	t0,0(a1)
    80000658:	00858593          	addi	a1,a1,8
    8000065c:	000103b7          	lui	t2,0x10
    80000660:	3f93839b          	addiw	t2,t2,1017
    80000664:	01439393          	slli	t2,t2,0x14
    80000668:	ef138393          	addi	t2,t2,-271 # fef1 <_start-0x7fff010f>
    8000066c:	00c39393          	slli	t2,t2,0xc
    80000670:	ac438393          	addi	t2,t2,-1340
    80000674:	347292e3          	bne	t0,t2,800011b8 <fail>

0000000080000678 <test_35>:
    80000678:	02300193          	li	gp,35
    8000067c:	0005b283          	ld	t0,0(a1)
    80000680:	00858593          	addi	a1,a1,8
    80000684:	010703b7          	lui	t2,0x1070
    80000688:	0013839b          	addiw	t2,t2,1
    8000068c:	01839393          	slli	t2,t2,0x18
    80000690:	10038393          	addi	t2,t2,256 # 1070100 <_start-0x7ef8ff00>
    80000694:	327292e3          	bne	t0,t2,800011b8 <fail>

0000000080000698 <test_36>:
    80000698:	02400193          	li	gp,36
    8000069c:	0005b283          	ld	t0,0(a1)
    800006a0:	00858593          	addi	a1,a1,8
    800006a4:	000103b7          	lui	t2,0x10
    800006a8:	3f93839b          	addiw	t2,t2,1017
    800006ac:	01439393          	slli	t2,t2,0x14
    800006b0:	eff38393          	addi	t2,t2,-257 # feff <_start-0x7fff0101>
    800006b4:	00c39393          	slli	t2,t2,0xc
    800006b8:	fff38393          	addi	t2,t2,-1
    800006bc:	2e729ee3          	bne	t0,t2,800011b8 <fail>

00000000800006c0 <test_37>:
    800006c0:	02500193          	li	gp,37
    800006c4:	0005b283          	ld	t0,0(a1)
    800006c8:	00858593          	addi	a1,a1,8
    800006cc:	010703b7          	lui	t2,0x1070
    800006d0:	0013839b          	addiw	t2,t2,1
    800006d4:	01839393          	slli	t2,t2,0x18
    800006d8:	10038393          	addi	t2,t2,256 # 1070100 <_start-0x7ef8ff00>
    800006dc:	2c729ee3          	bne	t0,t2,800011b8 <fail>

00000000800006e0 <test_38>:
    800006e0:	02600193          	li	gp,38
    800006e4:	0005b283          	ld	t0,0(a1)
    800006e8:	00858593          	addi	a1,a1,8
    800006ec:	000103b7          	lui	t2,0x10
    800006f0:	3f93839b          	addiw	t2,t2,1017
    800006f4:	01439393          	slli	t2,t2,0x14
    800006f8:	eff38393          	addi	t2,t2,-257 # feff <_start-0x7fff0101>
    800006fc:	00c39393          	slli	t2,t2,0xc
    80000700:	fff38393          	addi	t2,t2,-1
    80000704:	2a729ae3          	bne	t0,t2,800011b8 <fail>

0000000080000708 <test_39>:
    80000708:	02700193          	li	gp,39
    8000070c:	0005b283          	ld	t0,0(a1)
    80000710:	00858593          	addi	a1,a1,8
    80000714:	010703b7          	lui	t2,0x1070
    80000718:	0013839b          	addiw	t2,t2,1
    8000071c:	01839393          	slli	t2,t2,0x18
    80000720:	10038393          	addi	t2,t2,256 # 1070100 <_start-0x7ef8ff00>
    80000724:	28729ae3          	bne	t0,t2,800011b8 <fail>

0000000080000728 <test_40>:
    80000728:	02800193          	li	gp,40
    8000072c:	0005b283          	ld	t0,0(a1)
    80000730:	00858593          	addi	a1,a1,8
    80000734:	000103b7          	lui	t2,0x10
    80000738:	3f93839b          	addiw	t2,t2,1017
    8000073c:	01439393          	slli	t2,t2,0x14
    80000740:	eff38393          	addi	t2,t2,-257 # feff <_start-0x7fff0101>
    80000744:	00c39393          	slli	t2,t2,0xc
    80000748:	fff38393          	addi	t2,t2,-1
    8000074c:	267296e3          	bne	t0,t2,800011b8 <fail>

0000000080000750 <test_41>:
    80000750:	02900193          	li	gp,41
    80000754:	0005b283          	ld	t0,0(a1)
    80000758:	00858593          	addi	a1,a1,8
    8000075c:	010703b7          	lui	t2,0x1070
    80000760:	0013839b          	addiw	t2,t2,1
    80000764:	01839393          	slli	t2,t2,0x18
    80000768:	10038393          	addi	t2,t2,256 # 1070100 <_start-0x7ef8ff00>
    8000076c:	247296e3          	bne	t0,t2,800011b8 <fail>
    80000770:	fff00293          	li	t0,-1
    80000774:	0c02f357          	vsetvli	t1,t0,e8,m1,ta,ma
    80000778:	00003617          	auipc	a2,0x3
    8000077c:	91860613          	addi	a2,a2,-1768 # 80003090 <tdat>
    80000780:	02060207          	vle8.v	v4,(a2)
    80000784:	0c12f357          	vsetvli	t1,t0,e8,m2,ta,ma
    80000788:	02060107          	vle8.v	v2,(a2)
    8000078c:	00003617          	auipc	a2,0x3
    80000790:	90c60613          	addi	a2,a2,-1780 # 80003098 <tdat+0x8>
    80000794:	0c02f357          	vsetvli	t1,t0,e8,m1,ta,ma
    80000798:	02060307          	vle8.v	v6,(a2)
    8000079c:	01f00293          	li	t0,31
    800007a0:	0802f357          	vsetvli	t1,t0,e8,m1,tu,ma
    800007a4:	c2430157          	vwredsumu.vs	v2,v4,v6
    800007a8:	fff00293          	li	t0,-1
    800007ac:	0c12f357          	vsetvli	t1,t0,e8,m2,ta,ma
    800007b0:	00003597          	auipc	a1,0x3
    800007b4:	85058593          	addi	a1,a1,-1968 # 80003000 <begin_signature>
    800007b8:	02058127          	vse8.v	v2,(a1)

00000000800007bc <test_42>:
    800007bc:	02a00193          	li	gp,42
    800007c0:	0005b283          	ld	t0,0(a1)
    800007c4:	00858593          	addi	a1,a1,8
    800007c8:	000103b7          	lui	t2,0x10
    800007cc:	3f93839b          	addiw	t2,t2,1017
    800007d0:	01439393          	slli	t2,t2,0x14
    800007d4:	ef138393          	addi	t2,t2,-271 # fef1 <_start-0x7fff010f>
    800007d8:	00c39393          	slli	t2,t2,0xc
    800007dc:	ac438393          	addi	t2,t2,-1340
    800007e0:	1c729ce3          	bne	t0,t2,800011b8 <fail>

00000000800007e4 <test_43>:
    800007e4:	02b00193          	li	gp,43
    800007e8:	0005b283          	ld	t0,0(a1)
    800007ec:	00858593          	addi	a1,a1,8
    800007f0:	010703b7          	lui	t2,0x1070
    800007f4:	0013839b          	addiw	t2,t2,1
    800007f8:	01839393          	slli	t2,t2,0x18
    800007fc:	10038393          	addi	t2,t2,256 # 1070100 <_start-0x7ef8ff00>
    80000800:	1a729ce3          	bne	t0,t2,800011b8 <fail>

0000000080000804 <test_44>:
    80000804:	02c00193          	li	gp,44
    80000808:	0005b283          	ld	t0,0(a1)
    8000080c:	00858593          	addi	a1,a1,8
    80000810:	000103b7          	lui	t2,0x10
    80000814:	3f93839b          	addiw	t2,t2,1017
    80000818:	01439393          	slli	t2,t2,0x14
    8000081c:	eff38393          	addi	t2,t2,-257 # feff <_start-0x7fff0101>
    80000820:	00c39393          	slli	t2,t2,0xc
    80000824:	fff38393          	addi	t2,t2,-1
    80000828:	187298e3          	bne	t0,t2,800011b8 <fail>

000000008000082c <test_45>:
    8000082c:	02d00193          	li	gp,45
    80000830:	0005b283          	ld	t0,0(a1)
    80000834:	00858593          	addi	a1,a1,8
    80000838:	010703b7          	lui	t2,0x1070
    8000083c:	0013839b          	addiw	t2,t2,1
    80000840:	01839393          	slli	t2,t2,0x18
    80000844:	10038393          	addi	t2,t2,256 # 1070100 <_start-0x7ef8ff00>
    80000848:	167298e3          	bne	t0,t2,800011b8 <fail>

000000008000084c <test_46>:
    8000084c:	02e00193          	li	gp,46
    80000850:	0005b283          	ld	t0,0(a1)
    80000854:	00858593          	addi	a1,a1,8
    80000858:	000103b7          	lui	t2,0x10
    8000085c:	3f93839b          	addiw	t2,t2,1017
    80000860:	01439393          	slli	t2,t2,0x14
    80000864:	eff38393          	addi	t2,t2,-257 # feff <_start-0x7fff0101>
    80000868:	00c39393          	slli	t2,t2,0xc
    8000086c:	fff38393          	addi	t2,t2,-1
    80000870:	147294e3          	bne	t0,t2,800011b8 <fail>

0000000080000874 <test_47>:
    80000874:	02f00193          	li	gp,47
    80000878:	0005b283          	ld	t0,0(a1)
    8000087c:	00858593          	addi	a1,a1,8
    80000880:	010703b7          	lui	t2,0x1070
    80000884:	0013839b          	addiw	t2,t2,1
    80000888:	01839393          	slli	t2,t2,0x18
    8000088c:	10038393          	addi	t2,t2,256 # 1070100 <_start-0x7ef8ff00>
    80000890:	127294e3          	bne	t0,t2,800011b8 <fail>

0000000080000894 <test_48>:
    80000894:	03000193          	li	gp,48
    80000898:	0005b283          	ld	t0,0(a1)
    8000089c:	00858593          	addi	a1,a1,8
    800008a0:	000103b7          	lui	t2,0x10
    800008a4:	3f93839b          	addiw	t2,t2,1017
    800008a8:	01439393          	slli	t2,t2,0x14
    800008ac:	eff38393          	addi	t2,t2,-257 # feff <_start-0x7fff0101>
    800008b0:	00c39393          	slli	t2,t2,0xc
    800008b4:	fff38393          	addi	t2,t2,-1
    800008b8:	107290e3          	bne	t0,t2,800011b8 <fail>

00000000800008bc <test_49>:
    800008bc:	03100193          	li	gp,49
    800008c0:	0005b283          	ld	t0,0(a1)
    800008c4:	00858593          	addi	a1,a1,8
    800008c8:	010703b7          	lui	t2,0x1070
    800008cc:	0013839b          	addiw	t2,t2,1
    800008d0:	01839393          	slli	t2,t2,0x18
    800008d4:	10038393          	addi	t2,t2,256 # 1070100 <_start-0x7ef8ff00>
    800008d8:	0e7290e3          	bne	t0,t2,800011b8 <fail>
    800008dc:	fff00293          	li	t0,-1
    800008e0:	0c02f357          	vsetvli	t1,t0,e8,m1,ta,ma
    800008e4:	00002617          	auipc	a2,0x2
    800008e8:	7ac60613          	addi	a2,a2,1964 # 80003090 <tdat>
    800008ec:	02060207          	vle8.v	v4,(a2)
    800008f0:	0c12f357          	vsetvli	t1,t0,e8,m2,ta,ma
    800008f4:	02060107          	vle8.v	v2,(a2)
    800008f8:	00002617          	auipc	a2,0x2
    800008fc:	7a060613          	addi	a2,a2,1952 # 80003098 <tdat+0x8>
    80000900:	0c02f357          	vsetvli	t1,t0,e8,m1,ta,ma
    80000904:	02060307          	vle8.v	v6,(a2)
    80000908:	fff00293          	li	t0,-1
    8000090c:	0c02f357          	vsetvli	t1,t0,e8,m1,ta,ma
    80000910:	00002697          	auipc	a3,0x2
    80000914:	7c868693          	addi	a3,a3,1992 # 800030d8 <mask>
    80000918:	02068007          	vle8.v	v0,(a3)
    8000091c:	01f00293          	li	t0,31
    80000920:	0c02f357          	vsetvli	t1,t0,e8,m1,ta,ma
    80000924:	c0430157          	vwredsumu.vs	v2,v4,v6,v0.t
    80000928:	fff00293          	li	t0,-1
    8000092c:	0c12f357          	vsetvli	t1,t0,e8,m2,ta,ma
    80000930:	00002597          	auipc	a1,0x2
    80000934:	6d058593          	addi	a1,a1,1744 # 80003000 <begin_signature>
    80000938:	02058127          	vse8.v	v2,(a1)

000000008000093c <test_50>:
    8000093c:	03200193          	li	gp,50
    80000940:	0005b283          	ld	t0,0(a1)
    80000944:	00858593          	addi	a1,a1,8
    80000948:	000103b7          	lui	t2,0x10
    8000094c:	3f93839b          	addiw	t2,t2,1017
    80000950:	01039393          	slli	t2,t2,0x10
    80000954:	fef38393          	addi	t2,t2,-17 # ffef <_start-0x7fff0011>
    80000958:	01039393          	slli	t2,t2,0x10
    8000095c:	6d038393          	addi	t2,t2,1744
    80000960:	04729ce3          	bne	t0,t2,800011b8 <fail>

0000000080000964 <test_51>:
    80000964:	03300193          	li	gp,51
    80000968:	0005b283          	ld	t0,0(a1)
    8000096c:	00858593          	addi	a1,a1,8
    80000970:	010703b7          	lui	t2,0x1070
    80000974:	0013839b          	addiw	t2,t2,1
    80000978:	01839393          	slli	t2,t2,0x18
    8000097c:	10038393          	addi	t2,t2,256 # 1070100 <_start-0x7ef8ff00>
    80000980:	02729ce3          	bne	t0,t2,800011b8 <fail>

0000000080000984 <test_52>:
    80000984:	03400193          	li	gp,52
    80000988:	0005b283          	ld	t0,0(a1)
    8000098c:	00858593          	addi	a1,a1,8
    80000990:	000103b7          	lui	t2,0x10
    80000994:	3f93839b          	addiw	t2,t2,1017
    80000998:	01439393          	slli	t2,t2,0x14
    8000099c:	eff38393          	addi	t2,t2,-257 # feff <_start-0x7fff0101>
    800009a0:	00c39393          	slli	t2,t2,0xc
    800009a4:	fff38393          	addi	t2,t2,-1
    800009a8:	007298e3          	bne	t0,t2,800011b8 <fail>

00000000800009ac <test_53>:
    800009ac:	03500193          	li	gp,53
    800009b0:	0005b283          	ld	t0,0(a1)
    800009b4:	00858593          	addi	a1,a1,8
    800009b8:	010703b7          	lui	t2,0x1070
    800009bc:	0013839b          	addiw	t2,t2,1
    800009c0:	01839393          	slli	t2,t2,0x18
    800009c4:	10038393          	addi	t2,t2,256 # 1070100 <_start-0x7ef8ff00>
    800009c8:	7e729863          	bne	t0,t2,800011b8 <fail>

00000000800009cc <test_54>:
    800009cc:	03600193          	li	gp,54
    800009d0:	0005b283          	ld	t0,0(a1)
    800009d4:	00858593          	addi	a1,a1,8
    800009d8:	000103b7          	lui	t2,0x10
    800009dc:	3f93839b          	addiw	t2,t2,1017
    800009e0:	01439393          	slli	t2,t2,0x14
    800009e4:	eff38393          	addi	t2,t2,-257 # feff <_start-0x7fff0101>
    800009e8:	00c39393          	slli	t2,t2,0xc
    800009ec:	fff38393          	addi	t2,t2,-1
    800009f0:	7c729463          	bne	t0,t2,800011b8 <fail>

00000000800009f4 <test_55>:
    800009f4:	03700193          	li	gp,55
    800009f8:	0005b283          	ld	t0,0(a1)
    800009fc:	00858593          	addi	a1,a1,8
    80000a00:	010703b7          	lui	t2,0x1070
    80000a04:	0013839b          	addiw	t2,t2,1
    80000a08:	01839393          	slli	t2,t2,0x18
    80000a0c:	10038393          	addi	t2,t2,256 # 1070100 <_start-0x7ef8ff00>
    80000a10:	7a729463          	bne	t0,t2,800011b8 <fail>

0000000080000a14 <test_56>:
    80000a14:	03800193          	li	gp,56
    80000a18:	0005b283          	ld	t0,0(a1)
    80000a1c:	00858593          	addi	a1,a1,8
    80000a20:	000103b7          	lui	t2,0x10
    80000a24:	3f93839b          	addiw	t2,t2,1017
    80000a28:	01439393          	slli	t2,t2,0x14
    80000a2c:	eff38393          	addi	t2,t2,-257 # feff <_start-0x7fff0101>
    80000a30:	00c39393          	slli	t2,t2,0xc
    80000a34:	fff38393          	addi	t2,t2,-1
    80000a38:	78729063          	bne	t0,t2,800011b8 <fail>

0000000080000a3c <test_57>:
    80000a3c:	03900193          	li	gp,57
    80000a40:	0005b283          	ld	t0,0(a1)
    80000a44:	00858593          	addi	a1,a1,8
    80000a48:	010703b7          	lui	t2,0x1070
    80000a4c:	0013839b          	addiw	t2,t2,1
    80000a50:	01839393          	slli	t2,t2,0x18
    80000a54:	10038393          	addi	t2,t2,256 # 1070100 <_start-0x7ef8ff00>
    80000a58:	76729063          	bne	t0,t2,800011b8 <fail>
    80000a5c:	fff00293          	li	t0,-1
    80000a60:	0c02f357          	vsetvli	t1,t0,e8,m1,ta,ma
    80000a64:	00002617          	auipc	a2,0x2
    80000a68:	62c60613          	addi	a2,a2,1580 # 80003090 <tdat>
    80000a6c:	02060207          	vle8.v	v4,(a2)
    80000a70:	0c12f357          	vsetvli	t1,t0,e8,m2,ta,ma
    80000a74:	02060107          	vle8.v	v2,(a2)
    80000a78:	00002617          	auipc	a2,0x2
    80000a7c:	62060613          	addi	a2,a2,1568 # 80003098 <tdat+0x8>
    80000a80:	0c02f357          	vsetvli	t1,t0,e8,m1,ta,ma
    80000a84:	02060307          	vle8.v	v6,(a2)
    80000a88:	fff00293          	li	t0,-1
    80000a8c:	0c02f357          	vsetvli	t1,t0,e8,m1,ta,ma
    80000a90:	00002697          	auipc	a3,0x2
    80000a94:	64868693          	addi	a3,a3,1608 # 800030d8 <mask>
    80000a98:	02068007          	vle8.v	v0,(a3)
    80000a9c:	01f00293          	li	t0,31
    80000aa0:	0c02f357          	vsetvli	t1,t0,e8,m1,ta,ma
    80000aa4:	c0430157          	vwredsumu.vs	v2,v4,v6,v0.t
    80000aa8:	fff00293          	li	t0,-1
    80000aac:	0c12f357          	vsetvli	t1,t0,e8,m2,ta,ma
    80000ab0:	00002597          	auipc	a1,0x2
    80000ab4:	55058593          	addi	a1,a1,1360 # 80003000 <begin_signature>
    80000ab8:	02058127          	vse8.v	v2,(a1)

0000000080000abc <test_58>:
    80000abc:	03a00193          	li	gp,58
    80000ac0:	0005b283          	ld	t0,0(a1)
    80000ac4:	00858593          	addi	a1,a1,8
    80000ac8:	000103b7          	lui	t2,0x10
    80000acc:	3f93839b          	addiw	t2,t2,1017
    80000ad0:	01039393          	slli	t2,t2,0x10
    80000ad4:	fef38393          	addi	t2,t2,-17 # ffef <_start-0x7fff0011>
    80000ad8:	01039393          	slli	t2,t2,0x10
    80000adc:	6d038393          	addi	t2,t2,1744
    80000ae0:	6c729c63          	bne	t0,t2,800011b8 <fail>

0000000080000ae4 <test_59>:
    80000ae4:	03b00193          	li	gp,59
    80000ae8:	0005b283          	ld	t0,0(a1)
    80000aec:	00858593          	addi	a1,a1,8
    80000af0:	010703b7          	lui	t2,0x1070
    80000af4:	0013839b          	addiw	t2,t2,1
    80000af8:	01839393          	slli	t2,t2,0x18
    80000afc:	10038393          	addi	t2,t2,256 # 1070100 <_start-0x7ef8ff00>
    80000b00:	6a729c63          	bne	t0,t2,800011b8 <fail>

0000000080000b04 <test_60>:
    80000b04:	03c00193          	li	gp,60
    80000b08:	0005b283          	ld	t0,0(a1)
    80000b0c:	00858593          	addi	a1,a1,8
    80000b10:	000103b7          	lui	t2,0x10
    80000b14:	3f93839b          	addiw	t2,t2,1017
    80000b18:	01439393          	slli	t2,t2,0x14
    80000b1c:	eff38393          	addi	t2,t2,-257 # feff <_start-0x7fff0101>
    80000b20:	00c39393          	slli	t2,t2,0xc
    80000b24:	fff38393          	addi	t2,t2,-1
    80000b28:	68729863          	bne	t0,t2,800011b8 <fail>

0000000080000b2c <test_61>:
    80000b2c:	03d00193          	li	gp,61
    80000b30:	0005b283          	ld	t0,0(a1)
    80000b34:	00858593          	addi	a1,a1,8
    80000b38:	010703b7          	lui	t2,0x1070
    80000b3c:	0013839b          	addiw	t2,t2,1
    80000b40:	01839393          	slli	t2,t2,0x18
    80000b44:	10038393          	addi	t2,t2,256 # 1070100 <_start-0x7ef8ff00>
    80000b48:	66729863          	bne	t0,t2,800011b8 <fail>

0000000080000b4c <test_62>:
    80000b4c:	03e00193          	li	gp,62
    80000b50:	0005b283          	ld	t0,0(a1)
    80000b54:	00858593          	addi	a1,a1,8
    80000b58:	000103b7          	lui	t2,0x10
    80000b5c:	3f93839b          	addiw	t2,t2,1017
    80000b60:	01439393          	slli	t2,t2,0x14
    80000b64:	eff38393          	addi	t2,t2,-257 # feff <_start-0x7fff0101>
    80000b68:	00c39393          	slli	t2,t2,0xc
    80000b6c:	fff38393          	addi	t2,t2,-1
    80000b70:	64729463          	bne	t0,t2,800011b8 <fail>

0000000080000b74 <test_63>:
    80000b74:	03f00193          	li	gp,63
    80000b78:	0005b283          	ld	t0,0(a1)
    80000b7c:	00858593          	addi	a1,a1,8
    80000b80:	010703b7          	lui	t2,0x1070
    80000b84:	0013839b          	addiw	t2,t2,1
    80000b88:	01839393          	slli	t2,t2,0x18
    80000b8c:	10038393          	addi	t2,t2,256 # 1070100 <_start-0x7ef8ff00>
    80000b90:	62729463          	bne	t0,t2,800011b8 <fail>

0000000080000b94 <test_64>:
    80000b94:	04000193          	li	gp,64
    80000b98:	0005b283          	ld	t0,0(a1)
    80000b9c:	00858593          	addi	a1,a1,8
    80000ba0:	000103b7          	lui	t2,0x10
    80000ba4:	3f93839b          	addiw	t2,t2,1017
    80000ba8:	01439393          	slli	t2,t2,0x14
    80000bac:	eff38393          	addi	t2,t2,-257 # feff <_start-0x7fff0101>
    80000bb0:	00c39393          	slli	t2,t2,0xc
    80000bb4:	fff38393          	addi	t2,t2,-1
    80000bb8:	60729063          	bne	t0,t2,800011b8 <fail>

0000000080000bbc <test_65>:
    80000bbc:	04100193          	li	gp,65
    80000bc0:	0005b283          	ld	t0,0(a1)
    80000bc4:	00858593          	addi	a1,a1,8
    80000bc8:	010703b7          	lui	t2,0x1070
    80000bcc:	0013839b          	addiw	t2,t2,1
    80000bd0:	01839393          	slli	t2,t2,0x18
    80000bd4:	10038393          	addi	t2,t2,256 # 1070100 <_start-0x7ef8ff00>
    80000bd8:	5e729063          	bne	t0,t2,800011b8 <fail>
    80000bdc:	fff00293          	li	t0,-1
    80000be0:	0c02f357          	vsetvli	t1,t0,e8,m1,ta,ma
    80000be4:	00002617          	auipc	a2,0x2
    80000be8:	4ac60613          	addi	a2,a2,1196 # 80003090 <tdat>
    80000bec:	02060207          	vle8.v	v4,(a2)
    80000bf0:	0c12f357          	vsetvli	t1,t0,e8,m2,ta,ma
    80000bf4:	02060107          	vle8.v	v2,(a2)
    80000bf8:	00002617          	auipc	a2,0x2
    80000bfc:	4a060613          	addi	a2,a2,1184 # 80003098 <tdat+0x8>
    80000c00:	0c02f357          	vsetvli	t1,t0,e8,m1,ta,ma
    80000c04:	02060307          	vle8.v	v6,(a2)
    80000c08:	02000293          	li	t0,32
    80000c0c:	0c02f357          	vsetvli	t1,t0,e8,m1,ta,ma
    80000c10:	c2430157          	vwredsumu.vs	v2,v4,v6
    80000c14:	fff00293          	li	t0,-1
    80000c18:	0c12f357          	vsetvli	t1,t0,e8,m2,ta,ma
    80000c1c:	00002597          	auipc	a1,0x2
    80000c20:	3e458593          	addi	a1,a1,996 # 80003000 <begin_signature>
    80000c24:	02058127          	vse8.v	v2,(a1)

0000000080000c28 <test_66>:
    80000c28:	04200193          	li	gp,66
    80000c2c:	0005b283          	ld	t0,0(a1)
    80000c30:	00858593          	addi	a1,a1,8
    80000c34:	000103b7          	lui	t2,0x10
    80000c38:	3f93839b          	addiw	t2,t2,1017
    80000c3c:	01439393          	slli	t2,t2,0x14
    80000c40:	ef138393          	addi	t2,t2,-271 # fef1 <_start-0x7fff010f>
    80000c44:	00c39393          	slli	t2,t2,0xc
    80000c48:	ac438393          	addi	t2,t2,-1340
    80000c4c:	56729663          	bne	t0,t2,800011b8 <fail>

0000000080000c50 <test_67>:
    80000c50:	04300193          	li	gp,67
    80000c54:	0005b283          	ld	t0,0(a1)
    80000c58:	00858593          	addi	a1,a1,8
    80000c5c:	010703b7          	lui	t2,0x1070
    80000c60:	0013839b          	addiw	t2,t2,1
    80000c64:	01839393          	slli	t2,t2,0x18
    80000c68:	10038393          	addi	t2,t2,256 # 1070100 <_start-0x7ef8ff00>
    80000c6c:	54729663          	bne	t0,t2,800011b8 <fail>

0000000080000c70 <test_68>:
    80000c70:	04400193          	li	gp,68
    80000c74:	0005b283          	ld	t0,0(a1)
    80000c78:	00858593          	addi	a1,a1,8
    80000c7c:	000103b7          	lui	t2,0x10
    80000c80:	3f93839b          	addiw	t2,t2,1017
    80000c84:	01439393          	slli	t2,t2,0x14
    80000c88:	eff38393          	addi	t2,t2,-257 # feff <_start-0x7fff0101>
    80000c8c:	00c39393          	slli	t2,t2,0xc
    80000c90:	fff38393          	addi	t2,t2,-1
    80000c94:	52729263          	bne	t0,t2,800011b8 <fail>

0000000080000c98 <test_69>:
    80000c98:	04500193          	li	gp,69
    80000c9c:	0005b283          	ld	t0,0(a1)
    80000ca0:	00858593          	addi	a1,a1,8
    80000ca4:	010703b7          	lui	t2,0x1070
    80000ca8:	0013839b          	addiw	t2,t2,1
    80000cac:	01839393          	slli	t2,t2,0x18
    80000cb0:	10038393          	addi	t2,t2,256 # 1070100 <_start-0x7ef8ff00>
    80000cb4:	50729263          	bne	t0,t2,800011b8 <fail>

0000000080000cb8 <test_70>:
    80000cb8:	04600193          	li	gp,70
    80000cbc:	0005b283          	ld	t0,0(a1)
    80000cc0:	00858593          	addi	a1,a1,8
    80000cc4:	000103b7          	lui	t2,0x10
    80000cc8:	3f93839b          	addiw	t2,t2,1017
    80000ccc:	01439393          	slli	t2,t2,0x14
    80000cd0:	eff38393          	addi	t2,t2,-257 # feff <_start-0x7fff0101>
    80000cd4:	00c39393          	slli	t2,t2,0xc
    80000cd8:	fff38393          	addi	t2,t2,-1
    80000cdc:	4c729e63          	bne	t0,t2,800011b8 <fail>

0000000080000ce0 <test_71>:
    80000ce0:	04700193          	li	gp,71
    80000ce4:	0005b283          	ld	t0,0(a1)
    80000ce8:	00858593          	addi	a1,a1,8
    80000cec:	010703b7          	lui	t2,0x1070
    80000cf0:	0013839b          	addiw	t2,t2,1
    80000cf4:	01839393          	slli	t2,t2,0x18
    80000cf8:	10038393          	addi	t2,t2,256 # 1070100 <_start-0x7ef8ff00>
    80000cfc:	4a729e63          	bne	t0,t2,800011b8 <fail>

0000000080000d00 <test_72>:
    80000d00:	04800193          	li	gp,72
    80000d04:	0005b283          	ld	t0,0(a1)
    80000d08:	00858593          	addi	a1,a1,8
    80000d0c:	000103b7          	lui	t2,0x10
    80000d10:	3f93839b          	addiw	t2,t2,1017
    80000d14:	01439393          	slli	t2,t2,0x14
    80000d18:	eff38393          	addi	t2,t2,-257 # feff <_start-0x7fff0101>
    80000d1c:	00c39393          	slli	t2,t2,0xc
    80000d20:	fff38393          	addi	t2,t2,-1
    80000d24:	48729a63          	bne	t0,t2,800011b8 <fail>

0000000080000d28 <test_73>:
    80000d28:	04900193          	li	gp,73
    80000d2c:	0005b283          	ld	t0,0(a1)
    80000d30:	00858593          	addi	a1,a1,8
    80000d34:	010703b7          	lui	t2,0x1070
    80000d38:	0013839b          	addiw	t2,t2,1
    80000d3c:	01839393          	slli	t2,t2,0x18
    80000d40:	10038393          	addi	t2,t2,256 # 1070100 <_start-0x7ef8ff00>
    80000d44:	46729a63          	bne	t0,t2,800011b8 <fail>
    80000d48:	fff00293          	li	t0,-1
    80000d4c:	0c02f357          	vsetvli	t1,t0,e8,m1,ta,ma
    80000d50:	00002617          	auipc	a2,0x2
    80000d54:	34060613          	addi	a2,a2,832 # 80003090 <tdat>
    80000d58:	02060207          	vle8.v	v4,(a2)
    80000d5c:	0c12f357          	vsetvli	t1,t0,e8,m2,ta,ma
    80000d60:	02060107          	vle8.v	v2,(a2)
    80000d64:	00002617          	auipc	a2,0x2
    80000d68:	33460613          	addi	a2,a2,820 # 80003098 <tdat+0x8>
    80000d6c:	0c02f357          	vsetvli	t1,t0,e8,m1,ta,ma
    80000d70:	02060307          	vle8.v	v6,(a2)
    80000d74:	02000293          	li	t0,32
    80000d78:	0802f357          	vsetvli	t1,t0,e8,m1,tu,ma
    80000d7c:	c2430157          	vwredsumu.vs	v2,v4,v6
    80000d80:	fff00293          	li	t0,-1
    80000d84:	0c12f357          	vsetvli	t1,t0,e8,m2,ta,ma
    80000d88:	00002597          	auipc	a1,0x2
    80000d8c:	27858593          	addi	a1,a1,632 # 80003000 <begin_signature>
    80000d90:	02058127          	vse8.v	v2,(a1)

0000000080000d94 <test_74>:
    80000d94:	04a00193          	li	gp,74
    80000d98:	0005b283          	ld	t0,0(a1)
    80000d9c:	00858593          	addi	a1,a1,8
    80000da0:	000103b7          	lui	t2,0x10
    80000da4:	3f93839b          	addiw	t2,t2,1017
    80000da8:	01439393          	slli	t2,t2,0x14
    80000dac:	ef138393          	addi	t2,t2,-271 # fef1 <_start-0x7fff010f>
    80000db0:	00c39393          	slli	t2,t2,0xc
    80000db4:	ac438393          	addi	t2,t2,-1340
    80000db8:	40729063          	bne	t0,t2,800011b8 <fail>

0000000080000dbc <test_75>:
    80000dbc:	04b00193          	li	gp,75
    80000dc0:	0005b283          	ld	t0,0(a1)
    80000dc4:	00858593          	addi	a1,a1,8
    80000dc8:	010703b7          	lui	t2,0x1070
    80000dcc:	0013839b          	addiw	t2,t2,1
    80000dd0:	01839393          	slli	t2,t2,0x18
    80000dd4:	10038393          	addi	t2,t2,256 # 1070100 <_start-0x7ef8ff00>
    80000dd8:	3e729063          	bne	t0,t2,800011b8 <fail>

0000000080000ddc <test_76>:
    80000ddc:	04c00193          	li	gp,76
    80000de0:	0005b283          	ld	t0,0(a1)
    80000de4:	00858593          	addi	a1,a1,8
    80000de8:	000103b7          	lui	t2,0x10
    80000dec:	3f93839b          	addiw	t2,t2,1017
    80000df0:	01439393          	slli	t2,t2,0x14
    80000df4:	eff38393          	addi	t2,t2,-257 # feff <_start-0x7fff0101>
    80000df8:	00c39393          	slli	t2,t2,0xc
    80000dfc:	fff38393          	addi	t2,t2,-1
    80000e00:	3a729c63          	bne	t0,t2,800011b8 <fail>

0000000080000e04 <test_77>:
    80000e04:	04d00193          	li	gp,77
    80000e08:	0005b283          	ld	t0,0(a1)
    80000e0c:	00858593          	addi	a1,a1,8
    80000e10:	010703b7          	lui	t2,0x1070
    80000e14:	0013839b          	addiw	t2,t2,1
    80000e18:	01839393          	slli	t2,t2,0x18
    80000e1c:	10038393          	addi	t2,t2,256 # 1070100 <_start-0x7ef8ff00>
    80000e20:	38729c63          	bne	t0,t2,800011b8 <fail>

0000000080000e24 <test_78>:
    80000e24:	04e00193          	li	gp,78
    80000e28:	0005b283          	ld	t0,0(a1)
    80000e2c:	00858593          	addi	a1,a1,8
    80000e30:	000103b7          	lui	t2,0x10
    80000e34:	3f93839b          	addiw	t2,t2,1017
    80000e38:	01439393          	slli	t2,t2,0x14
    80000e3c:	eff38393          	addi	t2,t2,-257 # feff <_start-0x7fff0101>
    80000e40:	00c39393          	slli	t2,t2,0xc
    80000e44:	fff38393          	addi	t2,t2,-1
    80000e48:	36729863          	bne	t0,t2,800011b8 <fail>

0000000080000e4c <test_79>:
    80000e4c:	04f00193          	li	gp,79
    80000e50:	0005b283          	ld	t0,0(a1)
    80000e54:	00858593          	addi	a1,a1,8
    80000e58:	010703b7          	lui	t2,0x1070
    80000e5c:	0013839b          	addiw	t2,t2,1
    80000e60:	01839393          	slli	t2,t2,0x18
    80000e64:	10038393          	addi	t2,t2,256 # 1070100 <_start-0x7ef8ff00>
    80000e68:	34729863          	bne	t0,t2,800011b8 <fail>

0000000080000e6c <test_80>:
    80000e6c:	05000193          	li	gp,80
    80000e70:	0005b283          	ld	t0,0(a1)
    80000e74:	00858593          	addi	a1,a1,8
    80000e78:	000103b7          	lui	t2,0x10
    80000e7c:	3f93839b          	addiw	t2,t2,1017
    80000e80:	01439393          	slli	t2,t2,0x14
    80000e84:	eff38393          	addi	t2,t2,-257 # feff <_start-0x7fff0101>
    80000e88:	00c39393          	slli	t2,t2,0xc
    80000e8c:	fff38393          	addi	t2,t2,-1
    80000e90:	32729463          	bne	t0,t2,800011b8 <fail>

0000000080000e94 <test_81>:
    80000e94:	05100193          	li	gp,81
    80000e98:	0005b283          	ld	t0,0(a1)
    80000e9c:	00858593          	addi	a1,a1,8
    80000ea0:	010703b7          	lui	t2,0x1070
    80000ea4:	0013839b          	addiw	t2,t2,1
    80000ea8:	01839393          	slli	t2,t2,0x18
    80000eac:	10038393          	addi	t2,t2,256 # 1070100 <_start-0x7ef8ff00>
    80000eb0:	30729463          	bne	t0,t2,800011b8 <fail>
    80000eb4:	fff00293          	li	t0,-1
    80000eb8:	0c02f357          	vsetvli	t1,t0,e8,m1,ta,ma
    80000ebc:	00002617          	auipc	a2,0x2
    80000ec0:	1d460613          	addi	a2,a2,468 # 80003090 <tdat>
    80000ec4:	02060207          	vle8.v	v4,(a2)
    80000ec8:	0c12f357          	vsetvli	t1,t0,e8,m2,ta,ma
    80000ecc:	02060107          	vle8.v	v2,(a2)
    80000ed0:	00002617          	auipc	a2,0x2
    80000ed4:	1c860613          	addi	a2,a2,456 # 80003098 <tdat+0x8>
    80000ed8:	0c02f357          	vsetvli	t1,t0,e8,m1,ta,ma
    80000edc:	02060307          	vle8.v	v6,(a2)
    80000ee0:	fff00293          	li	t0,-1
    80000ee4:	0c02f357          	vsetvli	t1,t0,e8,m1,ta,ma
    80000ee8:	00002697          	auipc	a3,0x2
    80000eec:	1f068693          	addi	a3,a3,496 # 800030d8 <mask>
    80000ef0:	02068007          	vle8.v	v0,(a3)
    80000ef4:	02000293          	li	t0,32
    80000ef8:	0c02f357          	vsetvli	t1,t0,e8,m1,ta,ma
    80000efc:	c0430157          	vwredsumu.vs	v2,v4,v6,v0.t
    80000f00:	fff00293          	li	t0,-1
    80000f04:	0c12f357          	vsetvli	t1,t0,e8,m2,ta,ma
    80000f08:	00002597          	auipc	a1,0x2
    80000f0c:	0f858593          	addi	a1,a1,248 # 80003000 <begin_signature>
    80000f10:	02058127          	vse8.v	v2,(a1)

0000000080000f14 <test_82>:
    80000f14:	05200193          	li	gp,82
    80000f18:	0005b283          	ld	t0,0(a1)
    80000f1c:	00858593          	addi	a1,a1,8
    80000f20:	000103b7          	lui	t2,0x10
    80000f24:	3f93839b          	addiw	t2,t2,1017
    80000f28:	01039393          	slli	t2,t2,0x10
    80000f2c:	fef38393          	addi	t2,t2,-17 # ffef <_start-0x7fff0011>
    80000f30:	01039393          	slli	t2,t2,0x10
    80000f34:	6d038393          	addi	t2,t2,1744
    80000f38:	28729063          	bne	t0,t2,800011b8 <fail>

0000000080000f3c <test_83>:
    80000f3c:	05300193          	li	gp,83
    80000f40:	0005b283          	ld	t0,0(a1)
    80000f44:	00858593          	addi	a1,a1,8
    80000f48:	010703b7          	lui	t2,0x1070
    80000f4c:	0013839b          	addiw	t2,t2,1
    80000f50:	01839393          	slli	t2,t2,0x18
    80000f54:	10038393          	addi	t2,t2,256 # 1070100 <_start-0x7ef8ff00>
    80000f58:	26729063          	bne	t0,t2,800011b8 <fail>

0000000080000f5c <test_84>:
    80000f5c:	05400193          	li	gp,84
    80000f60:	0005b283          	ld	t0,0(a1)
    80000f64:	00858593          	addi	a1,a1,8
    80000f68:	000103b7          	lui	t2,0x10
    80000f6c:	3f93839b          	addiw	t2,t2,1017
    80000f70:	01439393          	slli	t2,t2,0x14
    80000f74:	eff38393          	addi	t2,t2,-257 # feff <_start-0x7fff0101>
    80000f78:	00c39393          	slli	t2,t2,0xc
    80000f7c:	fff38393          	addi	t2,t2,-1
    80000f80:	22729c63          	bne	t0,t2,800011b8 <fail>

0000000080000f84 <test_85>:
    80000f84:	05500193          	li	gp,85
    80000f88:	0005b283          	ld	t0,0(a1)
    80000f8c:	00858593          	addi	a1,a1,8
    80000f90:	010703b7          	lui	t2,0x1070
    80000f94:	0013839b          	addiw	t2,t2,1
    80000f98:	01839393          	slli	t2,t2,0x18
    80000f9c:	10038393          	addi	t2,t2,256 # 1070100 <_start-0x7ef8ff00>
    80000fa0:	20729c63          	bne	t0,t2,800011b8 <fail>

0000000080000fa4 <test_86>:
    80000fa4:	05600193          	li	gp,86
    80000fa8:	0005b283          	ld	t0,0(a1)
    80000fac:	00858593          	addi	a1,a1,8
    80000fb0:	000103b7          	lui	t2,0x10
    80000fb4:	3f93839b          	addiw	t2,t2,1017
    80000fb8:	01439393          	slli	t2,t2,0x14
    80000fbc:	eff38393          	addi	t2,t2,-257 # feff <_start-0x7fff0101>
    80000fc0:	00c39393          	slli	t2,t2,0xc
    80000fc4:	fff38393          	addi	t2,t2,-1
    80000fc8:	1e729863          	bne	t0,t2,800011b8 <fail>

0000000080000fcc <test_87>:
    80000fcc:	05700193          	li	gp,87
    80000fd0:	0005b283          	ld	t0,0(a1)
    80000fd4:	00858593          	addi	a1,a1,8
    80000fd8:	010703b7          	lui	t2,0x1070
    80000fdc:	0013839b          	addiw	t2,t2,1
    80000fe0:	01839393          	slli	t2,t2,0x18
    80000fe4:	10038393          	addi	t2,t2,256 # 1070100 <_start-0x7ef8ff00>
    80000fe8:	1c729863          	bne	t0,t2,800011b8 <fail>

0000000080000fec <test_88>:
    80000fec:	05800193          	li	gp,88
    80000ff0:	0005b283          	ld	t0,0(a1)
    80000ff4:	00858593          	addi	a1,a1,8
    80000ff8:	000103b7          	lui	t2,0x10
    80000ffc:	3f93839b          	addiw	t2,t2,1017
    80001000:	01439393          	slli	t2,t2,0x14
    80001004:	eff38393          	addi	t2,t2,-257 # feff <_start-0x7fff0101>
    80001008:	00c39393          	slli	t2,t2,0xc
    8000100c:	fff38393          	addi	t2,t2,-1
    80001010:	1a729463          	bne	t0,t2,800011b8 <fail>

0000000080001014 <test_89>:
    80001014:	05900193          	li	gp,89
    80001018:	0005b283          	ld	t0,0(a1)
    8000101c:	00858593          	addi	a1,a1,8
    80001020:	010703b7          	lui	t2,0x1070
    80001024:	0013839b          	addiw	t2,t2,1
    80001028:	01839393          	slli	t2,t2,0x18
    8000102c:	10038393          	addi	t2,t2,256 # 1070100 <_start-0x7ef8ff00>
    80001030:	18729463          	bne	t0,t2,800011b8 <fail>
    80001034:	fff00293          	li	t0,-1
    80001038:	0c02f357          	vsetvli	t1,t0,e8,m1,ta,ma
    8000103c:	00002617          	auipc	a2,0x2
    80001040:	05460613          	addi	a2,a2,84 # 80003090 <tdat>
    80001044:	02060207          	vle8.v	v4,(a2)
    80001048:	0c12f357          	vsetvli	t1,t0,e8,m2,ta,ma
    8000104c:	02060107          	vle8.v	v2,(a2)
    80001050:	00002617          	auipc	a2,0x2
    80001054:	04860613          	addi	a2,a2,72 # 80003098 <tdat+0x8>
    80001058:	0c02f357          	vsetvli	t1,t0,e8,m1,ta,ma
    8000105c:	02060307          	vle8.v	v6,(a2)
    80001060:	fff00293          	li	t0,-1
    80001064:	0c02f357          	vsetvli	t1,t0,e8,m1,ta,ma
    80001068:	00002697          	auipc	a3,0x2
    8000106c:	07068693          	addi	a3,a3,112 # 800030d8 <mask>
    80001070:	02068007          	vle8.v	v0,(a3)
    80001074:	02000293          	li	t0,32
    80001078:	0c02f357          	vsetvli	t1,t0,e8,m1,ta,ma
    8000107c:	c0430157          	vwredsumu.vs	v2,v4,v6,v0.t
    80001080:	fff00293          	li	t0,-1
    80001084:	0c12f357          	vsetvli	t1,t0,e8,m2,ta,ma
    80001088:	00002597          	auipc	a1,0x2
    8000108c:	f7858593          	addi	a1,a1,-136 # 80003000 <begin_signature>
    80001090:	02058127          	vse8.v	v2,(a1)

0000000080001094 <test_90>:
    80001094:	05a00193          	li	gp,90
    80001098:	0005b283          	ld	t0,0(a1)
    8000109c:	00858593          	addi	a1,a1,8
    800010a0:	000103b7          	lui	t2,0x10
    800010a4:	3f93839b          	addiw	t2,t2,1017
    800010a8:	01039393          	slli	t2,t2,0x10
    800010ac:	fef38393          	addi	t2,t2,-17 # ffef <_start-0x7fff0011>
    800010b0:	01039393          	slli	t2,t2,0x10
    800010b4:	6d038393          	addi	t2,t2,1744
    800010b8:	10729063          	bne	t0,t2,800011b8 <fail>

00000000800010bc <test_91>:
    800010bc:	05b00193          	li	gp,91
    800010c0:	0005b283          	ld	t0,0(a1)
    800010c4:	00858593          	addi	a1,a1,8
    800010c8:	010703b7          	lui	t2,0x1070
    800010cc:	0013839b          	addiw	t2,t2,1
    800010d0:	01839393          	slli	t2,t2,0x18
    800010d4:	10038393          	addi	t2,t2,256 # 1070100 <_start-0x7ef8ff00>
    800010d8:	0e729063          	bne	t0,t2,800011b8 <fail>

00000000800010dc <test_92>:
    800010dc:	05c00193          	li	gp,92
    800010e0:	0005b283          	ld	t0,0(a1)
    800010e4:	00858593          	addi	a1,a1,8
    800010e8:	000103b7          	lui	t2,0x10
    800010ec:	3f93839b          	addiw	t2,t2,1017
    800010f0:	01439393          	slli	t2,t2,0x14
    800010f4:	eff38393          	addi	t2,t2,-257 # feff <_start-0x7fff0101>
    800010f8:	00c39393          	slli	t2,t2,0xc
    800010fc:	fff38393          	addi	t2,t2,-1
    80001100:	0a729c63          	bne	t0,t2,800011b8 <fail>

0000000080001104 <test_93>:
    80001104:	05d00193          	li	gp,93
    80001108:	0005b283          	ld	t0,0(a1)
    8000110c:	00858593          	addi	a1,a1,8
    80001110:	010703b7          	lui	t2,0x1070
    80001114:	0013839b          	addiw	t2,t2,1
    80001118:	01839393          	slli	t2,t2,0x18
    8000111c:	10038393          	addi	t2,t2,256 # 1070100 <_start-0x7ef8ff00>
    80001120:	08729c63          	bne	t0,t2,800011b8 <fail>

0000000080001124 <test_94>:
    80001124:	05e00193          	li	gp,94
    80001128:	0005b283          	ld	t0,0(a1)
    8000112c:	00858593          	addi	a1,a1,8
    80001130:	000103b7          	lui	t2,0x10
    80001134:	3f93839b          	addiw	t2,t2,1017
    80001138:	01439393          	slli	t2,t2,0x14
    8000113c:	eff38393          	addi	t2,t2,-257 # feff <_start-0x7fff0101>
    80001140:	00c39393          	slli	t2,t2,0xc
    80001144:	fff38393          	addi	t2,t2,-1
    80001148:	06729863          	bne	t0,t2,800011b8 <fail>

000000008000114c <test_95>:
    8000114c:	05f00193          	li	gp,95
    80001150:	0005b283          	ld	t0,0(a1)
    80001154:	00858593          	addi	a1,a1,8
    80001158:	010703b7          	lui	t2,0x1070
    8000115c:	0013839b          	addiw	t2,t2,1
    80001160:	01839393          	slli	t2,t2,0x18
    80001164:	10038393          	addi	t2,t2,256 # 1070100 <_start-0x7ef8ff00>
    80001168:	04729863          	bne	t0,t2,800011b8 <fail>

000000008000116c <test_96>:
    8000116c:	06000193          	li	gp,96
    80001170:	0005b283          	ld	t0,0(a1)
    80001174:	00858593          	addi	a1,a1,8
    80001178:	000103b7          	lui	t2,0x10
    8000117c:	3f93839b          	addiw	t2,t2,1017
    80001180:	01439393          	slli	t2,t2,0x14
    80001184:	eff38393          	addi	t2,t2,-257 # feff <_start-0x7fff0101>
    80001188:	00c39393          	slli	t2,t2,0xc
    8000118c:	fff38393          	addi	t2,t2,-1
    80001190:	02729463          	bne	t0,t2,800011b8 <fail>

0000000080001194 <test_97>:
    80001194:	06100193          	li	gp,97
    80001198:	0005b283          	ld	t0,0(a1)
    8000119c:	00858593          	addi	a1,a1,8
    800011a0:	010703b7          	lui	t2,0x1070
    800011a4:	0013839b          	addiw	t2,t2,1
    800011a8:	01839393          	slli	t2,t2,0x18
    800011ac:	10038393          	addi	t2,t2,256 # 1070100 <_start-0x7ef8ff00>
    800011b0:	00729463          	bne	t0,t2,800011b8 <fail>
    800011b4:	00301a63          	bne	zero,gp,800011c8 <pass>

00000000800011b8 <fail>:
    800011b8:	0ff0000f          	fence
    800011bc:	00018513          	mv	a0,gp
    800011c0:	05d00893          	li	a7,93
    800011c4:	00000073          	ecall

00000000800011c8 <pass>:
    800011c8:	0ff0000f          	fence
    800011cc:	00000513          	li	a0,0
    800011d0:	05d00893          	li	a7,93
    800011d4:	00000073          	ecall
    800011d8:	0000                	unimp
    800011da:	0000                	unimp
    800011dc:	0000                	unimp
    800011de:	0000                	unimp
    800011e0:	0000                	unimp
    800011e2:	0000                	unimp
    800011e4:	0000                	unimp
    800011e6:	0000                	unimp
    800011e8:	0000                	unimp
    800011ea:	0000                	unimp
    800011ec:	0000                	unimp
    800011ee:	0000                	unimp
    800011f0:	0000                	unimp
    800011f2:	0000                	unimp
    800011f4:	0000                	unimp
    800011f6:	0000                	unimp
    800011f8:	0000                	unimp
    800011fa:	0000                	unimp
    800011fc:	0000                	unimp
    800011fe:	0000                	unimp
    80001200:	0000                	unimp
    80001202:	0000                	unimp
