
rv64uv-ps-vwredsumu.vs_LMUL2SEW8:     file format elf64-littleriscv


Disassembly of section .text.init:

0000000080000000 <_start>:
    80000000:	00000297          	auipc	t0,0x0
    80000004:	00c28293          	addi	t0,t0,12 # 8000000c <_start+0xc>
    80000008:	00028067          	jr	t0
    8000000c:	fff00293          	li	t0,-1
    80000010:	0c12f357          	vsetvli	t1,t0,e8,m2,ta,ma
    80000014:	00004617          	auipc	a2,0x4
    80000018:	0fc60613          	addi	a2,a2,252 # 80004110 <tdat>
    8000001c:	02060407          	vle8.v	v8,(a2)
    80000020:	0c22f357          	vsetvli	t1,t0,e8,m4,ta,ma
    80000024:	02060207          	vle8.v	v4,(a2)
    80000028:	00004617          	auipc	a2,0x4
    8000002c:	0f060613          	addi	a2,a2,240 # 80004118 <tdat+0x8>
    80000030:	0c12f357          	vsetvli	t1,t0,e8,m2,ta,ma
    80000034:	02060607          	vle8.v	v12,(a2)
    80000038:	02000293          	li	t0,32
    8000003c:	0c12f357          	vsetvli	t1,t0,e8,m2,ta,ma
    80000040:	c2860257          	vwredsumu.vs	v4,v8,v12
    80000044:	fff00293          	li	t0,-1
    80000048:	0c22f357          	vsetvli	t1,t0,e8,m4,ta,ma
    8000004c:	00004597          	auipc	a1,0x4
    80000050:	fb458593          	addi	a1,a1,-76 # 80004000 <begin_signature>
    80000054:	02058227          	vse8.v	v4,(a1)

0000000080000058 <test_2>:
    80000058:	00200193          	li	gp,2
    8000005c:	0005b283          	ld	t0,0(a1)
    80000060:	00858593          	addi	a1,a1,8
    80000064:	000103b7          	lui	t2,0x10
    80000068:	3f93839b          	addiw	t2,t2,1017
    8000006c:	01439393          	slli	t2,t2,0x14
    80000070:	ef138393          	addi	t2,t2,-271 # fef1 <_start-0x7fff010f>
    80000074:	00c39393          	slli	t2,t2,0xc
    80000078:	ac438393          	addi	t2,t2,-1340
    8000007c:	00728463          	beq	t0,t2,80000084 <test_3>
    80000080:	00c0206f          	j	8000208c <fail>

0000000080000084 <test_3>:
    80000084:	00300193          	li	gp,3
    80000088:	0005b283          	ld	t0,0(a1)
    8000008c:	00858593          	addi	a1,a1,8
    80000090:	010703b7          	lui	t2,0x1070
    80000094:	0013839b          	addiw	t2,t2,1
    80000098:	01839393          	slli	t2,t2,0x18
    8000009c:	10038393          	addi	t2,t2,256 # 1070100 <_start-0x7ef8ff00>
    800000a0:	00728463          	beq	t0,t2,800000a8 <test_4>
    800000a4:	7e90106f          	j	8000208c <fail>

00000000800000a8 <test_4>:
    800000a8:	00400193          	li	gp,4
    800000ac:	0005b283          	ld	t0,0(a1)
    800000b0:	00858593          	addi	a1,a1,8
    800000b4:	000103b7          	lui	t2,0x10
    800000b8:	3f93839b          	addiw	t2,t2,1017
    800000bc:	01439393          	slli	t2,t2,0x14
    800000c0:	eff38393          	addi	t2,t2,-257 # feff <_start-0x7fff0101>
    800000c4:	00c39393          	slli	t2,t2,0xc
    800000c8:	fff38393          	addi	t2,t2,-1
    800000cc:	00728463          	beq	t0,t2,800000d4 <test_5>
    800000d0:	7bd0106f          	j	8000208c <fail>

00000000800000d4 <test_5>:
    800000d4:	00500193          	li	gp,5
    800000d8:	0005b283          	ld	t0,0(a1)
    800000dc:	00858593          	addi	a1,a1,8
    800000e0:	010703b7          	lui	t2,0x1070
    800000e4:	0013839b          	addiw	t2,t2,1
    800000e8:	01839393          	slli	t2,t2,0x18
    800000ec:	10038393          	addi	t2,t2,256 # 1070100 <_start-0x7ef8ff00>
    800000f0:	00728463          	beq	t0,t2,800000f8 <test_6>
    800000f4:	7990106f          	j	8000208c <fail>

00000000800000f8 <test_6>:
    800000f8:	00600193          	li	gp,6
    800000fc:	0005b283          	ld	t0,0(a1)
    80000100:	00858593          	addi	a1,a1,8
    80000104:	000103b7          	lui	t2,0x10
    80000108:	3f93839b          	addiw	t2,t2,1017
    8000010c:	01439393          	slli	t2,t2,0x14
    80000110:	eff38393          	addi	t2,t2,-257 # feff <_start-0x7fff0101>
    80000114:	00c39393          	slli	t2,t2,0xc
    80000118:	fff38393          	addi	t2,t2,-1
    8000011c:	00728463          	beq	t0,t2,80000124 <test_7>
    80000120:	76d0106f          	j	8000208c <fail>

0000000080000124 <test_7>:
    80000124:	00700193          	li	gp,7
    80000128:	0005b283          	ld	t0,0(a1)
    8000012c:	00858593          	addi	a1,a1,8
    80000130:	010703b7          	lui	t2,0x1070
    80000134:	0013839b          	addiw	t2,t2,1
    80000138:	01839393          	slli	t2,t2,0x18
    8000013c:	10038393          	addi	t2,t2,256 # 1070100 <_start-0x7ef8ff00>
    80000140:	00728463          	beq	t0,t2,80000148 <test_8>
    80000144:	7490106f          	j	8000208c <fail>

0000000080000148 <test_8>:
    80000148:	00800193          	li	gp,8
    8000014c:	0005b283          	ld	t0,0(a1)
    80000150:	00858593          	addi	a1,a1,8
    80000154:	000103b7          	lui	t2,0x10
    80000158:	3f93839b          	addiw	t2,t2,1017
    8000015c:	01439393          	slli	t2,t2,0x14
    80000160:	eff38393          	addi	t2,t2,-257 # feff <_start-0x7fff0101>
    80000164:	00c39393          	slli	t2,t2,0xc
    80000168:	fff38393          	addi	t2,t2,-1
    8000016c:	00728463          	beq	t0,t2,80000174 <test_9>
    80000170:	71d0106f          	j	8000208c <fail>

0000000080000174 <test_9>:
    80000174:	00900193          	li	gp,9
    80000178:	0005b283          	ld	t0,0(a1)
    8000017c:	00858593          	addi	a1,a1,8
    80000180:	010703b7          	lui	t2,0x1070
    80000184:	0013839b          	addiw	t2,t2,1
    80000188:	01839393          	slli	t2,t2,0x18
    8000018c:	10038393          	addi	t2,t2,256 # 1070100 <_start-0x7ef8ff00>
    80000190:	00728463          	beq	t0,t2,80000198 <test_10>
    80000194:	6f90106f          	j	8000208c <fail>

0000000080000198 <test_10>:
    80000198:	00a00193          	li	gp,10
    8000019c:	0005b283          	ld	t0,0(a1)
    800001a0:	00858593          	addi	a1,a1,8
    800001a4:	000103b7          	lui	t2,0x10
    800001a8:	3f93839b          	addiw	t2,t2,1017
    800001ac:	01439393          	slli	t2,t2,0x14
    800001b0:	eff38393          	addi	t2,t2,-257 # feff <_start-0x7fff0101>
    800001b4:	00c39393          	slli	t2,t2,0xc
    800001b8:	fff38393          	addi	t2,t2,-1
    800001bc:	00728463          	beq	t0,t2,800001c4 <test_11>
    800001c0:	6cd0106f          	j	8000208c <fail>

00000000800001c4 <test_11>:
    800001c4:	00b00193          	li	gp,11
    800001c8:	0005b283          	ld	t0,0(a1)
    800001cc:	00858593          	addi	a1,a1,8
    800001d0:	010703b7          	lui	t2,0x1070
    800001d4:	0013839b          	addiw	t2,t2,1
    800001d8:	01839393          	slli	t2,t2,0x18
    800001dc:	10038393          	addi	t2,t2,256 # 1070100 <_start-0x7ef8ff00>
    800001e0:	00728463          	beq	t0,t2,800001e8 <test_12>
    800001e4:	6a90106f          	j	8000208c <fail>

00000000800001e8 <test_12>:
    800001e8:	00c00193          	li	gp,12
    800001ec:	0005b283          	ld	t0,0(a1)
    800001f0:	00858593          	addi	a1,a1,8
    800001f4:	000103b7          	lui	t2,0x10
    800001f8:	3f93839b          	addiw	t2,t2,1017
    800001fc:	01439393          	slli	t2,t2,0x14
    80000200:	eff38393          	addi	t2,t2,-257 # feff <_start-0x7fff0101>
    80000204:	00c39393          	slli	t2,t2,0xc
    80000208:	fff38393          	addi	t2,t2,-1
    8000020c:	00728463          	beq	t0,t2,80000214 <test_13>
    80000210:	67d0106f          	j	8000208c <fail>

0000000080000214 <test_13>:
    80000214:	00d00193          	li	gp,13
    80000218:	0005b283          	ld	t0,0(a1)
    8000021c:	00858593          	addi	a1,a1,8
    80000220:	010703b7          	lui	t2,0x1070
    80000224:	0013839b          	addiw	t2,t2,1
    80000228:	01839393          	slli	t2,t2,0x18
    8000022c:	10038393          	addi	t2,t2,256 # 1070100 <_start-0x7ef8ff00>
    80000230:	00728463          	beq	t0,t2,80000238 <test_14>
    80000234:	6590106f          	j	8000208c <fail>

0000000080000238 <test_14>:
    80000238:	00e00193          	li	gp,14
    8000023c:	0005b283          	ld	t0,0(a1)
    80000240:	00858593          	addi	a1,a1,8
    80000244:	000103b7          	lui	t2,0x10
    80000248:	3f93839b          	addiw	t2,t2,1017
    8000024c:	01439393          	slli	t2,t2,0x14
    80000250:	eff38393          	addi	t2,t2,-257 # feff <_start-0x7fff0101>
    80000254:	00c39393          	slli	t2,t2,0xc
    80000258:	fff38393          	addi	t2,t2,-1
    8000025c:	00728463          	beq	t0,t2,80000264 <test_15>
    80000260:	62d0106f          	j	8000208c <fail>

0000000080000264 <test_15>:
    80000264:	00f00193          	li	gp,15
    80000268:	0005b283          	ld	t0,0(a1)
    8000026c:	00858593          	addi	a1,a1,8
    80000270:	010703b7          	lui	t2,0x1070
    80000274:	0013839b          	addiw	t2,t2,1
    80000278:	01839393          	slli	t2,t2,0x18
    8000027c:	10038393          	addi	t2,t2,256 # 1070100 <_start-0x7ef8ff00>
    80000280:	00728463          	beq	t0,t2,80000288 <test_16>
    80000284:	6090106f          	j	8000208c <fail>

0000000080000288 <test_16>:
    80000288:	01000193          	li	gp,16
    8000028c:	0005b283          	ld	t0,0(a1)
    80000290:	00858593          	addi	a1,a1,8
    80000294:	000103b7          	lui	t2,0x10
    80000298:	3f93839b          	addiw	t2,t2,1017
    8000029c:	01439393          	slli	t2,t2,0x14
    800002a0:	eff38393          	addi	t2,t2,-257 # feff <_start-0x7fff0101>
    800002a4:	00c39393          	slli	t2,t2,0xc
    800002a8:	fff38393          	addi	t2,t2,-1
    800002ac:	00728463          	beq	t0,t2,800002b4 <test_17>
    800002b0:	5dd0106f          	j	8000208c <fail>

00000000800002b4 <test_17>:
    800002b4:	01100193          	li	gp,17
    800002b8:	0005b283          	ld	t0,0(a1)
    800002bc:	00858593          	addi	a1,a1,8
    800002c0:	010703b7          	lui	t2,0x1070
    800002c4:	0013839b          	addiw	t2,t2,1
    800002c8:	01839393          	slli	t2,t2,0x18
    800002cc:	10038393          	addi	t2,t2,256 # 1070100 <_start-0x7ef8ff00>
    800002d0:	00728463          	beq	t0,t2,800002d8 <test_17+0x24>
    800002d4:	5b90106f          	j	8000208c <fail>
    800002d8:	fff00293          	li	t0,-1
    800002dc:	0c12f357          	vsetvli	t1,t0,e8,m2,ta,ma
    800002e0:	00004617          	auipc	a2,0x4
    800002e4:	e3060613          	addi	a2,a2,-464 # 80004110 <tdat>
    800002e8:	02060407          	vle8.v	v8,(a2)
    800002ec:	0c22f357          	vsetvli	t1,t0,e8,m4,ta,ma
    800002f0:	02060207          	vle8.v	v4,(a2)
    800002f4:	00004617          	auipc	a2,0x4
    800002f8:	e2460613          	addi	a2,a2,-476 # 80004118 <tdat+0x8>
    800002fc:	0c12f357          	vsetvli	t1,t0,e8,m2,ta,ma
    80000300:	02060607          	vle8.v	v12,(a2)
    80000304:	02000293          	li	t0,32
    80000308:	0812f357          	vsetvli	t1,t0,e8,m2,tu,ma
    8000030c:	c2860257          	vwredsumu.vs	v4,v8,v12
    80000310:	fff00293          	li	t0,-1
    80000314:	0c22f357          	vsetvli	t1,t0,e8,m4,ta,ma
    80000318:	00004597          	auipc	a1,0x4
    8000031c:	ce858593          	addi	a1,a1,-792 # 80004000 <begin_signature>
    80000320:	02058227          	vse8.v	v4,(a1)

0000000080000324 <test_18>:
    80000324:	01200193          	li	gp,18
    80000328:	0005b283          	ld	t0,0(a1)
    8000032c:	00858593          	addi	a1,a1,8
    80000330:	000103b7          	lui	t2,0x10
    80000334:	3f93839b          	addiw	t2,t2,1017
    80000338:	01439393          	slli	t2,t2,0x14
    8000033c:	ef138393          	addi	t2,t2,-271 # fef1 <_start-0x7fff010f>
    80000340:	00c39393          	slli	t2,t2,0xc
    80000344:	ac438393          	addi	t2,t2,-1340
    80000348:	00728463          	beq	t0,t2,80000350 <test_19>
    8000034c:	5410106f          	j	8000208c <fail>

0000000080000350 <test_19>:
    80000350:	01300193          	li	gp,19
    80000354:	0005b283          	ld	t0,0(a1)
    80000358:	00858593          	addi	a1,a1,8
    8000035c:	010703b7          	lui	t2,0x1070
    80000360:	0013839b          	addiw	t2,t2,1
    80000364:	01839393          	slli	t2,t2,0x18
    80000368:	10038393          	addi	t2,t2,256 # 1070100 <_start-0x7ef8ff00>
    8000036c:	00728463          	beq	t0,t2,80000374 <test_20>
    80000370:	51d0106f          	j	8000208c <fail>

0000000080000374 <test_20>:
    80000374:	01400193          	li	gp,20
    80000378:	0005b283          	ld	t0,0(a1)
    8000037c:	00858593          	addi	a1,a1,8
    80000380:	000103b7          	lui	t2,0x10
    80000384:	3f93839b          	addiw	t2,t2,1017
    80000388:	01439393          	slli	t2,t2,0x14
    8000038c:	eff38393          	addi	t2,t2,-257 # feff <_start-0x7fff0101>
    80000390:	00c39393          	slli	t2,t2,0xc
    80000394:	fff38393          	addi	t2,t2,-1
    80000398:	00728463          	beq	t0,t2,800003a0 <test_21>
    8000039c:	4f10106f          	j	8000208c <fail>

00000000800003a0 <test_21>:
    800003a0:	01500193          	li	gp,21
    800003a4:	0005b283          	ld	t0,0(a1)
    800003a8:	00858593          	addi	a1,a1,8
    800003ac:	010703b7          	lui	t2,0x1070
    800003b0:	0013839b          	addiw	t2,t2,1
    800003b4:	01839393          	slli	t2,t2,0x18
    800003b8:	10038393          	addi	t2,t2,256 # 1070100 <_start-0x7ef8ff00>
    800003bc:	00728463          	beq	t0,t2,800003c4 <test_22>
    800003c0:	4cd0106f          	j	8000208c <fail>

00000000800003c4 <test_22>:
    800003c4:	01600193          	li	gp,22
    800003c8:	0005b283          	ld	t0,0(a1)
    800003cc:	00858593          	addi	a1,a1,8
    800003d0:	000103b7          	lui	t2,0x10
    800003d4:	3f93839b          	addiw	t2,t2,1017
    800003d8:	01439393          	slli	t2,t2,0x14
    800003dc:	eff38393          	addi	t2,t2,-257 # feff <_start-0x7fff0101>
    800003e0:	00c39393          	slli	t2,t2,0xc
    800003e4:	fff38393          	addi	t2,t2,-1
    800003e8:	00728463          	beq	t0,t2,800003f0 <test_23>
    800003ec:	4a10106f          	j	8000208c <fail>

00000000800003f0 <test_23>:
    800003f0:	01700193          	li	gp,23
    800003f4:	0005b283          	ld	t0,0(a1)
    800003f8:	00858593          	addi	a1,a1,8
    800003fc:	010703b7          	lui	t2,0x1070
    80000400:	0013839b          	addiw	t2,t2,1
    80000404:	01839393          	slli	t2,t2,0x18
    80000408:	10038393          	addi	t2,t2,256 # 1070100 <_start-0x7ef8ff00>
    8000040c:	00728463          	beq	t0,t2,80000414 <test_24>
    80000410:	47d0106f          	j	8000208c <fail>

0000000080000414 <test_24>:
    80000414:	01800193          	li	gp,24
    80000418:	0005b283          	ld	t0,0(a1)
    8000041c:	00858593          	addi	a1,a1,8
    80000420:	000103b7          	lui	t2,0x10
    80000424:	3f93839b          	addiw	t2,t2,1017
    80000428:	01439393          	slli	t2,t2,0x14
    8000042c:	eff38393          	addi	t2,t2,-257 # feff <_start-0x7fff0101>
    80000430:	00c39393          	slli	t2,t2,0xc
    80000434:	fff38393          	addi	t2,t2,-1
    80000438:	00728463          	beq	t0,t2,80000440 <test_25>
    8000043c:	4510106f          	j	8000208c <fail>

0000000080000440 <test_25>:
    80000440:	01900193          	li	gp,25
    80000444:	0005b283          	ld	t0,0(a1)
    80000448:	00858593          	addi	a1,a1,8
    8000044c:	010703b7          	lui	t2,0x1070
    80000450:	0013839b          	addiw	t2,t2,1
    80000454:	01839393          	slli	t2,t2,0x18
    80000458:	10038393          	addi	t2,t2,256 # 1070100 <_start-0x7ef8ff00>
    8000045c:	00728463          	beq	t0,t2,80000464 <test_26>
    80000460:	42d0106f          	j	8000208c <fail>

0000000080000464 <test_26>:
    80000464:	01a00193          	li	gp,26
    80000468:	0005b283          	ld	t0,0(a1)
    8000046c:	00858593          	addi	a1,a1,8
    80000470:	000103b7          	lui	t2,0x10
    80000474:	3f93839b          	addiw	t2,t2,1017
    80000478:	01439393          	slli	t2,t2,0x14
    8000047c:	eff38393          	addi	t2,t2,-257 # feff <_start-0x7fff0101>
    80000480:	00c39393          	slli	t2,t2,0xc
    80000484:	fff38393          	addi	t2,t2,-1
    80000488:	00728463          	beq	t0,t2,80000490 <test_27>
    8000048c:	4010106f          	j	8000208c <fail>

0000000080000490 <test_27>:
    80000490:	01b00193          	li	gp,27
    80000494:	0005b283          	ld	t0,0(a1)
    80000498:	00858593          	addi	a1,a1,8
    8000049c:	010703b7          	lui	t2,0x1070
    800004a0:	0013839b          	addiw	t2,t2,1
    800004a4:	01839393          	slli	t2,t2,0x18
    800004a8:	10038393          	addi	t2,t2,256 # 1070100 <_start-0x7ef8ff00>
    800004ac:	00728463          	beq	t0,t2,800004b4 <test_28>
    800004b0:	3dd0106f          	j	8000208c <fail>

00000000800004b4 <test_28>:
    800004b4:	01c00193          	li	gp,28
    800004b8:	0005b283          	ld	t0,0(a1)
    800004bc:	00858593          	addi	a1,a1,8
    800004c0:	000103b7          	lui	t2,0x10
    800004c4:	3f93839b          	addiw	t2,t2,1017
    800004c8:	01439393          	slli	t2,t2,0x14
    800004cc:	eff38393          	addi	t2,t2,-257 # feff <_start-0x7fff0101>
    800004d0:	00c39393          	slli	t2,t2,0xc
    800004d4:	fff38393          	addi	t2,t2,-1
    800004d8:	00728463          	beq	t0,t2,800004e0 <test_29>
    800004dc:	3b10106f          	j	8000208c <fail>

00000000800004e0 <test_29>:
    800004e0:	01d00193          	li	gp,29
    800004e4:	0005b283          	ld	t0,0(a1)
    800004e8:	00858593          	addi	a1,a1,8
    800004ec:	010703b7          	lui	t2,0x1070
    800004f0:	0013839b          	addiw	t2,t2,1
    800004f4:	01839393          	slli	t2,t2,0x18
    800004f8:	10038393          	addi	t2,t2,256 # 1070100 <_start-0x7ef8ff00>
    800004fc:	00728463          	beq	t0,t2,80000504 <test_30>
    80000500:	38d0106f          	j	8000208c <fail>

0000000080000504 <test_30>:
    80000504:	01e00193          	li	gp,30
    80000508:	0005b283          	ld	t0,0(a1)
    8000050c:	00858593          	addi	a1,a1,8
    80000510:	000103b7          	lui	t2,0x10
    80000514:	3f93839b          	addiw	t2,t2,1017
    80000518:	01439393          	slli	t2,t2,0x14
    8000051c:	eff38393          	addi	t2,t2,-257 # feff <_start-0x7fff0101>
    80000520:	00c39393          	slli	t2,t2,0xc
    80000524:	fff38393          	addi	t2,t2,-1
    80000528:	00728463          	beq	t0,t2,80000530 <test_31>
    8000052c:	3610106f          	j	8000208c <fail>

0000000080000530 <test_31>:
    80000530:	01f00193          	li	gp,31
    80000534:	0005b283          	ld	t0,0(a1)
    80000538:	00858593          	addi	a1,a1,8
    8000053c:	010703b7          	lui	t2,0x1070
    80000540:	0013839b          	addiw	t2,t2,1
    80000544:	01839393          	slli	t2,t2,0x18
    80000548:	10038393          	addi	t2,t2,256 # 1070100 <_start-0x7ef8ff00>
    8000054c:	00728463          	beq	t0,t2,80000554 <test_32>
    80000550:	33d0106f          	j	8000208c <fail>

0000000080000554 <test_32>:
    80000554:	02000193          	li	gp,32
    80000558:	0005b283          	ld	t0,0(a1)
    8000055c:	00858593          	addi	a1,a1,8
    80000560:	000103b7          	lui	t2,0x10
    80000564:	3f93839b          	addiw	t2,t2,1017
    80000568:	01439393          	slli	t2,t2,0x14
    8000056c:	eff38393          	addi	t2,t2,-257 # feff <_start-0x7fff0101>
    80000570:	00c39393          	slli	t2,t2,0xc
    80000574:	fff38393          	addi	t2,t2,-1
    80000578:	00728463          	beq	t0,t2,80000580 <test_33>
    8000057c:	3110106f          	j	8000208c <fail>

0000000080000580 <test_33>:
    80000580:	02100193          	li	gp,33
    80000584:	0005b283          	ld	t0,0(a1)
    80000588:	00858593          	addi	a1,a1,8
    8000058c:	010703b7          	lui	t2,0x1070
    80000590:	0013839b          	addiw	t2,t2,1
    80000594:	01839393          	slli	t2,t2,0x18
    80000598:	10038393          	addi	t2,t2,256 # 1070100 <_start-0x7ef8ff00>
    8000059c:	00728463          	beq	t0,t2,800005a4 <test_33+0x24>
    800005a0:	2ed0106f          	j	8000208c <fail>
    800005a4:	fff00293          	li	t0,-1
    800005a8:	0c12f357          	vsetvli	t1,t0,e8,m2,ta,ma
    800005ac:	00004617          	auipc	a2,0x4
    800005b0:	b6460613          	addi	a2,a2,-1180 # 80004110 <tdat>
    800005b4:	02060407          	vle8.v	v8,(a2)
    800005b8:	0c22f357          	vsetvli	t1,t0,e8,m4,ta,ma
    800005bc:	02060207          	vle8.v	v4,(a2)
    800005c0:	00004617          	auipc	a2,0x4
    800005c4:	b5860613          	addi	a2,a2,-1192 # 80004118 <tdat+0x8>
    800005c8:	0c12f357          	vsetvli	t1,t0,e8,m2,ta,ma
    800005cc:	02060607          	vle8.v	v12,(a2)
    800005d0:	fff00293          	li	t0,-1
    800005d4:	0c02f357          	vsetvli	t1,t0,e8,m1,ta,ma
    800005d8:	00004697          	auipc	a3,0x4
    800005dc:	bc068693          	addi	a3,a3,-1088 # 80004198 <mask>
    800005e0:	02068007          	vle8.v	v0,(a3)
    800005e4:	02000293          	li	t0,32
    800005e8:	0c12f357          	vsetvli	t1,t0,e8,m2,ta,ma
    800005ec:	c0860257          	vwredsumu.vs	v4,v8,v12,v0.t
    800005f0:	fff00293          	li	t0,-1
    800005f4:	0c22f357          	vsetvli	t1,t0,e8,m4,ta,ma
    800005f8:	00004597          	auipc	a1,0x4
    800005fc:	a0858593          	addi	a1,a1,-1528 # 80004000 <begin_signature>
    80000600:	02058227          	vse8.v	v4,(a1)

0000000080000604 <test_34>:
    80000604:	02200193          	li	gp,34
    80000608:	0005b283          	ld	t0,0(a1)
    8000060c:	00858593          	addi	a1,a1,8
    80000610:	000103b7          	lui	t2,0x10
    80000614:	3f93839b          	addiw	t2,t2,1017
    80000618:	01039393          	slli	t2,t2,0x10
    8000061c:	fef38393          	addi	t2,t2,-17 # ffef <_start-0x7fff0011>
    80000620:	01039393          	slli	t2,t2,0x10
    80000624:	6d038393          	addi	t2,t2,1744
    80000628:	00728463          	beq	t0,t2,80000630 <test_35>
    8000062c:	2610106f          	j	8000208c <fail>

0000000080000630 <test_35>:
    80000630:	02300193          	li	gp,35
    80000634:	0005b283          	ld	t0,0(a1)
    80000638:	00858593          	addi	a1,a1,8
    8000063c:	010703b7          	lui	t2,0x1070
    80000640:	0013839b          	addiw	t2,t2,1
    80000644:	01839393          	slli	t2,t2,0x18
    80000648:	10038393          	addi	t2,t2,256 # 1070100 <_start-0x7ef8ff00>
    8000064c:	00728463          	beq	t0,t2,80000654 <test_36>
    80000650:	23d0106f          	j	8000208c <fail>

0000000080000654 <test_36>:
    80000654:	02400193          	li	gp,36
    80000658:	0005b283          	ld	t0,0(a1)
    8000065c:	00858593          	addi	a1,a1,8
    80000660:	000103b7          	lui	t2,0x10
    80000664:	3f93839b          	addiw	t2,t2,1017
    80000668:	01439393          	slli	t2,t2,0x14
    8000066c:	eff38393          	addi	t2,t2,-257 # feff <_start-0x7fff0101>
    80000670:	00c39393          	slli	t2,t2,0xc
    80000674:	fff38393          	addi	t2,t2,-1
    80000678:	00728463          	beq	t0,t2,80000680 <test_37>
    8000067c:	2110106f          	j	8000208c <fail>

0000000080000680 <test_37>:
    80000680:	02500193          	li	gp,37
    80000684:	0005b283          	ld	t0,0(a1)
    80000688:	00858593          	addi	a1,a1,8
    8000068c:	010703b7          	lui	t2,0x1070
    80000690:	0013839b          	addiw	t2,t2,1
    80000694:	01839393          	slli	t2,t2,0x18
    80000698:	10038393          	addi	t2,t2,256 # 1070100 <_start-0x7ef8ff00>
    8000069c:	00728463          	beq	t0,t2,800006a4 <test_38>
    800006a0:	1ed0106f          	j	8000208c <fail>

00000000800006a4 <test_38>:
    800006a4:	02600193          	li	gp,38
    800006a8:	0005b283          	ld	t0,0(a1)
    800006ac:	00858593          	addi	a1,a1,8
    800006b0:	000103b7          	lui	t2,0x10
    800006b4:	3f93839b          	addiw	t2,t2,1017
    800006b8:	01439393          	slli	t2,t2,0x14
    800006bc:	eff38393          	addi	t2,t2,-257 # feff <_start-0x7fff0101>
    800006c0:	00c39393          	slli	t2,t2,0xc
    800006c4:	fff38393          	addi	t2,t2,-1
    800006c8:	00728463          	beq	t0,t2,800006d0 <test_39>
    800006cc:	1c10106f          	j	8000208c <fail>

00000000800006d0 <test_39>:
    800006d0:	02700193          	li	gp,39
    800006d4:	0005b283          	ld	t0,0(a1)
    800006d8:	00858593          	addi	a1,a1,8
    800006dc:	010703b7          	lui	t2,0x1070
    800006e0:	0013839b          	addiw	t2,t2,1
    800006e4:	01839393          	slli	t2,t2,0x18
    800006e8:	10038393          	addi	t2,t2,256 # 1070100 <_start-0x7ef8ff00>
    800006ec:	00728463          	beq	t0,t2,800006f4 <test_40>
    800006f0:	19d0106f          	j	8000208c <fail>

00000000800006f4 <test_40>:
    800006f4:	02800193          	li	gp,40
    800006f8:	0005b283          	ld	t0,0(a1)
    800006fc:	00858593          	addi	a1,a1,8
    80000700:	000103b7          	lui	t2,0x10
    80000704:	3f93839b          	addiw	t2,t2,1017
    80000708:	01439393          	slli	t2,t2,0x14
    8000070c:	eff38393          	addi	t2,t2,-257 # feff <_start-0x7fff0101>
    80000710:	00c39393          	slli	t2,t2,0xc
    80000714:	fff38393          	addi	t2,t2,-1
    80000718:	00728463          	beq	t0,t2,80000720 <test_41>
    8000071c:	1710106f          	j	8000208c <fail>

0000000080000720 <test_41>:
    80000720:	02900193          	li	gp,41
    80000724:	0005b283          	ld	t0,0(a1)
    80000728:	00858593          	addi	a1,a1,8
    8000072c:	010703b7          	lui	t2,0x1070
    80000730:	0013839b          	addiw	t2,t2,1
    80000734:	01839393          	slli	t2,t2,0x18
    80000738:	10038393          	addi	t2,t2,256 # 1070100 <_start-0x7ef8ff00>
    8000073c:	00728463          	beq	t0,t2,80000744 <test_42>
    80000740:	14d0106f          	j	8000208c <fail>

0000000080000744 <test_42>:
    80000744:	02a00193          	li	gp,42
    80000748:	0005b283          	ld	t0,0(a1)
    8000074c:	00858593          	addi	a1,a1,8
    80000750:	000103b7          	lui	t2,0x10
    80000754:	3f93839b          	addiw	t2,t2,1017
    80000758:	01439393          	slli	t2,t2,0x14
    8000075c:	eff38393          	addi	t2,t2,-257 # feff <_start-0x7fff0101>
    80000760:	00c39393          	slli	t2,t2,0xc
    80000764:	fff38393          	addi	t2,t2,-1
    80000768:	00728463          	beq	t0,t2,80000770 <test_43>
    8000076c:	1210106f          	j	8000208c <fail>

0000000080000770 <test_43>:
    80000770:	02b00193          	li	gp,43
    80000774:	0005b283          	ld	t0,0(a1)
    80000778:	00858593          	addi	a1,a1,8
    8000077c:	010703b7          	lui	t2,0x1070
    80000780:	0013839b          	addiw	t2,t2,1
    80000784:	01839393          	slli	t2,t2,0x18
    80000788:	10038393          	addi	t2,t2,256 # 1070100 <_start-0x7ef8ff00>
    8000078c:	00728463          	beq	t0,t2,80000794 <test_44>
    80000790:	0fd0106f          	j	8000208c <fail>

0000000080000794 <test_44>:
    80000794:	02c00193          	li	gp,44
    80000798:	0005b283          	ld	t0,0(a1)
    8000079c:	00858593          	addi	a1,a1,8
    800007a0:	000103b7          	lui	t2,0x10
    800007a4:	3f93839b          	addiw	t2,t2,1017
    800007a8:	01439393          	slli	t2,t2,0x14
    800007ac:	eff38393          	addi	t2,t2,-257 # feff <_start-0x7fff0101>
    800007b0:	00c39393          	slli	t2,t2,0xc
    800007b4:	fff38393          	addi	t2,t2,-1
    800007b8:	00728463          	beq	t0,t2,800007c0 <test_45>
    800007bc:	0d10106f          	j	8000208c <fail>

00000000800007c0 <test_45>:
    800007c0:	02d00193          	li	gp,45
    800007c4:	0005b283          	ld	t0,0(a1)
    800007c8:	00858593          	addi	a1,a1,8
    800007cc:	010703b7          	lui	t2,0x1070
    800007d0:	0013839b          	addiw	t2,t2,1
    800007d4:	01839393          	slli	t2,t2,0x18
    800007d8:	10038393          	addi	t2,t2,256 # 1070100 <_start-0x7ef8ff00>
    800007dc:	00728463          	beq	t0,t2,800007e4 <test_46>
    800007e0:	0ad0106f          	j	8000208c <fail>

00000000800007e4 <test_46>:
    800007e4:	02e00193          	li	gp,46
    800007e8:	0005b283          	ld	t0,0(a1)
    800007ec:	00858593          	addi	a1,a1,8
    800007f0:	000103b7          	lui	t2,0x10
    800007f4:	3f93839b          	addiw	t2,t2,1017
    800007f8:	01439393          	slli	t2,t2,0x14
    800007fc:	eff38393          	addi	t2,t2,-257 # feff <_start-0x7fff0101>
    80000800:	00c39393          	slli	t2,t2,0xc
    80000804:	fff38393          	addi	t2,t2,-1
    80000808:	00728463          	beq	t0,t2,80000810 <test_47>
    8000080c:	0810106f          	j	8000208c <fail>

0000000080000810 <test_47>:
    80000810:	02f00193          	li	gp,47
    80000814:	0005b283          	ld	t0,0(a1)
    80000818:	00858593          	addi	a1,a1,8
    8000081c:	010703b7          	lui	t2,0x1070
    80000820:	0013839b          	addiw	t2,t2,1
    80000824:	01839393          	slli	t2,t2,0x18
    80000828:	10038393          	addi	t2,t2,256 # 1070100 <_start-0x7ef8ff00>
    8000082c:	00728463          	beq	t0,t2,80000834 <test_48>
    80000830:	05d0106f          	j	8000208c <fail>

0000000080000834 <test_48>:
    80000834:	03000193          	li	gp,48
    80000838:	0005b283          	ld	t0,0(a1)
    8000083c:	00858593          	addi	a1,a1,8
    80000840:	000103b7          	lui	t2,0x10
    80000844:	3f93839b          	addiw	t2,t2,1017
    80000848:	01439393          	slli	t2,t2,0x14
    8000084c:	eff38393          	addi	t2,t2,-257 # feff <_start-0x7fff0101>
    80000850:	00c39393          	slli	t2,t2,0xc
    80000854:	fff38393          	addi	t2,t2,-1
    80000858:	00728463          	beq	t0,t2,80000860 <test_49>
    8000085c:	0310106f          	j	8000208c <fail>

0000000080000860 <test_49>:
    80000860:	03100193          	li	gp,49
    80000864:	0005b283          	ld	t0,0(a1)
    80000868:	00858593          	addi	a1,a1,8
    8000086c:	010703b7          	lui	t2,0x1070
    80000870:	0013839b          	addiw	t2,t2,1
    80000874:	01839393          	slli	t2,t2,0x18
    80000878:	10038393          	addi	t2,t2,256 # 1070100 <_start-0x7ef8ff00>
    8000087c:	00728463          	beq	t0,t2,80000884 <test_49+0x24>
    80000880:	00d0106f          	j	8000208c <fail>
    80000884:	fff00293          	li	t0,-1
    80000888:	0c12f357          	vsetvli	t1,t0,e8,m2,ta,ma
    8000088c:	00004617          	auipc	a2,0x4
    80000890:	88460613          	addi	a2,a2,-1916 # 80004110 <tdat>
    80000894:	02060407          	vle8.v	v8,(a2)
    80000898:	0c22f357          	vsetvli	t1,t0,e8,m4,ta,ma
    8000089c:	02060207          	vle8.v	v4,(a2)
    800008a0:	00004617          	auipc	a2,0x4
    800008a4:	87860613          	addi	a2,a2,-1928 # 80004118 <tdat+0x8>
    800008a8:	0c12f357          	vsetvli	t1,t0,e8,m2,ta,ma
    800008ac:	02060607          	vle8.v	v12,(a2)
    800008b0:	fff00293          	li	t0,-1
    800008b4:	0c02f357          	vsetvli	t1,t0,e8,m1,ta,ma
    800008b8:	00004697          	auipc	a3,0x4
    800008bc:	8e068693          	addi	a3,a3,-1824 # 80004198 <mask>
    800008c0:	02068007          	vle8.v	v0,(a3)
    800008c4:	02000293          	li	t0,32
    800008c8:	0c12f357          	vsetvli	t1,t0,e8,m2,ta,ma
    800008cc:	c0860257          	vwredsumu.vs	v4,v8,v12,v0.t
    800008d0:	fff00293          	li	t0,-1
    800008d4:	0c22f357          	vsetvli	t1,t0,e8,m4,ta,ma
    800008d8:	00003597          	auipc	a1,0x3
    800008dc:	72858593          	addi	a1,a1,1832 # 80004000 <begin_signature>
    800008e0:	02058227          	vse8.v	v4,(a1)

00000000800008e4 <test_50>:
    800008e4:	03200193          	li	gp,50
    800008e8:	0005b283          	ld	t0,0(a1)
    800008ec:	00858593          	addi	a1,a1,8
    800008f0:	000103b7          	lui	t2,0x10
    800008f4:	3f93839b          	addiw	t2,t2,1017
    800008f8:	01039393          	slli	t2,t2,0x10
    800008fc:	fef38393          	addi	t2,t2,-17 # ffef <_start-0x7fff0011>
    80000900:	01039393          	slli	t2,t2,0x10
    80000904:	6d038393          	addi	t2,t2,1744
    80000908:	00728463          	beq	t0,t2,80000910 <test_51>
    8000090c:	7800106f          	j	8000208c <fail>

0000000080000910 <test_51>:
    80000910:	03300193          	li	gp,51
    80000914:	0005b283          	ld	t0,0(a1)
    80000918:	00858593          	addi	a1,a1,8
    8000091c:	010703b7          	lui	t2,0x1070
    80000920:	0013839b          	addiw	t2,t2,1
    80000924:	01839393          	slli	t2,t2,0x18
    80000928:	10038393          	addi	t2,t2,256 # 1070100 <_start-0x7ef8ff00>
    8000092c:	00728463          	beq	t0,t2,80000934 <test_52>
    80000930:	75c0106f          	j	8000208c <fail>

0000000080000934 <test_52>:
    80000934:	03400193          	li	gp,52
    80000938:	0005b283          	ld	t0,0(a1)
    8000093c:	00858593          	addi	a1,a1,8
    80000940:	000103b7          	lui	t2,0x10
    80000944:	3f93839b          	addiw	t2,t2,1017
    80000948:	01439393          	slli	t2,t2,0x14
    8000094c:	eff38393          	addi	t2,t2,-257 # feff <_start-0x7fff0101>
    80000950:	00c39393          	slli	t2,t2,0xc
    80000954:	fff38393          	addi	t2,t2,-1
    80000958:	00728463          	beq	t0,t2,80000960 <test_53>
    8000095c:	7300106f          	j	8000208c <fail>

0000000080000960 <test_53>:
    80000960:	03500193          	li	gp,53
    80000964:	0005b283          	ld	t0,0(a1)
    80000968:	00858593          	addi	a1,a1,8
    8000096c:	010703b7          	lui	t2,0x1070
    80000970:	0013839b          	addiw	t2,t2,1
    80000974:	01839393          	slli	t2,t2,0x18
    80000978:	10038393          	addi	t2,t2,256 # 1070100 <_start-0x7ef8ff00>
    8000097c:	00728463          	beq	t0,t2,80000984 <test_54>
    80000980:	70c0106f          	j	8000208c <fail>

0000000080000984 <test_54>:
    80000984:	03600193          	li	gp,54
    80000988:	0005b283          	ld	t0,0(a1)
    8000098c:	00858593          	addi	a1,a1,8
    80000990:	000103b7          	lui	t2,0x10
    80000994:	3f93839b          	addiw	t2,t2,1017
    80000998:	01439393          	slli	t2,t2,0x14
    8000099c:	eff38393          	addi	t2,t2,-257 # feff <_start-0x7fff0101>
    800009a0:	00c39393          	slli	t2,t2,0xc
    800009a4:	fff38393          	addi	t2,t2,-1
    800009a8:	00728463          	beq	t0,t2,800009b0 <test_55>
    800009ac:	6e00106f          	j	8000208c <fail>

00000000800009b0 <test_55>:
    800009b0:	03700193          	li	gp,55
    800009b4:	0005b283          	ld	t0,0(a1)
    800009b8:	00858593          	addi	a1,a1,8
    800009bc:	010703b7          	lui	t2,0x1070
    800009c0:	0013839b          	addiw	t2,t2,1
    800009c4:	01839393          	slli	t2,t2,0x18
    800009c8:	10038393          	addi	t2,t2,256 # 1070100 <_start-0x7ef8ff00>
    800009cc:	00728463          	beq	t0,t2,800009d4 <test_56>
    800009d0:	6bc0106f          	j	8000208c <fail>

00000000800009d4 <test_56>:
    800009d4:	03800193          	li	gp,56
    800009d8:	0005b283          	ld	t0,0(a1)
    800009dc:	00858593          	addi	a1,a1,8
    800009e0:	000103b7          	lui	t2,0x10
    800009e4:	3f93839b          	addiw	t2,t2,1017
    800009e8:	01439393          	slli	t2,t2,0x14
    800009ec:	eff38393          	addi	t2,t2,-257 # feff <_start-0x7fff0101>
    800009f0:	00c39393          	slli	t2,t2,0xc
    800009f4:	fff38393          	addi	t2,t2,-1
    800009f8:	00728463          	beq	t0,t2,80000a00 <test_57>
    800009fc:	6900106f          	j	8000208c <fail>

0000000080000a00 <test_57>:
    80000a00:	03900193          	li	gp,57
    80000a04:	0005b283          	ld	t0,0(a1)
    80000a08:	00858593          	addi	a1,a1,8
    80000a0c:	010703b7          	lui	t2,0x1070
    80000a10:	0013839b          	addiw	t2,t2,1
    80000a14:	01839393          	slli	t2,t2,0x18
    80000a18:	10038393          	addi	t2,t2,256 # 1070100 <_start-0x7ef8ff00>
    80000a1c:	00728463          	beq	t0,t2,80000a24 <test_58>
    80000a20:	66c0106f          	j	8000208c <fail>

0000000080000a24 <test_58>:
    80000a24:	03a00193          	li	gp,58
    80000a28:	0005b283          	ld	t0,0(a1)
    80000a2c:	00858593          	addi	a1,a1,8
    80000a30:	000103b7          	lui	t2,0x10
    80000a34:	3f93839b          	addiw	t2,t2,1017
    80000a38:	01439393          	slli	t2,t2,0x14
    80000a3c:	eff38393          	addi	t2,t2,-257 # feff <_start-0x7fff0101>
    80000a40:	00c39393          	slli	t2,t2,0xc
    80000a44:	fff38393          	addi	t2,t2,-1
    80000a48:	00728463          	beq	t0,t2,80000a50 <test_59>
    80000a4c:	6400106f          	j	8000208c <fail>

0000000080000a50 <test_59>:
    80000a50:	03b00193          	li	gp,59
    80000a54:	0005b283          	ld	t0,0(a1)
    80000a58:	00858593          	addi	a1,a1,8
    80000a5c:	010703b7          	lui	t2,0x1070
    80000a60:	0013839b          	addiw	t2,t2,1
    80000a64:	01839393          	slli	t2,t2,0x18
    80000a68:	10038393          	addi	t2,t2,256 # 1070100 <_start-0x7ef8ff00>
    80000a6c:	00728463          	beq	t0,t2,80000a74 <test_60>
    80000a70:	61c0106f          	j	8000208c <fail>

0000000080000a74 <test_60>:
    80000a74:	03c00193          	li	gp,60
    80000a78:	0005b283          	ld	t0,0(a1)
    80000a7c:	00858593          	addi	a1,a1,8
    80000a80:	000103b7          	lui	t2,0x10
    80000a84:	3f93839b          	addiw	t2,t2,1017
    80000a88:	01439393          	slli	t2,t2,0x14
    80000a8c:	eff38393          	addi	t2,t2,-257 # feff <_start-0x7fff0101>
    80000a90:	00c39393          	slli	t2,t2,0xc
    80000a94:	fff38393          	addi	t2,t2,-1
    80000a98:	00728463          	beq	t0,t2,80000aa0 <test_61>
    80000a9c:	5f00106f          	j	8000208c <fail>

0000000080000aa0 <test_61>:
    80000aa0:	03d00193          	li	gp,61
    80000aa4:	0005b283          	ld	t0,0(a1)
    80000aa8:	00858593          	addi	a1,a1,8
    80000aac:	010703b7          	lui	t2,0x1070
    80000ab0:	0013839b          	addiw	t2,t2,1
    80000ab4:	01839393          	slli	t2,t2,0x18
    80000ab8:	10038393          	addi	t2,t2,256 # 1070100 <_start-0x7ef8ff00>
    80000abc:	00728463          	beq	t0,t2,80000ac4 <test_62>
    80000ac0:	5cc0106f          	j	8000208c <fail>

0000000080000ac4 <test_62>:
    80000ac4:	03e00193          	li	gp,62
    80000ac8:	0005b283          	ld	t0,0(a1)
    80000acc:	00858593          	addi	a1,a1,8
    80000ad0:	000103b7          	lui	t2,0x10
    80000ad4:	3f93839b          	addiw	t2,t2,1017
    80000ad8:	01439393          	slli	t2,t2,0x14
    80000adc:	eff38393          	addi	t2,t2,-257 # feff <_start-0x7fff0101>
    80000ae0:	00c39393          	slli	t2,t2,0xc
    80000ae4:	fff38393          	addi	t2,t2,-1
    80000ae8:	00728463          	beq	t0,t2,80000af0 <test_63>
    80000aec:	5a00106f          	j	8000208c <fail>

0000000080000af0 <test_63>:
    80000af0:	03f00193          	li	gp,63
    80000af4:	0005b283          	ld	t0,0(a1)
    80000af8:	00858593          	addi	a1,a1,8
    80000afc:	010703b7          	lui	t2,0x1070
    80000b00:	0013839b          	addiw	t2,t2,1
    80000b04:	01839393          	slli	t2,t2,0x18
    80000b08:	10038393          	addi	t2,t2,256 # 1070100 <_start-0x7ef8ff00>
    80000b0c:	00728463          	beq	t0,t2,80000b14 <test_64>
    80000b10:	57c0106f          	j	8000208c <fail>

0000000080000b14 <test_64>:
    80000b14:	04000193          	li	gp,64
    80000b18:	0005b283          	ld	t0,0(a1)
    80000b1c:	00858593          	addi	a1,a1,8
    80000b20:	000103b7          	lui	t2,0x10
    80000b24:	3f93839b          	addiw	t2,t2,1017
    80000b28:	01439393          	slli	t2,t2,0x14
    80000b2c:	eff38393          	addi	t2,t2,-257 # feff <_start-0x7fff0101>
    80000b30:	00c39393          	slli	t2,t2,0xc
    80000b34:	fff38393          	addi	t2,t2,-1
    80000b38:	00728463          	beq	t0,t2,80000b40 <test_65>
    80000b3c:	5500106f          	j	8000208c <fail>

0000000080000b40 <test_65>:
    80000b40:	04100193          	li	gp,65
    80000b44:	0005b283          	ld	t0,0(a1)
    80000b48:	00858593          	addi	a1,a1,8
    80000b4c:	010703b7          	lui	t2,0x1070
    80000b50:	0013839b          	addiw	t2,t2,1
    80000b54:	01839393          	slli	t2,t2,0x18
    80000b58:	10038393          	addi	t2,t2,256 # 1070100 <_start-0x7ef8ff00>
    80000b5c:	00728463          	beq	t0,t2,80000b64 <test_65+0x24>
    80000b60:	52c0106f          	j	8000208c <fail>
    80000b64:	fff00293          	li	t0,-1
    80000b68:	0c12f357          	vsetvli	t1,t0,e8,m2,ta,ma
    80000b6c:	00003617          	auipc	a2,0x3
    80000b70:	5a460613          	addi	a2,a2,1444 # 80004110 <tdat>
    80000b74:	02060407          	vle8.v	v8,(a2)
    80000b78:	0c22f357          	vsetvli	t1,t0,e8,m4,ta,ma
    80000b7c:	02060207          	vle8.v	v4,(a2)
    80000b80:	00003617          	auipc	a2,0x3
    80000b84:	59860613          	addi	a2,a2,1432 # 80004118 <tdat+0x8>
    80000b88:	0c12f357          	vsetvli	t1,t0,e8,m2,ta,ma
    80000b8c:	02060607          	vle8.v	v12,(a2)
    80000b90:	03f00293          	li	t0,63
    80000b94:	0c12f357          	vsetvli	t1,t0,e8,m2,ta,ma
    80000b98:	c2860257          	vwredsumu.vs	v4,v8,v12
    80000b9c:	fff00293          	li	t0,-1
    80000ba0:	0c22f357          	vsetvli	t1,t0,e8,m4,ta,ma
    80000ba4:	00003597          	auipc	a1,0x3
    80000ba8:	45c58593          	addi	a1,a1,1116 # 80004000 <begin_signature>
    80000bac:	02058227          	vse8.v	v4,(a1)

0000000080000bb0 <test_66>:
    80000bb0:	04200193          	li	gp,66
    80000bb4:	0005b283          	ld	t0,0(a1)
    80000bb8:	00858593          	addi	a1,a1,8
    80000bbc:	000103b7          	lui	t2,0x10
    80000bc0:	3f93839b          	addiw	t2,t2,1017
    80000bc4:	01439393          	slli	t2,t2,0x14
    80000bc8:	ef138393          	addi	t2,t2,-271 # fef1 <_start-0x7fff010f>
    80000bcc:	00c39393          	slli	t2,t2,0xc
    80000bd0:	48838393          	addi	t2,t2,1160
    80000bd4:	00728463          	beq	t0,t2,80000bdc <test_67>
    80000bd8:	4b40106f          	j	8000208c <fail>

0000000080000bdc <test_67>:
    80000bdc:	04300193          	li	gp,67
    80000be0:	0005b283          	ld	t0,0(a1)
    80000be4:	00858593          	addi	a1,a1,8
    80000be8:	010703b7          	lui	t2,0x1070
    80000bec:	0013839b          	addiw	t2,t2,1
    80000bf0:	01839393          	slli	t2,t2,0x18
    80000bf4:	10038393          	addi	t2,t2,256 # 1070100 <_start-0x7ef8ff00>
    80000bf8:	00728463          	beq	t0,t2,80000c00 <test_68>
    80000bfc:	4900106f          	j	8000208c <fail>

0000000080000c00 <test_68>:
    80000c00:	04400193          	li	gp,68
    80000c04:	0005b283          	ld	t0,0(a1)
    80000c08:	00858593          	addi	a1,a1,8
    80000c0c:	000103b7          	lui	t2,0x10
    80000c10:	3f93839b          	addiw	t2,t2,1017
    80000c14:	01439393          	slli	t2,t2,0x14
    80000c18:	eff38393          	addi	t2,t2,-257 # feff <_start-0x7fff0101>
    80000c1c:	00c39393          	slli	t2,t2,0xc
    80000c20:	fff38393          	addi	t2,t2,-1
    80000c24:	00728463          	beq	t0,t2,80000c2c <test_69>
    80000c28:	4640106f          	j	8000208c <fail>

0000000080000c2c <test_69>:
    80000c2c:	04500193          	li	gp,69
    80000c30:	0005b283          	ld	t0,0(a1)
    80000c34:	00858593          	addi	a1,a1,8
    80000c38:	010703b7          	lui	t2,0x1070
    80000c3c:	0013839b          	addiw	t2,t2,1
    80000c40:	01839393          	slli	t2,t2,0x18
    80000c44:	10038393          	addi	t2,t2,256 # 1070100 <_start-0x7ef8ff00>
    80000c48:	00728463          	beq	t0,t2,80000c50 <test_70>
    80000c4c:	4400106f          	j	8000208c <fail>

0000000080000c50 <test_70>:
    80000c50:	04600193          	li	gp,70
    80000c54:	0005b283          	ld	t0,0(a1)
    80000c58:	00858593          	addi	a1,a1,8
    80000c5c:	000103b7          	lui	t2,0x10
    80000c60:	3f93839b          	addiw	t2,t2,1017
    80000c64:	01439393          	slli	t2,t2,0x14
    80000c68:	eff38393          	addi	t2,t2,-257 # feff <_start-0x7fff0101>
    80000c6c:	00c39393          	slli	t2,t2,0xc
    80000c70:	fff38393          	addi	t2,t2,-1
    80000c74:	00728463          	beq	t0,t2,80000c7c <test_71>
    80000c78:	4140106f          	j	8000208c <fail>

0000000080000c7c <test_71>:
    80000c7c:	04700193          	li	gp,71
    80000c80:	0005b283          	ld	t0,0(a1)
    80000c84:	00858593          	addi	a1,a1,8
    80000c88:	010703b7          	lui	t2,0x1070
    80000c8c:	0013839b          	addiw	t2,t2,1
    80000c90:	01839393          	slli	t2,t2,0x18
    80000c94:	10038393          	addi	t2,t2,256 # 1070100 <_start-0x7ef8ff00>
    80000c98:	00728463          	beq	t0,t2,80000ca0 <test_72>
    80000c9c:	3f00106f          	j	8000208c <fail>

0000000080000ca0 <test_72>:
    80000ca0:	04800193          	li	gp,72
    80000ca4:	0005b283          	ld	t0,0(a1)
    80000ca8:	00858593          	addi	a1,a1,8
    80000cac:	000103b7          	lui	t2,0x10
    80000cb0:	3f93839b          	addiw	t2,t2,1017
    80000cb4:	01439393          	slli	t2,t2,0x14
    80000cb8:	eff38393          	addi	t2,t2,-257 # feff <_start-0x7fff0101>
    80000cbc:	00c39393          	slli	t2,t2,0xc
    80000cc0:	fff38393          	addi	t2,t2,-1
    80000cc4:	00728463          	beq	t0,t2,80000ccc <test_73>
    80000cc8:	3c40106f          	j	8000208c <fail>

0000000080000ccc <test_73>:
    80000ccc:	04900193          	li	gp,73
    80000cd0:	0005b283          	ld	t0,0(a1)
    80000cd4:	00858593          	addi	a1,a1,8
    80000cd8:	010703b7          	lui	t2,0x1070
    80000cdc:	0013839b          	addiw	t2,t2,1
    80000ce0:	01839393          	slli	t2,t2,0x18
    80000ce4:	10038393          	addi	t2,t2,256 # 1070100 <_start-0x7ef8ff00>
    80000ce8:	00728463          	beq	t0,t2,80000cf0 <test_74>
    80000cec:	3a00106f          	j	8000208c <fail>

0000000080000cf0 <test_74>:
    80000cf0:	04a00193          	li	gp,74
    80000cf4:	0005b283          	ld	t0,0(a1)
    80000cf8:	00858593          	addi	a1,a1,8
    80000cfc:	000103b7          	lui	t2,0x10
    80000d00:	3f93839b          	addiw	t2,t2,1017
    80000d04:	01439393          	slli	t2,t2,0x14
    80000d08:	eff38393          	addi	t2,t2,-257 # feff <_start-0x7fff0101>
    80000d0c:	00c39393          	slli	t2,t2,0xc
    80000d10:	fff38393          	addi	t2,t2,-1
    80000d14:	00728463          	beq	t0,t2,80000d1c <test_75>
    80000d18:	3740106f          	j	8000208c <fail>

0000000080000d1c <test_75>:
    80000d1c:	04b00193          	li	gp,75
    80000d20:	0005b283          	ld	t0,0(a1)
    80000d24:	00858593          	addi	a1,a1,8
    80000d28:	010703b7          	lui	t2,0x1070
    80000d2c:	0013839b          	addiw	t2,t2,1
    80000d30:	01839393          	slli	t2,t2,0x18
    80000d34:	10038393          	addi	t2,t2,256 # 1070100 <_start-0x7ef8ff00>
    80000d38:	00728463          	beq	t0,t2,80000d40 <test_76>
    80000d3c:	3500106f          	j	8000208c <fail>

0000000080000d40 <test_76>:
    80000d40:	04c00193          	li	gp,76
    80000d44:	0005b283          	ld	t0,0(a1)
    80000d48:	00858593          	addi	a1,a1,8
    80000d4c:	000103b7          	lui	t2,0x10
    80000d50:	3f93839b          	addiw	t2,t2,1017
    80000d54:	01439393          	slli	t2,t2,0x14
    80000d58:	eff38393          	addi	t2,t2,-257 # feff <_start-0x7fff0101>
    80000d5c:	00c39393          	slli	t2,t2,0xc
    80000d60:	fff38393          	addi	t2,t2,-1
    80000d64:	00728463          	beq	t0,t2,80000d6c <test_77>
    80000d68:	3240106f          	j	8000208c <fail>

0000000080000d6c <test_77>:
    80000d6c:	04d00193          	li	gp,77
    80000d70:	0005b283          	ld	t0,0(a1)
    80000d74:	00858593          	addi	a1,a1,8
    80000d78:	010703b7          	lui	t2,0x1070
    80000d7c:	0013839b          	addiw	t2,t2,1
    80000d80:	01839393          	slli	t2,t2,0x18
    80000d84:	10038393          	addi	t2,t2,256 # 1070100 <_start-0x7ef8ff00>
    80000d88:	00728463          	beq	t0,t2,80000d90 <test_78>
    80000d8c:	3000106f          	j	8000208c <fail>

0000000080000d90 <test_78>:
    80000d90:	04e00193          	li	gp,78
    80000d94:	0005b283          	ld	t0,0(a1)
    80000d98:	00858593          	addi	a1,a1,8
    80000d9c:	000103b7          	lui	t2,0x10
    80000da0:	3f93839b          	addiw	t2,t2,1017
    80000da4:	01439393          	slli	t2,t2,0x14
    80000da8:	eff38393          	addi	t2,t2,-257 # feff <_start-0x7fff0101>
    80000dac:	00c39393          	slli	t2,t2,0xc
    80000db0:	fff38393          	addi	t2,t2,-1
    80000db4:	00728463          	beq	t0,t2,80000dbc <test_79>
    80000db8:	2d40106f          	j	8000208c <fail>

0000000080000dbc <test_79>:
    80000dbc:	04f00193          	li	gp,79
    80000dc0:	0005b283          	ld	t0,0(a1)
    80000dc4:	00858593          	addi	a1,a1,8
    80000dc8:	010703b7          	lui	t2,0x1070
    80000dcc:	0013839b          	addiw	t2,t2,1
    80000dd0:	01839393          	slli	t2,t2,0x18
    80000dd4:	10038393          	addi	t2,t2,256 # 1070100 <_start-0x7ef8ff00>
    80000dd8:	00728463          	beq	t0,t2,80000de0 <test_80>
    80000ddc:	2b00106f          	j	8000208c <fail>

0000000080000de0 <test_80>:
    80000de0:	05000193          	li	gp,80
    80000de4:	0005b283          	ld	t0,0(a1)
    80000de8:	00858593          	addi	a1,a1,8
    80000dec:	000103b7          	lui	t2,0x10
    80000df0:	3f93839b          	addiw	t2,t2,1017
    80000df4:	01439393          	slli	t2,t2,0x14
    80000df8:	eff38393          	addi	t2,t2,-257 # feff <_start-0x7fff0101>
    80000dfc:	00c39393          	slli	t2,t2,0xc
    80000e00:	fff38393          	addi	t2,t2,-1
    80000e04:	00728463          	beq	t0,t2,80000e0c <test_81>
    80000e08:	2840106f          	j	8000208c <fail>

0000000080000e0c <test_81>:
    80000e0c:	05100193          	li	gp,81
    80000e10:	0005b283          	ld	t0,0(a1)
    80000e14:	00858593          	addi	a1,a1,8
    80000e18:	010703b7          	lui	t2,0x1070
    80000e1c:	0013839b          	addiw	t2,t2,1
    80000e20:	01839393          	slli	t2,t2,0x18
    80000e24:	10038393          	addi	t2,t2,256 # 1070100 <_start-0x7ef8ff00>
    80000e28:	00728463          	beq	t0,t2,80000e30 <test_81+0x24>
    80000e2c:	2600106f          	j	8000208c <fail>
    80000e30:	fff00293          	li	t0,-1
    80000e34:	0c12f357          	vsetvli	t1,t0,e8,m2,ta,ma
    80000e38:	00003617          	auipc	a2,0x3
    80000e3c:	2d860613          	addi	a2,a2,728 # 80004110 <tdat>
    80000e40:	02060407          	vle8.v	v8,(a2)
    80000e44:	0c22f357          	vsetvli	t1,t0,e8,m4,ta,ma
    80000e48:	02060207          	vle8.v	v4,(a2)
    80000e4c:	00003617          	auipc	a2,0x3
    80000e50:	2cc60613          	addi	a2,a2,716 # 80004118 <tdat+0x8>
    80000e54:	0c12f357          	vsetvli	t1,t0,e8,m2,ta,ma
    80000e58:	02060607          	vle8.v	v12,(a2)
    80000e5c:	03f00293          	li	t0,63
    80000e60:	0812f357          	vsetvli	t1,t0,e8,m2,tu,ma
    80000e64:	c2860257          	vwredsumu.vs	v4,v8,v12
    80000e68:	fff00293          	li	t0,-1
    80000e6c:	0c22f357          	vsetvli	t1,t0,e8,m4,ta,ma
    80000e70:	00003597          	auipc	a1,0x3
    80000e74:	19058593          	addi	a1,a1,400 # 80004000 <begin_signature>
    80000e78:	02058227          	vse8.v	v4,(a1)

0000000080000e7c <test_82>:
    80000e7c:	05200193          	li	gp,82
    80000e80:	0005b283          	ld	t0,0(a1)
    80000e84:	00858593          	addi	a1,a1,8
    80000e88:	000103b7          	lui	t2,0x10
    80000e8c:	3f93839b          	addiw	t2,t2,1017
    80000e90:	01439393          	slli	t2,t2,0x14
    80000e94:	ef138393          	addi	t2,t2,-271 # fef1 <_start-0x7fff010f>
    80000e98:	00c39393          	slli	t2,t2,0xc
    80000e9c:	48838393          	addi	t2,t2,1160
    80000ea0:	00728463          	beq	t0,t2,80000ea8 <test_83>
    80000ea4:	1e80106f          	j	8000208c <fail>

0000000080000ea8 <test_83>:
    80000ea8:	05300193          	li	gp,83
    80000eac:	0005b283          	ld	t0,0(a1)
    80000eb0:	00858593          	addi	a1,a1,8
    80000eb4:	010703b7          	lui	t2,0x1070
    80000eb8:	0013839b          	addiw	t2,t2,1
    80000ebc:	01839393          	slli	t2,t2,0x18
    80000ec0:	10038393          	addi	t2,t2,256 # 1070100 <_start-0x7ef8ff00>
    80000ec4:	00728463          	beq	t0,t2,80000ecc <test_84>
    80000ec8:	1c40106f          	j	8000208c <fail>

0000000080000ecc <test_84>:
    80000ecc:	05400193          	li	gp,84
    80000ed0:	0005b283          	ld	t0,0(a1)
    80000ed4:	00858593          	addi	a1,a1,8
    80000ed8:	000103b7          	lui	t2,0x10
    80000edc:	3f93839b          	addiw	t2,t2,1017
    80000ee0:	01439393          	slli	t2,t2,0x14
    80000ee4:	eff38393          	addi	t2,t2,-257 # feff <_start-0x7fff0101>
    80000ee8:	00c39393          	slli	t2,t2,0xc
    80000eec:	fff38393          	addi	t2,t2,-1
    80000ef0:	00728463          	beq	t0,t2,80000ef8 <test_85>
    80000ef4:	1980106f          	j	8000208c <fail>

0000000080000ef8 <test_85>:
    80000ef8:	05500193          	li	gp,85
    80000efc:	0005b283          	ld	t0,0(a1)
    80000f00:	00858593          	addi	a1,a1,8
    80000f04:	010703b7          	lui	t2,0x1070
    80000f08:	0013839b          	addiw	t2,t2,1
    80000f0c:	01839393          	slli	t2,t2,0x18
    80000f10:	10038393          	addi	t2,t2,256 # 1070100 <_start-0x7ef8ff00>
    80000f14:	00728463          	beq	t0,t2,80000f1c <test_86>
    80000f18:	1740106f          	j	8000208c <fail>

0000000080000f1c <test_86>:
    80000f1c:	05600193          	li	gp,86
    80000f20:	0005b283          	ld	t0,0(a1)
    80000f24:	00858593          	addi	a1,a1,8
    80000f28:	000103b7          	lui	t2,0x10
    80000f2c:	3f93839b          	addiw	t2,t2,1017
    80000f30:	01439393          	slli	t2,t2,0x14
    80000f34:	eff38393          	addi	t2,t2,-257 # feff <_start-0x7fff0101>
    80000f38:	00c39393          	slli	t2,t2,0xc
    80000f3c:	fff38393          	addi	t2,t2,-1
    80000f40:	00728463          	beq	t0,t2,80000f48 <test_87>
    80000f44:	1480106f          	j	8000208c <fail>

0000000080000f48 <test_87>:
    80000f48:	05700193          	li	gp,87
    80000f4c:	0005b283          	ld	t0,0(a1)
    80000f50:	00858593          	addi	a1,a1,8
    80000f54:	010703b7          	lui	t2,0x1070
    80000f58:	0013839b          	addiw	t2,t2,1
    80000f5c:	01839393          	slli	t2,t2,0x18
    80000f60:	10038393          	addi	t2,t2,256 # 1070100 <_start-0x7ef8ff00>
    80000f64:	00728463          	beq	t0,t2,80000f6c <test_88>
    80000f68:	1240106f          	j	8000208c <fail>

0000000080000f6c <test_88>:
    80000f6c:	05800193          	li	gp,88
    80000f70:	0005b283          	ld	t0,0(a1)
    80000f74:	00858593          	addi	a1,a1,8
    80000f78:	000103b7          	lui	t2,0x10
    80000f7c:	3f93839b          	addiw	t2,t2,1017
    80000f80:	01439393          	slli	t2,t2,0x14
    80000f84:	eff38393          	addi	t2,t2,-257 # feff <_start-0x7fff0101>
    80000f88:	00c39393          	slli	t2,t2,0xc
    80000f8c:	fff38393          	addi	t2,t2,-1
    80000f90:	00728463          	beq	t0,t2,80000f98 <test_89>
    80000f94:	0f80106f          	j	8000208c <fail>

0000000080000f98 <test_89>:
    80000f98:	05900193          	li	gp,89
    80000f9c:	0005b283          	ld	t0,0(a1)
    80000fa0:	00858593          	addi	a1,a1,8
    80000fa4:	010703b7          	lui	t2,0x1070
    80000fa8:	0013839b          	addiw	t2,t2,1
    80000fac:	01839393          	slli	t2,t2,0x18
    80000fb0:	10038393          	addi	t2,t2,256 # 1070100 <_start-0x7ef8ff00>
    80000fb4:	00728463          	beq	t0,t2,80000fbc <test_90>
    80000fb8:	0d40106f          	j	8000208c <fail>

0000000080000fbc <test_90>:
    80000fbc:	05a00193          	li	gp,90
    80000fc0:	0005b283          	ld	t0,0(a1)
    80000fc4:	00858593          	addi	a1,a1,8
    80000fc8:	000103b7          	lui	t2,0x10
    80000fcc:	3f93839b          	addiw	t2,t2,1017
    80000fd0:	01439393          	slli	t2,t2,0x14
    80000fd4:	eff38393          	addi	t2,t2,-257 # feff <_start-0x7fff0101>
    80000fd8:	00c39393          	slli	t2,t2,0xc
    80000fdc:	fff38393          	addi	t2,t2,-1
    80000fe0:	00728463          	beq	t0,t2,80000fe8 <test_91>
    80000fe4:	0a80106f          	j	8000208c <fail>

0000000080000fe8 <test_91>:
    80000fe8:	05b00193          	li	gp,91
    80000fec:	0005b283          	ld	t0,0(a1)
    80000ff0:	00858593          	addi	a1,a1,8
    80000ff4:	010703b7          	lui	t2,0x1070
    80000ff8:	0013839b          	addiw	t2,t2,1
    80000ffc:	01839393          	slli	t2,t2,0x18
    80001000:	10038393          	addi	t2,t2,256 # 1070100 <_start-0x7ef8ff00>
    80001004:	00728463          	beq	t0,t2,8000100c <test_92>
    80001008:	0840106f          	j	8000208c <fail>

000000008000100c <test_92>:
    8000100c:	05c00193          	li	gp,92
    80001010:	0005b283          	ld	t0,0(a1)
    80001014:	00858593          	addi	a1,a1,8
    80001018:	000103b7          	lui	t2,0x10
    8000101c:	3f93839b          	addiw	t2,t2,1017
    80001020:	01439393          	slli	t2,t2,0x14
    80001024:	eff38393          	addi	t2,t2,-257 # feff <_start-0x7fff0101>
    80001028:	00c39393          	slli	t2,t2,0xc
    8000102c:	fff38393          	addi	t2,t2,-1
    80001030:	00728463          	beq	t0,t2,80001038 <test_93>
    80001034:	0580106f          	j	8000208c <fail>

0000000080001038 <test_93>:
    80001038:	05d00193          	li	gp,93
    8000103c:	0005b283          	ld	t0,0(a1)
    80001040:	00858593          	addi	a1,a1,8
    80001044:	010703b7          	lui	t2,0x1070
    80001048:	0013839b          	addiw	t2,t2,1
    8000104c:	01839393          	slli	t2,t2,0x18
    80001050:	10038393          	addi	t2,t2,256 # 1070100 <_start-0x7ef8ff00>
    80001054:	00728463          	beq	t0,t2,8000105c <test_94>
    80001058:	0340106f          	j	8000208c <fail>

000000008000105c <test_94>:
    8000105c:	05e00193          	li	gp,94
    80001060:	0005b283          	ld	t0,0(a1)
    80001064:	00858593          	addi	a1,a1,8
    80001068:	000103b7          	lui	t2,0x10
    8000106c:	3f93839b          	addiw	t2,t2,1017
    80001070:	01439393          	slli	t2,t2,0x14
    80001074:	eff38393          	addi	t2,t2,-257 # feff <_start-0x7fff0101>
    80001078:	00c39393          	slli	t2,t2,0xc
    8000107c:	fff38393          	addi	t2,t2,-1
    80001080:	00728463          	beq	t0,t2,80001088 <test_95>
    80001084:	0080106f          	j	8000208c <fail>

0000000080001088 <test_95>:
    80001088:	05f00193          	li	gp,95
    8000108c:	0005b283          	ld	t0,0(a1)
    80001090:	00858593          	addi	a1,a1,8
    80001094:	010703b7          	lui	t2,0x1070
    80001098:	0013839b          	addiw	t2,t2,1
    8000109c:	01839393          	slli	t2,t2,0x18
    800010a0:	10038393          	addi	t2,t2,256 # 1070100 <_start-0x7ef8ff00>
    800010a4:	7e7294e3          	bne	t0,t2,8000208c <fail>

00000000800010a8 <test_96>:
    800010a8:	06000193          	li	gp,96
    800010ac:	0005b283          	ld	t0,0(a1)
    800010b0:	00858593          	addi	a1,a1,8
    800010b4:	000103b7          	lui	t2,0x10
    800010b8:	3f93839b          	addiw	t2,t2,1017
    800010bc:	01439393          	slli	t2,t2,0x14
    800010c0:	eff38393          	addi	t2,t2,-257 # feff <_start-0x7fff0101>
    800010c4:	00c39393          	slli	t2,t2,0xc
    800010c8:	fff38393          	addi	t2,t2,-1
    800010cc:	7c7290e3          	bne	t0,t2,8000208c <fail>

00000000800010d0 <test_97>:
    800010d0:	06100193          	li	gp,97
    800010d4:	0005b283          	ld	t0,0(a1)
    800010d8:	00858593          	addi	a1,a1,8
    800010dc:	010703b7          	lui	t2,0x1070
    800010e0:	0013839b          	addiw	t2,t2,1
    800010e4:	01839393          	slli	t2,t2,0x18
    800010e8:	10038393          	addi	t2,t2,256 # 1070100 <_start-0x7ef8ff00>
    800010ec:	7a7290e3          	bne	t0,t2,8000208c <fail>
    800010f0:	fff00293          	li	t0,-1
    800010f4:	0c12f357          	vsetvli	t1,t0,e8,m2,ta,ma
    800010f8:	00003617          	auipc	a2,0x3
    800010fc:	01860613          	addi	a2,a2,24 # 80004110 <tdat>
    80001100:	02060407          	vle8.v	v8,(a2)
    80001104:	0c22f357          	vsetvli	t1,t0,e8,m4,ta,ma
    80001108:	02060207          	vle8.v	v4,(a2)
    8000110c:	00003617          	auipc	a2,0x3
    80001110:	00c60613          	addi	a2,a2,12 # 80004118 <tdat+0x8>
    80001114:	0c12f357          	vsetvli	t1,t0,e8,m2,ta,ma
    80001118:	02060607          	vle8.v	v12,(a2)
    8000111c:	fff00293          	li	t0,-1
    80001120:	0c02f357          	vsetvli	t1,t0,e8,m1,ta,ma
    80001124:	00003697          	auipc	a3,0x3
    80001128:	07468693          	addi	a3,a3,116 # 80004198 <mask>
    8000112c:	02068007          	vle8.v	v0,(a3)
    80001130:	03f00293          	li	t0,63
    80001134:	0c12f357          	vsetvli	t1,t0,e8,m2,ta,ma
    80001138:	c0860257          	vwredsumu.vs	v4,v8,v12,v0.t
    8000113c:	fff00293          	li	t0,-1
    80001140:	0c22f357          	vsetvli	t1,t0,e8,m4,ta,ma
    80001144:	00003597          	auipc	a1,0x3
    80001148:	ebc58593          	addi	a1,a1,-324 # 80004000 <begin_signature>
    8000114c:	02058227          	vse8.v	v4,(a1)

0000000080001150 <test_98>:
    80001150:	06200193          	li	gp,98
    80001154:	0005b283          	ld	t0,0(a1)
    80001158:	00858593          	addi	a1,a1,8
    8000115c:	000103b7          	lui	t2,0x10
    80001160:	3f93839b          	addiw	t2,t2,1017
    80001164:	01439393          	slli	t2,t2,0x14
    80001168:	ef138393          	addi	t2,t2,-271 # fef1 <_start-0x7fff010f>
    8000116c:	00c39393          	slli	t2,t2,0xc
    80001170:	ca038393          	addi	t2,t2,-864
    80001174:	70729ce3          	bne	t0,t2,8000208c <fail>

0000000080001178 <test_99>:
    80001178:	06300193          	li	gp,99
    8000117c:	0005b283          	ld	t0,0(a1)
    80001180:	00858593          	addi	a1,a1,8
    80001184:	010703b7          	lui	t2,0x1070
    80001188:	0013839b          	addiw	t2,t2,1
    8000118c:	01839393          	slli	t2,t2,0x18
    80001190:	10038393          	addi	t2,t2,256 # 1070100 <_start-0x7ef8ff00>
    80001194:	6e729ce3          	bne	t0,t2,8000208c <fail>

0000000080001198 <test_100>:
    80001198:	06400193          	li	gp,100
    8000119c:	0005b283          	ld	t0,0(a1)
    800011a0:	00858593          	addi	a1,a1,8
    800011a4:	000103b7          	lui	t2,0x10
    800011a8:	3f93839b          	addiw	t2,t2,1017
    800011ac:	01439393          	slli	t2,t2,0x14
    800011b0:	eff38393          	addi	t2,t2,-257 # feff <_start-0x7fff0101>
    800011b4:	00c39393          	slli	t2,t2,0xc
    800011b8:	fff38393          	addi	t2,t2,-1
    800011bc:	6c7298e3          	bne	t0,t2,8000208c <fail>

00000000800011c0 <test_101>:
    800011c0:	06500193          	li	gp,101
    800011c4:	0005b283          	ld	t0,0(a1)
    800011c8:	00858593          	addi	a1,a1,8
    800011cc:	010703b7          	lui	t2,0x1070
    800011d0:	0013839b          	addiw	t2,t2,1
    800011d4:	01839393          	slli	t2,t2,0x18
    800011d8:	10038393          	addi	t2,t2,256 # 1070100 <_start-0x7ef8ff00>
    800011dc:	6a7298e3          	bne	t0,t2,8000208c <fail>

00000000800011e0 <test_102>:
    800011e0:	06600193          	li	gp,102
    800011e4:	0005b283          	ld	t0,0(a1)
    800011e8:	00858593          	addi	a1,a1,8
    800011ec:	000103b7          	lui	t2,0x10
    800011f0:	3f93839b          	addiw	t2,t2,1017
    800011f4:	01439393          	slli	t2,t2,0x14
    800011f8:	eff38393          	addi	t2,t2,-257 # feff <_start-0x7fff0101>
    800011fc:	00c39393          	slli	t2,t2,0xc
    80001200:	fff38393          	addi	t2,t2,-1
    80001204:	687294e3          	bne	t0,t2,8000208c <fail>

0000000080001208 <test_103>:
    80001208:	06700193          	li	gp,103
    8000120c:	0005b283          	ld	t0,0(a1)
    80001210:	00858593          	addi	a1,a1,8
    80001214:	010703b7          	lui	t2,0x1070
    80001218:	0013839b          	addiw	t2,t2,1
    8000121c:	01839393          	slli	t2,t2,0x18
    80001220:	10038393          	addi	t2,t2,256 # 1070100 <_start-0x7ef8ff00>
    80001224:	667294e3          	bne	t0,t2,8000208c <fail>

0000000080001228 <test_104>:
    80001228:	06800193          	li	gp,104
    8000122c:	0005b283          	ld	t0,0(a1)
    80001230:	00858593          	addi	a1,a1,8
    80001234:	000103b7          	lui	t2,0x10
    80001238:	3f93839b          	addiw	t2,t2,1017
    8000123c:	01439393          	slli	t2,t2,0x14
    80001240:	eff38393          	addi	t2,t2,-257 # feff <_start-0x7fff0101>
    80001244:	00c39393          	slli	t2,t2,0xc
    80001248:	fff38393          	addi	t2,t2,-1
    8000124c:	647290e3          	bne	t0,t2,8000208c <fail>

0000000080001250 <test_105>:
    80001250:	06900193          	li	gp,105
    80001254:	0005b283          	ld	t0,0(a1)
    80001258:	00858593          	addi	a1,a1,8
    8000125c:	010703b7          	lui	t2,0x1070
    80001260:	0013839b          	addiw	t2,t2,1
    80001264:	01839393          	slli	t2,t2,0x18
    80001268:	10038393          	addi	t2,t2,256 # 1070100 <_start-0x7ef8ff00>
    8000126c:	627290e3          	bne	t0,t2,8000208c <fail>

0000000080001270 <test_106>:
    80001270:	06a00193          	li	gp,106
    80001274:	0005b283          	ld	t0,0(a1)
    80001278:	00858593          	addi	a1,a1,8
    8000127c:	000103b7          	lui	t2,0x10
    80001280:	3f93839b          	addiw	t2,t2,1017
    80001284:	01439393          	slli	t2,t2,0x14
    80001288:	eff38393          	addi	t2,t2,-257 # feff <_start-0x7fff0101>
    8000128c:	00c39393          	slli	t2,t2,0xc
    80001290:	fff38393          	addi	t2,t2,-1
    80001294:	5e729ce3          	bne	t0,t2,8000208c <fail>

0000000080001298 <test_107>:
    80001298:	06b00193          	li	gp,107
    8000129c:	0005b283          	ld	t0,0(a1)
    800012a0:	00858593          	addi	a1,a1,8
    800012a4:	010703b7          	lui	t2,0x1070
    800012a8:	0013839b          	addiw	t2,t2,1
    800012ac:	01839393          	slli	t2,t2,0x18
    800012b0:	10038393          	addi	t2,t2,256 # 1070100 <_start-0x7ef8ff00>
    800012b4:	5c729ce3          	bne	t0,t2,8000208c <fail>

00000000800012b8 <test_108>:
    800012b8:	06c00193          	li	gp,108
    800012bc:	0005b283          	ld	t0,0(a1)
    800012c0:	00858593          	addi	a1,a1,8
    800012c4:	000103b7          	lui	t2,0x10
    800012c8:	3f93839b          	addiw	t2,t2,1017
    800012cc:	01439393          	slli	t2,t2,0x14
    800012d0:	eff38393          	addi	t2,t2,-257 # feff <_start-0x7fff0101>
    800012d4:	00c39393          	slli	t2,t2,0xc
    800012d8:	fff38393          	addi	t2,t2,-1
    800012dc:	5a7298e3          	bne	t0,t2,8000208c <fail>

00000000800012e0 <test_109>:
    800012e0:	06d00193          	li	gp,109
    800012e4:	0005b283          	ld	t0,0(a1)
    800012e8:	00858593          	addi	a1,a1,8
    800012ec:	010703b7          	lui	t2,0x1070
    800012f0:	0013839b          	addiw	t2,t2,1
    800012f4:	01839393          	slli	t2,t2,0x18
    800012f8:	10038393          	addi	t2,t2,256 # 1070100 <_start-0x7ef8ff00>
    800012fc:	587298e3          	bne	t0,t2,8000208c <fail>

0000000080001300 <test_110>:
    80001300:	06e00193          	li	gp,110
    80001304:	0005b283          	ld	t0,0(a1)
    80001308:	00858593          	addi	a1,a1,8
    8000130c:	000103b7          	lui	t2,0x10
    80001310:	3f93839b          	addiw	t2,t2,1017
    80001314:	01439393          	slli	t2,t2,0x14
    80001318:	eff38393          	addi	t2,t2,-257 # feff <_start-0x7fff0101>
    8000131c:	00c39393          	slli	t2,t2,0xc
    80001320:	fff38393          	addi	t2,t2,-1
    80001324:	567294e3          	bne	t0,t2,8000208c <fail>

0000000080001328 <test_111>:
    80001328:	06f00193          	li	gp,111
    8000132c:	0005b283          	ld	t0,0(a1)
    80001330:	00858593          	addi	a1,a1,8
    80001334:	010703b7          	lui	t2,0x1070
    80001338:	0013839b          	addiw	t2,t2,1
    8000133c:	01839393          	slli	t2,t2,0x18
    80001340:	10038393          	addi	t2,t2,256 # 1070100 <_start-0x7ef8ff00>
    80001344:	547294e3          	bne	t0,t2,8000208c <fail>

0000000080001348 <test_112>:
    80001348:	07000193          	li	gp,112
    8000134c:	0005b283          	ld	t0,0(a1)
    80001350:	00858593          	addi	a1,a1,8
    80001354:	000103b7          	lui	t2,0x10
    80001358:	3f93839b          	addiw	t2,t2,1017
    8000135c:	01439393          	slli	t2,t2,0x14
    80001360:	eff38393          	addi	t2,t2,-257 # feff <_start-0x7fff0101>
    80001364:	00c39393          	slli	t2,t2,0xc
    80001368:	fff38393          	addi	t2,t2,-1
    8000136c:	527290e3          	bne	t0,t2,8000208c <fail>

0000000080001370 <test_113>:
    80001370:	07100193          	li	gp,113
    80001374:	0005b283          	ld	t0,0(a1)
    80001378:	00858593          	addi	a1,a1,8
    8000137c:	010703b7          	lui	t2,0x1070
    80001380:	0013839b          	addiw	t2,t2,1
    80001384:	01839393          	slli	t2,t2,0x18
    80001388:	10038393          	addi	t2,t2,256 # 1070100 <_start-0x7ef8ff00>
    8000138c:	507290e3          	bne	t0,t2,8000208c <fail>
    80001390:	fff00293          	li	t0,-1
    80001394:	0c12f357          	vsetvli	t1,t0,e8,m2,ta,ma
    80001398:	00003617          	auipc	a2,0x3
    8000139c:	d7860613          	addi	a2,a2,-648 # 80004110 <tdat>
    800013a0:	02060407          	vle8.v	v8,(a2)
    800013a4:	0c22f357          	vsetvli	t1,t0,e8,m4,ta,ma
    800013a8:	02060207          	vle8.v	v4,(a2)
    800013ac:	00003617          	auipc	a2,0x3
    800013b0:	d6c60613          	addi	a2,a2,-660 # 80004118 <tdat+0x8>
    800013b4:	0c12f357          	vsetvli	t1,t0,e8,m2,ta,ma
    800013b8:	02060607          	vle8.v	v12,(a2)
    800013bc:	fff00293          	li	t0,-1
    800013c0:	0c02f357          	vsetvli	t1,t0,e8,m1,ta,ma
    800013c4:	00003697          	auipc	a3,0x3
    800013c8:	dd468693          	addi	a3,a3,-556 # 80004198 <mask>
    800013cc:	02068007          	vle8.v	v0,(a3)
    800013d0:	03f00293          	li	t0,63
    800013d4:	0c12f357          	vsetvli	t1,t0,e8,m2,ta,ma
    800013d8:	c0860257          	vwredsumu.vs	v4,v8,v12,v0.t
    800013dc:	fff00293          	li	t0,-1
    800013e0:	0c22f357          	vsetvli	t1,t0,e8,m4,ta,ma
    800013e4:	00003597          	auipc	a1,0x3
    800013e8:	c1c58593          	addi	a1,a1,-996 # 80004000 <begin_signature>
    800013ec:	02058227          	vse8.v	v4,(a1)

00000000800013f0 <test_114>:
    800013f0:	07200193          	li	gp,114
    800013f4:	0005b283          	ld	t0,0(a1)
    800013f8:	00858593          	addi	a1,a1,8
    800013fc:	000103b7          	lui	t2,0x10
    80001400:	3f93839b          	addiw	t2,t2,1017
    80001404:	01439393          	slli	t2,t2,0x14
    80001408:	ef138393          	addi	t2,t2,-271 # fef1 <_start-0x7fff010f>
    8000140c:	00c39393          	slli	t2,t2,0xc
    80001410:	ca038393          	addi	t2,t2,-864
    80001414:	46729ce3          	bne	t0,t2,8000208c <fail>

0000000080001418 <test_115>:
    80001418:	07300193          	li	gp,115
    8000141c:	0005b283          	ld	t0,0(a1)
    80001420:	00858593          	addi	a1,a1,8
    80001424:	010703b7          	lui	t2,0x1070
    80001428:	0013839b          	addiw	t2,t2,1
    8000142c:	01839393          	slli	t2,t2,0x18
    80001430:	10038393          	addi	t2,t2,256 # 1070100 <_start-0x7ef8ff00>
    80001434:	44729ce3          	bne	t0,t2,8000208c <fail>

0000000080001438 <test_116>:
    80001438:	07400193          	li	gp,116
    8000143c:	0005b283          	ld	t0,0(a1)
    80001440:	00858593          	addi	a1,a1,8
    80001444:	000103b7          	lui	t2,0x10
    80001448:	3f93839b          	addiw	t2,t2,1017
    8000144c:	01439393          	slli	t2,t2,0x14
    80001450:	eff38393          	addi	t2,t2,-257 # feff <_start-0x7fff0101>
    80001454:	00c39393          	slli	t2,t2,0xc
    80001458:	fff38393          	addi	t2,t2,-1
    8000145c:	427298e3          	bne	t0,t2,8000208c <fail>

0000000080001460 <test_117>:
    80001460:	07500193          	li	gp,117
    80001464:	0005b283          	ld	t0,0(a1)
    80001468:	00858593          	addi	a1,a1,8
    8000146c:	010703b7          	lui	t2,0x1070
    80001470:	0013839b          	addiw	t2,t2,1
    80001474:	01839393          	slli	t2,t2,0x18
    80001478:	10038393          	addi	t2,t2,256 # 1070100 <_start-0x7ef8ff00>
    8000147c:	407298e3          	bne	t0,t2,8000208c <fail>

0000000080001480 <test_118>:
    80001480:	07600193          	li	gp,118
    80001484:	0005b283          	ld	t0,0(a1)
    80001488:	00858593          	addi	a1,a1,8
    8000148c:	000103b7          	lui	t2,0x10
    80001490:	3f93839b          	addiw	t2,t2,1017
    80001494:	01439393          	slli	t2,t2,0x14
    80001498:	eff38393          	addi	t2,t2,-257 # feff <_start-0x7fff0101>
    8000149c:	00c39393          	slli	t2,t2,0xc
    800014a0:	fff38393          	addi	t2,t2,-1
    800014a4:	3e7294e3          	bne	t0,t2,8000208c <fail>

00000000800014a8 <test_119>:
    800014a8:	07700193          	li	gp,119
    800014ac:	0005b283          	ld	t0,0(a1)
    800014b0:	00858593          	addi	a1,a1,8
    800014b4:	010703b7          	lui	t2,0x1070
    800014b8:	0013839b          	addiw	t2,t2,1
    800014bc:	01839393          	slli	t2,t2,0x18
    800014c0:	10038393          	addi	t2,t2,256 # 1070100 <_start-0x7ef8ff00>
    800014c4:	3c7294e3          	bne	t0,t2,8000208c <fail>

00000000800014c8 <test_120>:
    800014c8:	07800193          	li	gp,120
    800014cc:	0005b283          	ld	t0,0(a1)
    800014d0:	00858593          	addi	a1,a1,8
    800014d4:	000103b7          	lui	t2,0x10
    800014d8:	3f93839b          	addiw	t2,t2,1017
    800014dc:	01439393          	slli	t2,t2,0x14
    800014e0:	eff38393          	addi	t2,t2,-257 # feff <_start-0x7fff0101>
    800014e4:	00c39393          	slli	t2,t2,0xc
    800014e8:	fff38393          	addi	t2,t2,-1
    800014ec:	3a7290e3          	bne	t0,t2,8000208c <fail>

00000000800014f0 <test_121>:
    800014f0:	07900193          	li	gp,121
    800014f4:	0005b283          	ld	t0,0(a1)
    800014f8:	00858593          	addi	a1,a1,8
    800014fc:	010703b7          	lui	t2,0x1070
    80001500:	0013839b          	addiw	t2,t2,1
    80001504:	01839393          	slli	t2,t2,0x18
    80001508:	10038393          	addi	t2,t2,256 # 1070100 <_start-0x7ef8ff00>
    8000150c:	387290e3          	bne	t0,t2,8000208c <fail>

0000000080001510 <test_122>:
    80001510:	07a00193          	li	gp,122
    80001514:	0005b283          	ld	t0,0(a1)
    80001518:	00858593          	addi	a1,a1,8
    8000151c:	000103b7          	lui	t2,0x10
    80001520:	3f93839b          	addiw	t2,t2,1017
    80001524:	01439393          	slli	t2,t2,0x14
    80001528:	eff38393          	addi	t2,t2,-257 # feff <_start-0x7fff0101>
    8000152c:	00c39393          	slli	t2,t2,0xc
    80001530:	fff38393          	addi	t2,t2,-1
    80001534:	34729ce3          	bne	t0,t2,8000208c <fail>

0000000080001538 <test_123>:
    80001538:	07b00193          	li	gp,123
    8000153c:	0005b283          	ld	t0,0(a1)
    80001540:	00858593          	addi	a1,a1,8
    80001544:	010703b7          	lui	t2,0x1070
    80001548:	0013839b          	addiw	t2,t2,1
    8000154c:	01839393          	slli	t2,t2,0x18
    80001550:	10038393          	addi	t2,t2,256 # 1070100 <_start-0x7ef8ff00>
    80001554:	32729ce3          	bne	t0,t2,8000208c <fail>

0000000080001558 <test_124>:
    80001558:	07c00193          	li	gp,124
    8000155c:	0005b283          	ld	t0,0(a1)
    80001560:	00858593          	addi	a1,a1,8
    80001564:	000103b7          	lui	t2,0x10
    80001568:	3f93839b          	addiw	t2,t2,1017
    8000156c:	01439393          	slli	t2,t2,0x14
    80001570:	eff38393          	addi	t2,t2,-257 # feff <_start-0x7fff0101>
    80001574:	00c39393          	slli	t2,t2,0xc
    80001578:	fff38393          	addi	t2,t2,-1
    8000157c:	307298e3          	bne	t0,t2,8000208c <fail>

0000000080001580 <test_125>:
    80001580:	07d00193          	li	gp,125
    80001584:	0005b283          	ld	t0,0(a1)
    80001588:	00858593          	addi	a1,a1,8
    8000158c:	010703b7          	lui	t2,0x1070
    80001590:	0013839b          	addiw	t2,t2,1
    80001594:	01839393          	slli	t2,t2,0x18
    80001598:	10038393          	addi	t2,t2,256 # 1070100 <_start-0x7ef8ff00>
    8000159c:	2e7298e3          	bne	t0,t2,8000208c <fail>

00000000800015a0 <test_126>:
    800015a0:	07e00193          	li	gp,126
    800015a4:	0005b283          	ld	t0,0(a1)
    800015a8:	00858593          	addi	a1,a1,8
    800015ac:	000103b7          	lui	t2,0x10
    800015b0:	3f93839b          	addiw	t2,t2,1017
    800015b4:	01439393          	slli	t2,t2,0x14
    800015b8:	eff38393          	addi	t2,t2,-257 # feff <_start-0x7fff0101>
    800015bc:	00c39393          	slli	t2,t2,0xc
    800015c0:	fff38393          	addi	t2,t2,-1
    800015c4:	2c7294e3          	bne	t0,t2,8000208c <fail>

00000000800015c8 <test_127>:
    800015c8:	07f00193          	li	gp,127
    800015cc:	0005b283          	ld	t0,0(a1)
    800015d0:	00858593          	addi	a1,a1,8
    800015d4:	010703b7          	lui	t2,0x1070
    800015d8:	0013839b          	addiw	t2,t2,1
    800015dc:	01839393          	slli	t2,t2,0x18
    800015e0:	10038393          	addi	t2,t2,256 # 1070100 <_start-0x7ef8ff00>
    800015e4:	2a7294e3          	bne	t0,t2,8000208c <fail>

00000000800015e8 <test_128>:
    800015e8:	08000193          	li	gp,128
    800015ec:	0005b283          	ld	t0,0(a1)
    800015f0:	00858593          	addi	a1,a1,8
    800015f4:	000103b7          	lui	t2,0x10
    800015f8:	3f93839b          	addiw	t2,t2,1017
    800015fc:	01439393          	slli	t2,t2,0x14
    80001600:	eff38393          	addi	t2,t2,-257 # feff <_start-0x7fff0101>
    80001604:	00c39393          	slli	t2,t2,0xc
    80001608:	fff38393          	addi	t2,t2,-1
    8000160c:	287290e3          	bne	t0,t2,8000208c <fail>

0000000080001610 <test_129>:
    80001610:	08100193          	li	gp,129
    80001614:	0005b283          	ld	t0,0(a1)
    80001618:	00858593          	addi	a1,a1,8
    8000161c:	010703b7          	lui	t2,0x1070
    80001620:	0013839b          	addiw	t2,t2,1
    80001624:	01839393          	slli	t2,t2,0x18
    80001628:	10038393          	addi	t2,t2,256 # 1070100 <_start-0x7ef8ff00>
    8000162c:	267290e3          	bne	t0,t2,8000208c <fail>
    80001630:	fff00293          	li	t0,-1
    80001634:	0c12f357          	vsetvli	t1,t0,e8,m2,ta,ma
    80001638:	00003617          	auipc	a2,0x3
    8000163c:	ad860613          	addi	a2,a2,-1320 # 80004110 <tdat>
    80001640:	02060407          	vle8.v	v8,(a2)
    80001644:	0c22f357          	vsetvli	t1,t0,e8,m4,ta,ma
    80001648:	02060207          	vle8.v	v4,(a2)
    8000164c:	00003617          	auipc	a2,0x3
    80001650:	acc60613          	addi	a2,a2,-1332 # 80004118 <tdat+0x8>
    80001654:	0c12f357          	vsetvli	t1,t0,e8,m2,ta,ma
    80001658:	02060607          	vle8.v	v12,(a2)
    8000165c:	04000293          	li	t0,64
    80001660:	0c12f357          	vsetvli	t1,t0,e8,m2,ta,ma
    80001664:	c2860257          	vwredsumu.vs	v4,v8,v12
    80001668:	fff00293          	li	t0,-1
    8000166c:	0c22f357          	vsetvli	t1,t0,e8,m4,ta,ma
    80001670:	00003597          	auipc	a1,0x3
    80001674:	99058593          	addi	a1,a1,-1648 # 80004000 <begin_signature>
    80001678:	02058227          	vse8.v	v4,(a1)

000000008000167c <test_130>:
    8000167c:	08200193          	li	gp,130
    80001680:	0005b283          	ld	t0,0(a1)
    80001684:	00858593          	addi	a1,a1,8
    80001688:	000103b7          	lui	t2,0x10
    8000168c:	3f93839b          	addiw	t2,t2,1017
    80001690:	01439393          	slli	t2,t2,0x14
    80001694:	ef138393          	addi	t2,t2,-271 # fef1 <_start-0x7fff010f>
    80001698:	00c39393          	slli	t2,t2,0xc
    8000169c:	48838393          	addi	t2,t2,1160
    800016a0:	1e7296e3          	bne	t0,t2,8000208c <fail>

00000000800016a4 <test_131>:
    800016a4:	08300193          	li	gp,131
    800016a8:	0005b283          	ld	t0,0(a1)
    800016ac:	00858593          	addi	a1,a1,8
    800016b0:	010703b7          	lui	t2,0x1070
    800016b4:	0013839b          	addiw	t2,t2,1
    800016b8:	01839393          	slli	t2,t2,0x18
    800016bc:	10038393          	addi	t2,t2,256 # 1070100 <_start-0x7ef8ff00>
    800016c0:	1c7296e3          	bne	t0,t2,8000208c <fail>

00000000800016c4 <test_132>:
    800016c4:	08400193          	li	gp,132
    800016c8:	0005b283          	ld	t0,0(a1)
    800016cc:	00858593          	addi	a1,a1,8
    800016d0:	000103b7          	lui	t2,0x10
    800016d4:	3f93839b          	addiw	t2,t2,1017
    800016d8:	01439393          	slli	t2,t2,0x14
    800016dc:	eff38393          	addi	t2,t2,-257 # feff <_start-0x7fff0101>
    800016e0:	00c39393          	slli	t2,t2,0xc
    800016e4:	fff38393          	addi	t2,t2,-1
    800016e8:	1a7292e3          	bne	t0,t2,8000208c <fail>

00000000800016ec <test_133>:
    800016ec:	08500193          	li	gp,133
    800016f0:	0005b283          	ld	t0,0(a1)
    800016f4:	00858593          	addi	a1,a1,8
    800016f8:	010703b7          	lui	t2,0x1070
    800016fc:	0013839b          	addiw	t2,t2,1
    80001700:	01839393          	slli	t2,t2,0x18
    80001704:	10038393          	addi	t2,t2,256 # 1070100 <_start-0x7ef8ff00>
    80001708:	187292e3          	bne	t0,t2,8000208c <fail>

000000008000170c <test_134>:
    8000170c:	08600193          	li	gp,134
    80001710:	0005b283          	ld	t0,0(a1)
    80001714:	00858593          	addi	a1,a1,8
    80001718:	000103b7          	lui	t2,0x10
    8000171c:	3f93839b          	addiw	t2,t2,1017
    80001720:	01439393          	slli	t2,t2,0x14
    80001724:	eff38393          	addi	t2,t2,-257 # feff <_start-0x7fff0101>
    80001728:	00c39393          	slli	t2,t2,0xc
    8000172c:	fff38393          	addi	t2,t2,-1
    80001730:	14729ee3          	bne	t0,t2,8000208c <fail>

0000000080001734 <test_135>:
    80001734:	08700193          	li	gp,135
    80001738:	0005b283          	ld	t0,0(a1)
    8000173c:	00858593          	addi	a1,a1,8
    80001740:	010703b7          	lui	t2,0x1070
    80001744:	0013839b          	addiw	t2,t2,1
    80001748:	01839393          	slli	t2,t2,0x18
    8000174c:	10038393          	addi	t2,t2,256 # 1070100 <_start-0x7ef8ff00>
    80001750:	12729ee3          	bne	t0,t2,8000208c <fail>

0000000080001754 <test_136>:
    80001754:	08800193          	li	gp,136
    80001758:	0005b283          	ld	t0,0(a1)
    8000175c:	00858593          	addi	a1,a1,8
    80001760:	000103b7          	lui	t2,0x10
    80001764:	3f93839b          	addiw	t2,t2,1017
    80001768:	01439393          	slli	t2,t2,0x14
    8000176c:	eff38393          	addi	t2,t2,-257 # feff <_start-0x7fff0101>
    80001770:	00c39393          	slli	t2,t2,0xc
    80001774:	fff38393          	addi	t2,t2,-1
    80001778:	10729ae3          	bne	t0,t2,8000208c <fail>

000000008000177c <test_137>:
    8000177c:	08900193          	li	gp,137
    80001780:	0005b283          	ld	t0,0(a1)
    80001784:	00858593          	addi	a1,a1,8
    80001788:	010703b7          	lui	t2,0x1070
    8000178c:	0013839b          	addiw	t2,t2,1
    80001790:	01839393          	slli	t2,t2,0x18
    80001794:	10038393          	addi	t2,t2,256 # 1070100 <_start-0x7ef8ff00>
    80001798:	0e729ae3          	bne	t0,t2,8000208c <fail>

000000008000179c <test_138>:
    8000179c:	08a00193          	li	gp,138
    800017a0:	0005b283          	ld	t0,0(a1)
    800017a4:	00858593          	addi	a1,a1,8
    800017a8:	000103b7          	lui	t2,0x10
    800017ac:	3f93839b          	addiw	t2,t2,1017
    800017b0:	01439393          	slli	t2,t2,0x14
    800017b4:	eff38393          	addi	t2,t2,-257 # feff <_start-0x7fff0101>
    800017b8:	00c39393          	slli	t2,t2,0xc
    800017bc:	fff38393          	addi	t2,t2,-1
    800017c0:	0c7296e3          	bne	t0,t2,8000208c <fail>

00000000800017c4 <test_139>:
    800017c4:	08b00193          	li	gp,139
    800017c8:	0005b283          	ld	t0,0(a1)
    800017cc:	00858593          	addi	a1,a1,8
    800017d0:	010703b7          	lui	t2,0x1070
    800017d4:	0013839b          	addiw	t2,t2,1
    800017d8:	01839393          	slli	t2,t2,0x18
    800017dc:	10038393          	addi	t2,t2,256 # 1070100 <_start-0x7ef8ff00>
    800017e0:	0a7296e3          	bne	t0,t2,8000208c <fail>

00000000800017e4 <test_140>:
    800017e4:	08c00193          	li	gp,140
    800017e8:	0005b283          	ld	t0,0(a1)
    800017ec:	00858593          	addi	a1,a1,8
    800017f0:	000103b7          	lui	t2,0x10
    800017f4:	3f93839b          	addiw	t2,t2,1017
    800017f8:	01439393          	slli	t2,t2,0x14
    800017fc:	eff38393          	addi	t2,t2,-257 # feff <_start-0x7fff0101>
    80001800:	00c39393          	slli	t2,t2,0xc
    80001804:	fff38393          	addi	t2,t2,-1
    80001808:	087292e3          	bne	t0,t2,8000208c <fail>

000000008000180c <test_141>:
    8000180c:	08d00193          	li	gp,141
    80001810:	0005b283          	ld	t0,0(a1)
    80001814:	00858593          	addi	a1,a1,8
    80001818:	010703b7          	lui	t2,0x1070
    8000181c:	0013839b          	addiw	t2,t2,1
    80001820:	01839393          	slli	t2,t2,0x18
    80001824:	10038393          	addi	t2,t2,256 # 1070100 <_start-0x7ef8ff00>
    80001828:	067292e3          	bne	t0,t2,8000208c <fail>

000000008000182c <test_142>:
    8000182c:	08e00193          	li	gp,142
    80001830:	0005b283          	ld	t0,0(a1)
    80001834:	00858593          	addi	a1,a1,8
    80001838:	000103b7          	lui	t2,0x10
    8000183c:	3f93839b          	addiw	t2,t2,1017
    80001840:	01439393          	slli	t2,t2,0x14
    80001844:	eff38393          	addi	t2,t2,-257 # feff <_start-0x7fff0101>
    80001848:	00c39393          	slli	t2,t2,0xc
    8000184c:	fff38393          	addi	t2,t2,-1
    80001850:	02729ee3          	bne	t0,t2,8000208c <fail>

0000000080001854 <test_143>:
    80001854:	08f00193          	li	gp,143
    80001858:	0005b283          	ld	t0,0(a1)
    8000185c:	00858593          	addi	a1,a1,8
    80001860:	010703b7          	lui	t2,0x1070
    80001864:	0013839b          	addiw	t2,t2,1
    80001868:	01839393          	slli	t2,t2,0x18
    8000186c:	10038393          	addi	t2,t2,256 # 1070100 <_start-0x7ef8ff00>
    80001870:	00729ee3          	bne	t0,t2,8000208c <fail>

0000000080001874 <test_144>:
    80001874:	09000193          	li	gp,144
    80001878:	0005b283          	ld	t0,0(a1)
    8000187c:	00858593          	addi	a1,a1,8
    80001880:	000103b7          	lui	t2,0x10
    80001884:	3f93839b          	addiw	t2,t2,1017
    80001888:	01439393          	slli	t2,t2,0x14
    8000188c:	eff38393          	addi	t2,t2,-257 # feff <_start-0x7fff0101>
    80001890:	00c39393          	slli	t2,t2,0xc
    80001894:	fff38393          	addi	t2,t2,-1
    80001898:	7e729a63          	bne	t0,t2,8000208c <fail>

000000008000189c <test_145>:
    8000189c:	09100193          	li	gp,145
    800018a0:	0005b283          	ld	t0,0(a1)
    800018a4:	00858593          	addi	a1,a1,8
    800018a8:	010703b7          	lui	t2,0x1070
    800018ac:	0013839b          	addiw	t2,t2,1
    800018b0:	01839393          	slli	t2,t2,0x18
    800018b4:	10038393          	addi	t2,t2,256 # 1070100 <_start-0x7ef8ff00>
    800018b8:	7c729a63          	bne	t0,t2,8000208c <fail>
    800018bc:	fff00293          	li	t0,-1
    800018c0:	0c12f357          	vsetvli	t1,t0,e8,m2,ta,ma
    800018c4:	00003617          	auipc	a2,0x3
    800018c8:	84c60613          	addi	a2,a2,-1972 # 80004110 <tdat>
    800018cc:	02060407          	vle8.v	v8,(a2)
    800018d0:	0c22f357          	vsetvli	t1,t0,e8,m4,ta,ma
    800018d4:	02060207          	vle8.v	v4,(a2)
    800018d8:	00003617          	auipc	a2,0x3
    800018dc:	84060613          	addi	a2,a2,-1984 # 80004118 <tdat+0x8>
    800018e0:	0c12f357          	vsetvli	t1,t0,e8,m2,ta,ma
    800018e4:	02060607          	vle8.v	v12,(a2)
    800018e8:	04000293          	li	t0,64
    800018ec:	0812f357          	vsetvli	t1,t0,e8,m2,tu,ma
    800018f0:	c2860257          	vwredsumu.vs	v4,v8,v12
    800018f4:	fff00293          	li	t0,-1
    800018f8:	0c22f357          	vsetvli	t1,t0,e8,m4,ta,ma
    800018fc:	00002597          	auipc	a1,0x2
    80001900:	70458593          	addi	a1,a1,1796 # 80004000 <begin_signature>
    80001904:	02058227          	vse8.v	v4,(a1)

0000000080001908 <test_146>:
    80001908:	09200193          	li	gp,146
    8000190c:	0005b283          	ld	t0,0(a1)
    80001910:	00858593          	addi	a1,a1,8
    80001914:	000103b7          	lui	t2,0x10
    80001918:	3f93839b          	addiw	t2,t2,1017
    8000191c:	01439393          	slli	t2,t2,0x14
    80001920:	ef138393          	addi	t2,t2,-271 # fef1 <_start-0x7fff010f>
    80001924:	00c39393          	slli	t2,t2,0xc
    80001928:	48838393          	addi	t2,t2,1160
    8000192c:	76729063          	bne	t0,t2,8000208c <fail>

0000000080001930 <test_147>:
    80001930:	09300193          	li	gp,147
    80001934:	0005b283          	ld	t0,0(a1)
    80001938:	00858593          	addi	a1,a1,8
    8000193c:	010703b7          	lui	t2,0x1070
    80001940:	0013839b          	addiw	t2,t2,1
    80001944:	01839393          	slli	t2,t2,0x18
    80001948:	10038393          	addi	t2,t2,256 # 1070100 <_start-0x7ef8ff00>
    8000194c:	74729063          	bne	t0,t2,8000208c <fail>

0000000080001950 <test_148>:
    80001950:	09400193          	li	gp,148
    80001954:	0005b283          	ld	t0,0(a1)
    80001958:	00858593          	addi	a1,a1,8
    8000195c:	000103b7          	lui	t2,0x10
    80001960:	3f93839b          	addiw	t2,t2,1017
    80001964:	01439393          	slli	t2,t2,0x14
    80001968:	eff38393          	addi	t2,t2,-257 # feff <_start-0x7fff0101>
    8000196c:	00c39393          	slli	t2,t2,0xc
    80001970:	fff38393          	addi	t2,t2,-1
    80001974:	70729c63          	bne	t0,t2,8000208c <fail>

0000000080001978 <test_149>:
    80001978:	09500193          	li	gp,149
    8000197c:	0005b283          	ld	t0,0(a1)
    80001980:	00858593          	addi	a1,a1,8
    80001984:	010703b7          	lui	t2,0x1070
    80001988:	0013839b          	addiw	t2,t2,1
    8000198c:	01839393          	slli	t2,t2,0x18
    80001990:	10038393          	addi	t2,t2,256 # 1070100 <_start-0x7ef8ff00>
    80001994:	6e729c63          	bne	t0,t2,8000208c <fail>

0000000080001998 <test_150>:
    80001998:	09600193          	li	gp,150
    8000199c:	0005b283          	ld	t0,0(a1)
    800019a0:	00858593          	addi	a1,a1,8
    800019a4:	000103b7          	lui	t2,0x10
    800019a8:	3f93839b          	addiw	t2,t2,1017
    800019ac:	01439393          	slli	t2,t2,0x14
    800019b0:	eff38393          	addi	t2,t2,-257 # feff <_start-0x7fff0101>
    800019b4:	00c39393          	slli	t2,t2,0xc
    800019b8:	fff38393          	addi	t2,t2,-1
    800019bc:	6c729863          	bne	t0,t2,8000208c <fail>

00000000800019c0 <test_151>:
    800019c0:	09700193          	li	gp,151
    800019c4:	0005b283          	ld	t0,0(a1)
    800019c8:	00858593          	addi	a1,a1,8
    800019cc:	010703b7          	lui	t2,0x1070
    800019d0:	0013839b          	addiw	t2,t2,1
    800019d4:	01839393          	slli	t2,t2,0x18
    800019d8:	10038393          	addi	t2,t2,256 # 1070100 <_start-0x7ef8ff00>
    800019dc:	6a729863          	bne	t0,t2,8000208c <fail>

00000000800019e0 <test_152>:
    800019e0:	09800193          	li	gp,152
    800019e4:	0005b283          	ld	t0,0(a1)
    800019e8:	00858593          	addi	a1,a1,8
    800019ec:	000103b7          	lui	t2,0x10
    800019f0:	3f93839b          	addiw	t2,t2,1017
    800019f4:	01439393          	slli	t2,t2,0x14
    800019f8:	eff38393          	addi	t2,t2,-257 # feff <_start-0x7fff0101>
    800019fc:	00c39393          	slli	t2,t2,0xc
    80001a00:	fff38393          	addi	t2,t2,-1
    80001a04:	68729463          	bne	t0,t2,8000208c <fail>

0000000080001a08 <test_153>:
    80001a08:	09900193          	li	gp,153
    80001a0c:	0005b283          	ld	t0,0(a1)
    80001a10:	00858593          	addi	a1,a1,8
    80001a14:	010703b7          	lui	t2,0x1070
    80001a18:	0013839b          	addiw	t2,t2,1
    80001a1c:	01839393          	slli	t2,t2,0x18
    80001a20:	10038393          	addi	t2,t2,256 # 1070100 <_start-0x7ef8ff00>
    80001a24:	66729463          	bne	t0,t2,8000208c <fail>

0000000080001a28 <test_154>:
    80001a28:	09a00193          	li	gp,154
    80001a2c:	0005b283          	ld	t0,0(a1)
    80001a30:	00858593          	addi	a1,a1,8
    80001a34:	000103b7          	lui	t2,0x10
    80001a38:	3f93839b          	addiw	t2,t2,1017
    80001a3c:	01439393          	slli	t2,t2,0x14
    80001a40:	eff38393          	addi	t2,t2,-257 # feff <_start-0x7fff0101>
    80001a44:	00c39393          	slli	t2,t2,0xc
    80001a48:	fff38393          	addi	t2,t2,-1
    80001a4c:	64729063          	bne	t0,t2,8000208c <fail>

0000000080001a50 <test_155>:
    80001a50:	09b00193          	li	gp,155
    80001a54:	0005b283          	ld	t0,0(a1)
    80001a58:	00858593          	addi	a1,a1,8
    80001a5c:	010703b7          	lui	t2,0x1070
    80001a60:	0013839b          	addiw	t2,t2,1
    80001a64:	01839393          	slli	t2,t2,0x18
    80001a68:	10038393          	addi	t2,t2,256 # 1070100 <_start-0x7ef8ff00>
    80001a6c:	62729063          	bne	t0,t2,8000208c <fail>

0000000080001a70 <test_156>:
    80001a70:	09c00193          	li	gp,156
    80001a74:	0005b283          	ld	t0,0(a1)
    80001a78:	00858593          	addi	a1,a1,8
    80001a7c:	000103b7          	lui	t2,0x10
    80001a80:	3f93839b          	addiw	t2,t2,1017
    80001a84:	01439393          	slli	t2,t2,0x14
    80001a88:	eff38393          	addi	t2,t2,-257 # feff <_start-0x7fff0101>
    80001a8c:	00c39393          	slli	t2,t2,0xc
    80001a90:	fff38393          	addi	t2,t2,-1
    80001a94:	5e729c63          	bne	t0,t2,8000208c <fail>

0000000080001a98 <test_157>:
    80001a98:	09d00193          	li	gp,157
    80001a9c:	0005b283          	ld	t0,0(a1)
    80001aa0:	00858593          	addi	a1,a1,8
    80001aa4:	010703b7          	lui	t2,0x1070
    80001aa8:	0013839b          	addiw	t2,t2,1
    80001aac:	01839393          	slli	t2,t2,0x18
    80001ab0:	10038393          	addi	t2,t2,256 # 1070100 <_start-0x7ef8ff00>
    80001ab4:	5c729c63          	bne	t0,t2,8000208c <fail>

0000000080001ab8 <test_158>:
    80001ab8:	09e00193          	li	gp,158
    80001abc:	0005b283          	ld	t0,0(a1)
    80001ac0:	00858593          	addi	a1,a1,8
    80001ac4:	000103b7          	lui	t2,0x10
    80001ac8:	3f93839b          	addiw	t2,t2,1017
    80001acc:	01439393          	slli	t2,t2,0x14
    80001ad0:	eff38393          	addi	t2,t2,-257 # feff <_start-0x7fff0101>
    80001ad4:	00c39393          	slli	t2,t2,0xc
    80001ad8:	fff38393          	addi	t2,t2,-1
    80001adc:	5a729863          	bne	t0,t2,8000208c <fail>

0000000080001ae0 <test_159>:
    80001ae0:	09f00193          	li	gp,159
    80001ae4:	0005b283          	ld	t0,0(a1)
    80001ae8:	00858593          	addi	a1,a1,8
    80001aec:	010703b7          	lui	t2,0x1070
    80001af0:	0013839b          	addiw	t2,t2,1
    80001af4:	01839393          	slli	t2,t2,0x18
    80001af8:	10038393          	addi	t2,t2,256 # 1070100 <_start-0x7ef8ff00>
    80001afc:	58729863          	bne	t0,t2,8000208c <fail>

0000000080001b00 <test_160>:
    80001b00:	0a000193          	li	gp,160
    80001b04:	0005b283          	ld	t0,0(a1)
    80001b08:	00858593          	addi	a1,a1,8
    80001b0c:	000103b7          	lui	t2,0x10
    80001b10:	3f93839b          	addiw	t2,t2,1017
    80001b14:	01439393          	slli	t2,t2,0x14
    80001b18:	eff38393          	addi	t2,t2,-257 # feff <_start-0x7fff0101>
    80001b1c:	00c39393          	slli	t2,t2,0xc
    80001b20:	fff38393          	addi	t2,t2,-1
    80001b24:	56729463          	bne	t0,t2,8000208c <fail>

0000000080001b28 <test_161>:
    80001b28:	0a100193          	li	gp,161
    80001b2c:	0005b283          	ld	t0,0(a1)
    80001b30:	00858593          	addi	a1,a1,8
    80001b34:	010703b7          	lui	t2,0x1070
    80001b38:	0013839b          	addiw	t2,t2,1
    80001b3c:	01839393          	slli	t2,t2,0x18
    80001b40:	10038393          	addi	t2,t2,256 # 1070100 <_start-0x7ef8ff00>
    80001b44:	54729463          	bne	t0,t2,8000208c <fail>
    80001b48:	fff00293          	li	t0,-1
    80001b4c:	0c12f357          	vsetvli	t1,t0,e8,m2,ta,ma
    80001b50:	00002617          	auipc	a2,0x2
    80001b54:	5c060613          	addi	a2,a2,1472 # 80004110 <tdat>
    80001b58:	02060407          	vle8.v	v8,(a2)
    80001b5c:	0c22f357          	vsetvli	t1,t0,e8,m4,ta,ma
    80001b60:	02060207          	vle8.v	v4,(a2)
    80001b64:	00002617          	auipc	a2,0x2
    80001b68:	5b460613          	addi	a2,a2,1460 # 80004118 <tdat+0x8>
    80001b6c:	0c12f357          	vsetvli	t1,t0,e8,m2,ta,ma
    80001b70:	02060607          	vle8.v	v12,(a2)
    80001b74:	fff00293          	li	t0,-1
    80001b78:	0c02f357          	vsetvli	t1,t0,e8,m1,ta,ma
    80001b7c:	00002697          	auipc	a3,0x2
    80001b80:	61c68693          	addi	a3,a3,1564 # 80004198 <mask>
    80001b84:	02068007          	vle8.v	v0,(a3)
    80001b88:	04000293          	li	t0,64
    80001b8c:	0c12f357          	vsetvli	t1,t0,e8,m2,ta,ma
    80001b90:	c0860257          	vwredsumu.vs	v4,v8,v12,v0.t
    80001b94:	fff00293          	li	t0,-1
    80001b98:	0c22f357          	vsetvli	t1,t0,e8,m4,ta,ma
    80001b9c:	00002597          	auipc	a1,0x2
    80001ba0:	46458593          	addi	a1,a1,1124 # 80004000 <begin_signature>
    80001ba4:	02058227          	vse8.v	v4,(a1)

0000000080001ba8 <test_162>:
    80001ba8:	0a200193          	li	gp,162
    80001bac:	0005b283          	ld	t0,0(a1)
    80001bb0:	00858593          	addi	a1,a1,8
    80001bb4:	000103b7          	lui	t2,0x10
    80001bb8:	3f93839b          	addiw	t2,t2,1017
    80001bbc:	01439393          	slli	t2,t2,0x14
    80001bc0:	ef138393          	addi	t2,t2,-271 # fef1 <_start-0x7fff010f>
    80001bc4:	00c39393          	slli	t2,t2,0xc
    80001bc8:	ca038393          	addi	t2,t2,-864
    80001bcc:	4c729063          	bne	t0,t2,8000208c <fail>

0000000080001bd0 <test_163>:
    80001bd0:	0a300193          	li	gp,163
    80001bd4:	0005b283          	ld	t0,0(a1)
    80001bd8:	00858593          	addi	a1,a1,8
    80001bdc:	010703b7          	lui	t2,0x1070
    80001be0:	0013839b          	addiw	t2,t2,1
    80001be4:	01839393          	slli	t2,t2,0x18
    80001be8:	10038393          	addi	t2,t2,256 # 1070100 <_start-0x7ef8ff00>
    80001bec:	4a729063          	bne	t0,t2,8000208c <fail>

0000000080001bf0 <test_164>:
    80001bf0:	0a400193          	li	gp,164
    80001bf4:	0005b283          	ld	t0,0(a1)
    80001bf8:	00858593          	addi	a1,a1,8
    80001bfc:	000103b7          	lui	t2,0x10
    80001c00:	3f93839b          	addiw	t2,t2,1017
    80001c04:	01439393          	slli	t2,t2,0x14
    80001c08:	eff38393          	addi	t2,t2,-257 # feff <_start-0x7fff0101>
    80001c0c:	00c39393          	slli	t2,t2,0xc
    80001c10:	fff38393          	addi	t2,t2,-1
    80001c14:	46729c63          	bne	t0,t2,8000208c <fail>

0000000080001c18 <test_165>:
    80001c18:	0a500193          	li	gp,165
    80001c1c:	0005b283          	ld	t0,0(a1)
    80001c20:	00858593          	addi	a1,a1,8
    80001c24:	010703b7          	lui	t2,0x1070
    80001c28:	0013839b          	addiw	t2,t2,1
    80001c2c:	01839393          	slli	t2,t2,0x18
    80001c30:	10038393          	addi	t2,t2,256 # 1070100 <_start-0x7ef8ff00>
    80001c34:	44729c63          	bne	t0,t2,8000208c <fail>

0000000080001c38 <test_166>:
    80001c38:	0a600193          	li	gp,166
    80001c3c:	0005b283          	ld	t0,0(a1)
    80001c40:	00858593          	addi	a1,a1,8
    80001c44:	000103b7          	lui	t2,0x10
    80001c48:	3f93839b          	addiw	t2,t2,1017
    80001c4c:	01439393          	slli	t2,t2,0x14
    80001c50:	eff38393          	addi	t2,t2,-257 # feff <_start-0x7fff0101>
    80001c54:	00c39393          	slli	t2,t2,0xc
    80001c58:	fff38393          	addi	t2,t2,-1
    80001c5c:	42729863          	bne	t0,t2,8000208c <fail>

0000000080001c60 <test_167>:
    80001c60:	0a700193          	li	gp,167
    80001c64:	0005b283          	ld	t0,0(a1)
    80001c68:	00858593          	addi	a1,a1,8
    80001c6c:	010703b7          	lui	t2,0x1070
    80001c70:	0013839b          	addiw	t2,t2,1
    80001c74:	01839393          	slli	t2,t2,0x18
    80001c78:	10038393          	addi	t2,t2,256 # 1070100 <_start-0x7ef8ff00>
    80001c7c:	40729863          	bne	t0,t2,8000208c <fail>

0000000080001c80 <test_168>:
    80001c80:	0a800193          	li	gp,168
    80001c84:	0005b283          	ld	t0,0(a1)
    80001c88:	00858593          	addi	a1,a1,8
    80001c8c:	000103b7          	lui	t2,0x10
    80001c90:	3f93839b          	addiw	t2,t2,1017
    80001c94:	01439393          	slli	t2,t2,0x14
    80001c98:	eff38393          	addi	t2,t2,-257 # feff <_start-0x7fff0101>
    80001c9c:	00c39393          	slli	t2,t2,0xc
    80001ca0:	fff38393          	addi	t2,t2,-1
    80001ca4:	3e729463          	bne	t0,t2,8000208c <fail>

0000000080001ca8 <test_169>:
    80001ca8:	0a900193          	li	gp,169
    80001cac:	0005b283          	ld	t0,0(a1)
    80001cb0:	00858593          	addi	a1,a1,8
    80001cb4:	010703b7          	lui	t2,0x1070
    80001cb8:	0013839b          	addiw	t2,t2,1
    80001cbc:	01839393          	slli	t2,t2,0x18
    80001cc0:	10038393          	addi	t2,t2,256 # 1070100 <_start-0x7ef8ff00>
    80001cc4:	3c729463          	bne	t0,t2,8000208c <fail>

0000000080001cc8 <test_170>:
    80001cc8:	0aa00193          	li	gp,170
    80001ccc:	0005b283          	ld	t0,0(a1)
    80001cd0:	00858593          	addi	a1,a1,8
    80001cd4:	000103b7          	lui	t2,0x10
    80001cd8:	3f93839b          	addiw	t2,t2,1017
    80001cdc:	01439393          	slli	t2,t2,0x14
    80001ce0:	eff38393          	addi	t2,t2,-257 # feff <_start-0x7fff0101>
    80001ce4:	00c39393          	slli	t2,t2,0xc
    80001ce8:	fff38393          	addi	t2,t2,-1
    80001cec:	3a729063          	bne	t0,t2,8000208c <fail>

0000000080001cf0 <test_171>:
    80001cf0:	0ab00193          	li	gp,171
    80001cf4:	0005b283          	ld	t0,0(a1)
    80001cf8:	00858593          	addi	a1,a1,8
    80001cfc:	010703b7          	lui	t2,0x1070
    80001d00:	0013839b          	addiw	t2,t2,1
    80001d04:	01839393          	slli	t2,t2,0x18
    80001d08:	10038393          	addi	t2,t2,256 # 1070100 <_start-0x7ef8ff00>
    80001d0c:	38729063          	bne	t0,t2,8000208c <fail>

0000000080001d10 <test_172>:
    80001d10:	0ac00193          	li	gp,172
    80001d14:	0005b283          	ld	t0,0(a1)
    80001d18:	00858593          	addi	a1,a1,8
    80001d1c:	000103b7          	lui	t2,0x10
    80001d20:	3f93839b          	addiw	t2,t2,1017
    80001d24:	01439393          	slli	t2,t2,0x14
    80001d28:	eff38393          	addi	t2,t2,-257 # feff <_start-0x7fff0101>
    80001d2c:	00c39393          	slli	t2,t2,0xc
    80001d30:	fff38393          	addi	t2,t2,-1
    80001d34:	34729c63          	bne	t0,t2,8000208c <fail>

0000000080001d38 <test_173>:
    80001d38:	0ad00193          	li	gp,173
    80001d3c:	0005b283          	ld	t0,0(a1)
    80001d40:	00858593          	addi	a1,a1,8
    80001d44:	010703b7          	lui	t2,0x1070
    80001d48:	0013839b          	addiw	t2,t2,1
    80001d4c:	01839393          	slli	t2,t2,0x18
    80001d50:	10038393          	addi	t2,t2,256 # 1070100 <_start-0x7ef8ff00>
    80001d54:	32729c63          	bne	t0,t2,8000208c <fail>

0000000080001d58 <test_174>:
    80001d58:	0ae00193          	li	gp,174
    80001d5c:	0005b283          	ld	t0,0(a1)
    80001d60:	00858593          	addi	a1,a1,8
    80001d64:	000103b7          	lui	t2,0x10
    80001d68:	3f93839b          	addiw	t2,t2,1017
    80001d6c:	01439393          	slli	t2,t2,0x14
    80001d70:	eff38393          	addi	t2,t2,-257 # feff <_start-0x7fff0101>
    80001d74:	00c39393          	slli	t2,t2,0xc
    80001d78:	fff38393          	addi	t2,t2,-1
    80001d7c:	30729863          	bne	t0,t2,8000208c <fail>

0000000080001d80 <test_175>:
    80001d80:	0af00193          	li	gp,175
    80001d84:	0005b283          	ld	t0,0(a1)
    80001d88:	00858593          	addi	a1,a1,8
    80001d8c:	010703b7          	lui	t2,0x1070
    80001d90:	0013839b          	addiw	t2,t2,1
    80001d94:	01839393          	slli	t2,t2,0x18
    80001d98:	10038393          	addi	t2,t2,256 # 1070100 <_start-0x7ef8ff00>
    80001d9c:	2e729863          	bne	t0,t2,8000208c <fail>

0000000080001da0 <test_176>:
    80001da0:	0b000193          	li	gp,176
    80001da4:	0005b283          	ld	t0,0(a1)
    80001da8:	00858593          	addi	a1,a1,8
    80001dac:	000103b7          	lui	t2,0x10
    80001db0:	3f93839b          	addiw	t2,t2,1017
    80001db4:	01439393          	slli	t2,t2,0x14
    80001db8:	eff38393          	addi	t2,t2,-257 # feff <_start-0x7fff0101>
    80001dbc:	00c39393          	slli	t2,t2,0xc
    80001dc0:	fff38393          	addi	t2,t2,-1
    80001dc4:	2c729463          	bne	t0,t2,8000208c <fail>

0000000080001dc8 <test_177>:
    80001dc8:	0b100193          	li	gp,177
    80001dcc:	0005b283          	ld	t0,0(a1)
    80001dd0:	00858593          	addi	a1,a1,8
    80001dd4:	010703b7          	lui	t2,0x1070
    80001dd8:	0013839b          	addiw	t2,t2,1
    80001ddc:	01839393          	slli	t2,t2,0x18
    80001de0:	10038393          	addi	t2,t2,256 # 1070100 <_start-0x7ef8ff00>
    80001de4:	2a729463          	bne	t0,t2,8000208c <fail>
    80001de8:	fff00293          	li	t0,-1
    80001dec:	0c12f357          	vsetvli	t1,t0,e8,m2,ta,ma
    80001df0:	00002617          	auipc	a2,0x2
    80001df4:	32060613          	addi	a2,a2,800 # 80004110 <tdat>
    80001df8:	02060407          	vle8.v	v8,(a2)
    80001dfc:	0c22f357          	vsetvli	t1,t0,e8,m4,ta,ma
    80001e00:	02060207          	vle8.v	v4,(a2)
    80001e04:	00002617          	auipc	a2,0x2
    80001e08:	31460613          	addi	a2,a2,788 # 80004118 <tdat+0x8>
    80001e0c:	0c12f357          	vsetvli	t1,t0,e8,m2,ta,ma
    80001e10:	02060607          	vle8.v	v12,(a2)
    80001e14:	fff00293          	li	t0,-1
    80001e18:	0c02f357          	vsetvli	t1,t0,e8,m1,ta,ma
    80001e1c:	00002697          	auipc	a3,0x2
    80001e20:	37c68693          	addi	a3,a3,892 # 80004198 <mask>
    80001e24:	02068007          	vle8.v	v0,(a3)
    80001e28:	04000293          	li	t0,64
    80001e2c:	0c12f357          	vsetvli	t1,t0,e8,m2,ta,ma
    80001e30:	c0860257          	vwredsumu.vs	v4,v8,v12,v0.t
    80001e34:	fff00293          	li	t0,-1
    80001e38:	0c22f357          	vsetvli	t1,t0,e8,m4,ta,ma
    80001e3c:	00002597          	auipc	a1,0x2
    80001e40:	1c458593          	addi	a1,a1,452 # 80004000 <begin_signature>
    80001e44:	02058227          	vse8.v	v4,(a1)

0000000080001e48 <test_178>:
    80001e48:	0b200193          	li	gp,178
    80001e4c:	0005b283          	ld	t0,0(a1)
    80001e50:	00858593          	addi	a1,a1,8
    80001e54:	000103b7          	lui	t2,0x10
    80001e58:	3f93839b          	addiw	t2,t2,1017
    80001e5c:	01439393          	slli	t2,t2,0x14
    80001e60:	ef138393          	addi	t2,t2,-271 # fef1 <_start-0x7fff010f>
    80001e64:	00c39393          	slli	t2,t2,0xc
    80001e68:	ca038393          	addi	t2,t2,-864
    80001e6c:	22729063          	bne	t0,t2,8000208c <fail>

0000000080001e70 <test_179>:
    80001e70:	0b300193          	li	gp,179
    80001e74:	0005b283          	ld	t0,0(a1)
    80001e78:	00858593          	addi	a1,a1,8
    80001e7c:	010703b7          	lui	t2,0x1070
    80001e80:	0013839b          	addiw	t2,t2,1
    80001e84:	01839393          	slli	t2,t2,0x18
    80001e88:	10038393          	addi	t2,t2,256 # 1070100 <_start-0x7ef8ff00>
    80001e8c:	20729063          	bne	t0,t2,8000208c <fail>

0000000080001e90 <test_180>:
    80001e90:	0b400193          	li	gp,180
    80001e94:	0005b283          	ld	t0,0(a1)
    80001e98:	00858593          	addi	a1,a1,8
    80001e9c:	000103b7          	lui	t2,0x10
    80001ea0:	3f93839b          	addiw	t2,t2,1017
    80001ea4:	01439393          	slli	t2,t2,0x14
    80001ea8:	eff38393          	addi	t2,t2,-257 # feff <_start-0x7fff0101>
    80001eac:	00c39393          	slli	t2,t2,0xc
    80001eb0:	fff38393          	addi	t2,t2,-1
    80001eb4:	1c729c63          	bne	t0,t2,8000208c <fail>

0000000080001eb8 <test_181>:
    80001eb8:	0b500193          	li	gp,181
    80001ebc:	0005b283          	ld	t0,0(a1)
    80001ec0:	00858593          	addi	a1,a1,8
    80001ec4:	010703b7          	lui	t2,0x1070
    80001ec8:	0013839b          	addiw	t2,t2,1
    80001ecc:	01839393          	slli	t2,t2,0x18
    80001ed0:	10038393          	addi	t2,t2,256 # 1070100 <_start-0x7ef8ff00>
    80001ed4:	1a729c63          	bne	t0,t2,8000208c <fail>

0000000080001ed8 <test_182>:
    80001ed8:	0b600193          	li	gp,182
    80001edc:	0005b283          	ld	t0,0(a1)
    80001ee0:	00858593          	addi	a1,a1,8
    80001ee4:	000103b7          	lui	t2,0x10
    80001ee8:	3f93839b          	addiw	t2,t2,1017
    80001eec:	01439393          	slli	t2,t2,0x14
    80001ef0:	eff38393          	addi	t2,t2,-257 # feff <_start-0x7fff0101>
    80001ef4:	00c39393          	slli	t2,t2,0xc
    80001ef8:	fff38393          	addi	t2,t2,-1
    80001efc:	18729863          	bne	t0,t2,8000208c <fail>

0000000080001f00 <test_183>:
    80001f00:	0b700193          	li	gp,183
    80001f04:	0005b283          	ld	t0,0(a1)
    80001f08:	00858593          	addi	a1,a1,8
    80001f0c:	010703b7          	lui	t2,0x1070
    80001f10:	0013839b          	addiw	t2,t2,1
    80001f14:	01839393          	slli	t2,t2,0x18
    80001f18:	10038393          	addi	t2,t2,256 # 1070100 <_start-0x7ef8ff00>
    80001f1c:	16729863          	bne	t0,t2,8000208c <fail>

0000000080001f20 <test_184>:
    80001f20:	0b800193          	li	gp,184
    80001f24:	0005b283          	ld	t0,0(a1)
    80001f28:	00858593          	addi	a1,a1,8
    80001f2c:	000103b7          	lui	t2,0x10
    80001f30:	3f93839b          	addiw	t2,t2,1017
    80001f34:	01439393          	slli	t2,t2,0x14
    80001f38:	eff38393          	addi	t2,t2,-257 # feff <_start-0x7fff0101>
    80001f3c:	00c39393          	slli	t2,t2,0xc
    80001f40:	fff38393          	addi	t2,t2,-1
    80001f44:	14729463          	bne	t0,t2,8000208c <fail>

0000000080001f48 <test_185>:
    80001f48:	0b900193          	li	gp,185
    80001f4c:	0005b283          	ld	t0,0(a1)
    80001f50:	00858593          	addi	a1,a1,8
    80001f54:	010703b7          	lui	t2,0x1070
    80001f58:	0013839b          	addiw	t2,t2,1
    80001f5c:	01839393          	slli	t2,t2,0x18
    80001f60:	10038393          	addi	t2,t2,256 # 1070100 <_start-0x7ef8ff00>
    80001f64:	12729463          	bne	t0,t2,8000208c <fail>

0000000080001f68 <test_186>:
    80001f68:	0ba00193          	li	gp,186
    80001f6c:	0005b283          	ld	t0,0(a1)
    80001f70:	00858593          	addi	a1,a1,8
    80001f74:	000103b7          	lui	t2,0x10
    80001f78:	3f93839b          	addiw	t2,t2,1017
    80001f7c:	01439393          	slli	t2,t2,0x14
    80001f80:	eff38393          	addi	t2,t2,-257 # feff <_start-0x7fff0101>
    80001f84:	00c39393          	slli	t2,t2,0xc
    80001f88:	fff38393          	addi	t2,t2,-1
    80001f8c:	10729063          	bne	t0,t2,8000208c <fail>

0000000080001f90 <test_187>:
    80001f90:	0bb00193          	li	gp,187
    80001f94:	0005b283          	ld	t0,0(a1)
    80001f98:	00858593          	addi	a1,a1,8
    80001f9c:	010703b7          	lui	t2,0x1070
    80001fa0:	0013839b          	addiw	t2,t2,1
    80001fa4:	01839393          	slli	t2,t2,0x18
    80001fa8:	10038393          	addi	t2,t2,256 # 1070100 <_start-0x7ef8ff00>
    80001fac:	0e729063          	bne	t0,t2,8000208c <fail>

0000000080001fb0 <test_188>:
    80001fb0:	0bc00193          	li	gp,188
    80001fb4:	0005b283          	ld	t0,0(a1)
    80001fb8:	00858593          	addi	a1,a1,8
    80001fbc:	000103b7          	lui	t2,0x10
    80001fc0:	3f93839b          	addiw	t2,t2,1017
    80001fc4:	01439393          	slli	t2,t2,0x14
    80001fc8:	eff38393          	addi	t2,t2,-257 # feff <_start-0x7fff0101>
    80001fcc:	00c39393          	slli	t2,t2,0xc
    80001fd0:	fff38393          	addi	t2,t2,-1
    80001fd4:	0a729c63          	bne	t0,t2,8000208c <fail>

0000000080001fd8 <test_189>:
    80001fd8:	0bd00193          	li	gp,189
    80001fdc:	0005b283          	ld	t0,0(a1)
    80001fe0:	00858593          	addi	a1,a1,8
    80001fe4:	010703b7          	lui	t2,0x1070
    80001fe8:	0013839b          	addiw	t2,t2,1
    80001fec:	01839393          	slli	t2,t2,0x18
    80001ff0:	10038393          	addi	t2,t2,256 # 1070100 <_start-0x7ef8ff00>
    80001ff4:	08729c63          	bne	t0,t2,8000208c <fail>

0000000080001ff8 <test_190>:
    80001ff8:	0be00193          	li	gp,190
    80001ffc:	0005b283          	ld	t0,0(a1)
    80002000:	00858593          	addi	a1,a1,8
    80002004:	000103b7          	lui	t2,0x10
    80002008:	3f93839b          	addiw	t2,t2,1017
    8000200c:	01439393          	slli	t2,t2,0x14
    80002010:	eff38393          	addi	t2,t2,-257 # feff <_start-0x7fff0101>
    80002014:	00c39393          	slli	t2,t2,0xc
    80002018:	fff38393          	addi	t2,t2,-1
    8000201c:	06729863          	bne	t0,t2,8000208c <fail>

0000000080002020 <test_191>:
    80002020:	0bf00193          	li	gp,191
    80002024:	0005b283          	ld	t0,0(a1)
    80002028:	00858593          	addi	a1,a1,8
    8000202c:	010703b7          	lui	t2,0x1070
    80002030:	0013839b          	addiw	t2,t2,1
    80002034:	01839393          	slli	t2,t2,0x18
    80002038:	10038393          	addi	t2,t2,256 # 1070100 <_start-0x7ef8ff00>
    8000203c:	04729863          	bne	t0,t2,8000208c <fail>

0000000080002040 <test_192>:
    80002040:	0c000193          	li	gp,192
    80002044:	0005b283          	ld	t0,0(a1)
    80002048:	00858593          	addi	a1,a1,8
    8000204c:	000103b7          	lui	t2,0x10
    80002050:	3f93839b          	addiw	t2,t2,1017
    80002054:	01439393          	slli	t2,t2,0x14
    80002058:	eff38393          	addi	t2,t2,-257 # feff <_start-0x7fff0101>
    8000205c:	00c39393          	slli	t2,t2,0xc
    80002060:	fff38393          	addi	t2,t2,-1
    80002064:	02729463          	bne	t0,t2,8000208c <fail>

0000000080002068 <test_193>:
    80002068:	0c100193          	li	gp,193
    8000206c:	0005b283          	ld	t0,0(a1)
    80002070:	00858593          	addi	a1,a1,8
    80002074:	010703b7          	lui	t2,0x1070
    80002078:	0013839b          	addiw	t2,t2,1
    8000207c:	01839393          	slli	t2,t2,0x18
    80002080:	10038393          	addi	t2,t2,256 # 1070100 <_start-0x7ef8ff00>
    80002084:	00729463          	bne	t0,t2,8000208c <fail>
    80002088:	00301a63          	bne	zero,gp,8000209c <pass>

000000008000208c <fail>:
    8000208c:	0ff0000f          	fence
    80002090:	00018513          	mv	a0,gp
    80002094:	05d00893          	li	a7,93
    80002098:	00000073          	ecall

000000008000209c <pass>:
    8000209c:	0ff0000f          	fence
    800020a0:	00000513          	li	a0,0
    800020a4:	05d00893          	li	a7,93
    800020a8:	00000073          	ecall
    800020ac:	0000                	unimp
    800020ae:	0000                	unimp
    800020b0:	0000                	unimp
    800020b2:	0000                	unimp
    800020b4:	0000                	unimp
    800020b6:	0000                	unimp
    800020b8:	0000                	unimp
    800020ba:	0000                	unimp
    800020bc:	0000                	unimp
    800020be:	0000                	unimp
    800020c0:	0000                	unimp
    800020c2:	0000                	unimp
