
rv64uv-ps-vwredsumu.vs_LMUL4SEW16:     file format elf64-littleriscv


Disassembly of section .text.init:

0000000080000000 <_start>:
    80000000:	00000297          	auipc	t0,0x0
    80000004:	00c28293          	addi	t0,t0,12 # 8000000c <_start+0xc>
    80000008:	00028067          	jr	t0
    8000000c:	fff00293          	li	t0,-1
    80000010:	0ca2f357          	vsetvli	t1,t0,e16,m4,ta,ma
    80000014:	00005617          	auipc	a2,0x5
    80000018:	1fc60613          	addi	a2,a2,508 # 80005210 <tdat>
    8000001c:	02065807          	vle16.v	v16,(a2)
    80000020:	0cb2f357          	vsetvli	t1,t0,e16,m8,ta,ma
    80000024:	02065407          	vle16.v	v8,(a2)
    80000028:	00005617          	auipc	a2,0x5
    8000002c:	1f060613          	addi	a2,a2,496 # 80005218 <tdat+0x8>
    80000030:	0ca2f357          	vsetvli	t1,t0,e16,m4,ta,ma
    80000034:	02065c07          	vle16.v	v24,(a2)
    80000038:	02000293          	li	t0,32
    8000003c:	0ca2f357          	vsetvli	t1,t0,e16,m4,ta,ma
    80000040:	c30c0457          	vwredsumu.vs	v8,v16,v24
    80000044:	fff00293          	li	t0,-1
    80000048:	0cb2f357          	vsetvli	t1,t0,e16,m8,ta,ma
    8000004c:	00005597          	auipc	a1,0x5
    80000050:	fb458593          	addi	a1,a1,-76 # 80005000 <begin_signature>
    80000054:	0205d427          	vse16.v	v8,(a1)

0000000080000058 <test_2>:
    80000058:	00200193          	li	gp,2
    8000005c:	0005b283          	ld	t0,0(a1)
    80000060:	00858593          	addi	a1,a1,8
    80000064:	000403b7          	lui	t2,0x40
    80000068:	0433839b          	addiw	t2,t2,67
    8000006c:	00e39393          	slli	t2,t2,0xe
    80000070:	00438393          	addi	t2,t2,4 # 40004 <_start-0x7ffbfffc>
    80000074:	00728463          	beq	t0,t2,8000007c <test_3>
    80000078:	6300306f          	j	800036a8 <fail>

000000008000007c <test_3>:
    8000007c:	00300193          	li	gp,3
    80000080:	0005b283          	ld	t0,0(a1)
    80000084:	00858593          	addi	a1,a1,8
    80000088:	000103b7          	lui	t2,0x10
    8000008c:	0073839b          	addiw	t2,t2,7
    80000090:	01039393          	slli	t2,t2,0x10
    80000094:	00728463          	beq	t0,t2,8000009c <test_4>
    80000098:	6100306f          	j	800036a8 <fail>

000000008000009c <test_4>:
    8000009c:	00400193          	li	gp,4
    800000a0:	0005b283          	ld	t0,0(a1)
    800000a4:	00858593          	addi	a1,a1,8
    800000a8:	ffff03b7          	lui	t2,0xffff0
    800000ac:	fff3839b          	addiw	t2,t2,-1
    800000b0:	01c39393          	slli	t2,t2,0x1c
    800000b4:	fff38393          	addi	t2,t2,-1 # fffffffffffeffff <_end+0xffffffff7ffeacbf>
    800000b8:	00728463          	beq	t0,t2,800000c0 <test_5>
    800000bc:	5ec0306f          	j	800036a8 <fail>

00000000800000c0 <test_5>:
    800000c0:	00500193          	li	gp,5
    800000c4:	0005b283          	ld	t0,0(a1)
    800000c8:	00858593          	addi	a1,a1,8
    800000cc:	0010039b          	addiw	t2,zero,1
    800000d0:	02039393          	slli	t2,t2,0x20
    800000d4:	00138393          	addi	t2,t2,1
    800000d8:	01039393          	slli	t2,t2,0x10
    800000dc:	00728463          	beq	t0,t2,800000e4 <test_6>
    800000e0:	5c80306f          	j	800036a8 <fail>

00000000800000e4 <test_6>:
    800000e4:	00600193          	li	gp,6
    800000e8:	0005b283          	ld	t0,0(a1)
    800000ec:	00858593          	addi	a1,a1,8
    800000f0:	000043b7          	lui	t2,0x4
    800000f4:	0013839b          	addiw	t2,t2,1
    800000f8:	01239393          	slli	t2,t2,0x12
    800000fc:	ff838393          	addi	t2,t2,-8 # 3ff8 <_start-0x7fffc008>
    80000100:	00728463          	beq	t0,t2,80000108 <test_7>
    80000104:	5a40306f          	j	800036a8 <fail>

0000000080000108 <test_7>:
    80000108:	00700193          	li	gp,7
    8000010c:	0005b283          	ld	t0,0(a1)
    80000110:	00858593          	addi	a1,a1,8
    80000114:	000103b7          	lui	t2,0x10
    80000118:	0073839b          	addiw	t2,t2,7
    8000011c:	01039393          	slli	t2,t2,0x10
    80000120:	00728463          	beq	t0,t2,80000128 <test_8>
    80000124:	5840306f          	j	800036a8 <fail>

0000000080000128 <test_8>:
    80000128:	00800193          	li	gp,8
    8000012c:	0005b283          	ld	t0,0(a1)
    80000130:	00858593          	addi	a1,a1,8
    80000134:	ffff03b7          	lui	t2,0xffff0
    80000138:	fff3839b          	addiw	t2,t2,-1
    8000013c:	01c39393          	slli	t2,t2,0x1c
    80000140:	fff38393          	addi	t2,t2,-1 # fffffffffffeffff <_end+0xffffffff7ffeacbf>
    80000144:	00728463          	beq	t0,t2,8000014c <test_9>
    80000148:	5600306f          	j	800036a8 <fail>

000000008000014c <test_9>:
    8000014c:	00900193          	li	gp,9
    80000150:	0005b283          	ld	t0,0(a1)
    80000154:	00858593          	addi	a1,a1,8
    80000158:	0010039b          	addiw	t2,zero,1
    8000015c:	02039393          	slli	t2,t2,0x20
    80000160:	00138393          	addi	t2,t2,1
    80000164:	01039393          	slli	t2,t2,0x10
    80000168:	00728463          	beq	t0,t2,80000170 <test_10>
    8000016c:	53c0306f          	j	800036a8 <fail>

0000000080000170 <test_10>:
    80000170:	00a00193          	li	gp,10
    80000174:	0005b283          	ld	t0,0(a1)
    80000178:	00858593          	addi	a1,a1,8
    8000017c:	000043b7          	lui	t2,0x4
    80000180:	0013839b          	addiw	t2,t2,1
    80000184:	01239393          	slli	t2,t2,0x12
    80000188:	ff838393          	addi	t2,t2,-8 # 3ff8 <_start-0x7fffc008>
    8000018c:	00728463          	beq	t0,t2,80000194 <test_11>
    80000190:	5180306f          	j	800036a8 <fail>

0000000080000194 <test_11>:
    80000194:	00b00193          	li	gp,11
    80000198:	0005b283          	ld	t0,0(a1)
    8000019c:	00858593          	addi	a1,a1,8
    800001a0:	000103b7          	lui	t2,0x10
    800001a4:	0073839b          	addiw	t2,t2,7
    800001a8:	01039393          	slli	t2,t2,0x10
    800001ac:	00728463          	beq	t0,t2,800001b4 <test_12>
    800001b0:	4f80306f          	j	800036a8 <fail>

00000000800001b4 <test_12>:
    800001b4:	00c00193          	li	gp,12
    800001b8:	0005b283          	ld	t0,0(a1)
    800001bc:	00858593          	addi	a1,a1,8
    800001c0:	ffff03b7          	lui	t2,0xffff0
    800001c4:	fff3839b          	addiw	t2,t2,-1
    800001c8:	01c39393          	slli	t2,t2,0x1c
    800001cc:	fff38393          	addi	t2,t2,-1 # fffffffffffeffff <_end+0xffffffff7ffeacbf>
    800001d0:	00728463          	beq	t0,t2,800001d8 <test_13>
    800001d4:	4d40306f          	j	800036a8 <fail>

00000000800001d8 <test_13>:
    800001d8:	00d00193          	li	gp,13
    800001dc:	0005b283          	ld	t0,0(a1)
    800001e0:	00858593          	addi	a1,a1,8
    800001e4:	0010039b          	addiw	t2,zero,1
    800001e8:	02039393          	slli	t2,t2,0x20
    800001ec:	00138393          	addi	t2,t2,1
    800001f0:	01039393          	slli	t2,t2,0x10
    800001f4:	00728463          	beq	t0,t2,800001fc <test_14>
    800001f8:	4b00306f          	j	800036a8 <fail>

00000000800001fc <test_14>:
    800001fc:	00e00193          	li	gp,14
    80000200:	0005b283          	ld	t0,0(a1)
    80000204:	00858593          	addi	a1,a1,8
    80000208:	000043b7          	lui	t2,0x4
    8000020c:	0013839b          	addiw	t2,t2,1
    80000210:	01239393          	slli	t2,t2,0x12
    80000214:	ff838393          	addi	t2,t2,-8 # 3ff8 <_start-0x7fffc008>
    80000218:	00728463          	beq	t0,t2,80000220 <test_15>
    8000021c:	48c0306f          	j	800036a8 <fail>

0000000080000220 <test_15>:
    80000220:	00f00193          	li	gp,15
    80000224:	0005b283          	ld	t0,0(a1)
    80000228:	00858593          	addi	a1,a1,8
    8000022c:	000103b7          	lui	t2,0x10
    80000230:	0073839b          	addiw	t2,t2,7
    80000234:	01039393          	slli	t2,t2,0x10
    80000238:	00728463          	beq	t0,t2,80000240 <test_16>
    8000023c:	46c0306f          	j	800036a8 <fail>

0000000080000240 <test_16>:
    80000240:	01000193          	li	gp,16
    80000244:	0005b283          	ld	t0,0(a1)
    80000248:	00858593          	addi	a1,a1,8
    8000024c:	ffff03b7          	lui	t2,0xffff0
    80000250:	fff3839b          	addiw	t2,t2,-1
    80000254:	01c39393          	slli	t2,t2,0x1c
    80000258:	fff38393          	addi	t2,t2,-1 # fffffffffffeffff <_end+0xffffffff7ffeacbf>
    8000025c:	00728463          	beq	t0,t2,80000264 <test_17>
    80000260:	4480306f          	j	800036a8 <fail>

0000000080000264 <test_17>:
    80000264:	01100193          	li	gp,17
    80000268:	0005b283          	ld	t0,0(a1)
    8000026c:	00858593          	addi	a1,a1,8
    80000270:	0010039b          	addiw	t2,zero,1
    80000274:	02039393          	slli	t2,t2,0x20
    80000278:	00138393          	addi	t2,t2,1
    8000027c:	01039393          	slli	t2,t2,0x10
    80000280:	00728463          	beq	t0,t2,80000288 <test_18>
    80000284:	4240306f          	j	800036a8 <fail>

0000000080000288 <test_18>:
    80000288:	01200193          	li	gp,18
    8000028c:	0005b283          	ld	t0,0(a1)
    80000290:	00858593          	addi	a1,a1,8
    80000294:	000043b7          	lui	t2,0x4
    80000298:	0013839b          	addiw	t2,t2,1
    8000029c:	01239393          	slli	t2,t2,0x12
    800002a0:	ff838393          	addi	t2,t2,-8 # 3ff8 <_start-0x7fffc008>
    800002a4:	00728463          	beq	t0,t2,800002ac <test_19>
    800002a8:	4000306f          	j	800036a8 <fail>

00000000800002ac <test_19>:
    800002ac:	01300193          	li	gp,19
    800002b0:	0005b283          	ld	t0,0(a1)
    800002b4:	00858593          	addi	a1,a1,8
    800002b8:	000103b7          	lui	t2,0x10
    800002bc:	0073839b          	addiw	t2,t2,7
    800002c0:	01039393          	slli	t2,t2,0x10
    800002c4:	00728463          	beq	t0,t2,800002cc <test_20>
    800002c8:	3e00306f          	j	800036a8 <fail>

00000000800002cc <test_20>:
    800002cc:	01400193          	li	gp,20
    800002d0:	0005b283          	ld	t0,0(a1)
    800002d4:	00858593          	addi	a1,a1,8
    800002d8:	ffff03b7          	lui	t2,0xffff0
    800002dc:	fff3839b          	addiw	t2,t2,-1
    800002e0:	01c39393          	slli	t2,t2,0x1c
    800002e4:	fff38393          	addi	t2,t2,-1 # fffffffffffeffff <_end+0xffffffff7ffeacbf>
    800002e8:	00728463          	beq	t0,t2,800002f0 <test_21>
    800002ec:	3bc0306f          	j	800036a8 <fail>

00000000800002f0 <test_21>:
    800002f0:	01500193          	li	gp,21
    800002f4:	0005b283          	ld	t0,0(a1)
    800002f8:	00858593          	addi	a1,a1,8
    800002fc:	0010039b          	addiw	t2,zero,1
    80000300:	02039393          	slli	t2,t2,0x20
    80000304:	00138393          	addi	t2,t2,1
    80000308:	01039393          	slli	t2,t2,0x10
    8000030c:	00728463          	beq	t0,t2,80000314 <test_22>
    80000310:	3980306f          	j	800036a8 <fail>

0000000080000314 <test_22>:
    80000314:	01600193          	li	gp,22
    80000318:	0005b283          	ld	t0,0(a1)
    8000031c:	00858593          	addi	a1,a1,8
    80000320:	000043b7          	lui	t2,0x4
    80000324:	0013839b          	addiw	t2,t2,1
    80000328:	01239393          	slli	t2,t2,0x12
    8000032c:	ff838393          	addi	t2,t2,-8 # 3ff8 <_start-0x7fffc008>
    80000330:	00728463          	beq	t0,t2,80000338 <test_23>
    80000334:	3740306f          	j	800036a8 <fail>

0000000080000338 <test_23>:
    80000338:	01700193          	li	gp,23
    8000033c:	0005b283          	ld	t0,0(a1)
    80000340:	00858593          	addi	a1,a1,8
    80000344:	000103b7          	lui	t2,0x10
    80000348:	0073839b          	addiw	t2,t2,7
    8000034c:	01039393          	slli	t2,t2,0x10
    80000350:	00728463          	beq	t0,t2,80000358 <test_24>
    80000354:	3540306f          	j	800036a8 <fail>

0000000080000358 <test_24>:
    80000358:	01800193          	li	gp,24
    8000035c:	0005b283          	ld	t0,0(a1)
    80000360:	00858593          	addi	a1,a1,8
    80000364:	ffff03b7          	lui	t2,0xffff0
    80000368:	fff3839b          	addiw	t2,t2,-1
    8000036c:	01c39393          	slli	t2,t2,0x1c
    80000370:	fff38393          	addi	t2,t2,-1 # fffffffffffeffff <_end+0xffffffff7ffeacbf>
    80000374:	00728463          	beq	t0,t2,8000037c <test_25>
    80000378:	3300306f          	j	800036a8 <fail>

000000008000037c <test_25>:
    8000037c:	01900193          	li	gp,25
    80000380:	0005b283          	ld	t0,0(a1)
    80000384:	00858593          	addi	a1,a1,8
    80000388:	0010039b          	addiw	t2,zero,1
    8000038c:	02039393          	slli	t2,t2,0x20
    80000390:	00138393          	addi	t2,t2,1
    80000394:	01039393          	slli	t2,t2,0x10
    80000398:	00728463          	beq	t0,t2,800003a0 <test_26>
    8000039c:	30c0306f          	j	800036a8 <fail>

00000000800003a0 <test_26>:
    800003a0:	01a00193          	li	gp,26
    800003a4:	0005b283          	ld	t0,0(a1)
    800003a8:	00858593          	addi	a1,a1,8
    800003ac:	000043b7          	lui	t2,0x4
    800003b0:	0013839b          	addiw	t2,t2,1
    800003b4:	01239393          	slli	t2,t2,0x12
    800003b8:	ff838393          	addi	t2,t2,-8 # 3ff8 <_start-0x7fffc008>
    800003bc:	00728463          	beq	t0,t2,800003c4 <test_27>
    800003c0:	2e80306f          	j	800036a8 <fail>

00000000800003c4 <test_27>:
    800003c4:	01b00193          	li	gp,27
    800003c8:	0005b283          	ld	t0,0(a1)
    800003cc:	00858593          	addi	a1,a1,8
    800003d0:	000103b7          	lui	t2,0x10
    800003d4:	0073839b          	addiw	t2,t2,7
    800003d8:	01039393          	slli	t2,t2,0x10
    800003dc:	00728463          	beq	t0,t2,800003e4 <test_28>
    800003e0:	2c80306f          	j	800036a8 <fail>

00000000800003e4 <test_28>:
    800003e4:	01c00193          	li	gp,28
    800003e8:	0005b283          	ld	t0,0(a1)
    800003ec:	00858593          	addi	a1,a1,8
    800003f0:	ffff03b7          	lui	t2,0xffff0
    800003f4:	fff3839b          	addiw	t2,t2,-1
    800003f8:	01c39393          	slli	t2,t2,0x1c
    800003fc:	fff38393          	addi	t2,t2,-1 # fffffffffffeffff <_end+0xffffffff7ffeacbf>
    80000400:	00728463          	beq	t0,t2,80000408 <test_29>
    80000404:	2a40306f          	j	800036a8 <fail>

0000000080000408 <test_29>:
    80000408:	01d00193          	li	gp,29
    8000040c:	0005b283          	ld	t0,0(a1)
    80000410:	00858593          	addi	a1,a1,8
    80000414:	0010039b          	addiw	t2,zero,1
    80000418:	02039393          	slli	t2,t2,0x20
    8000041c:	00138393          	addi	t2,t2,1
    80000420:	01039393          	slli	t2,t2,0x10
    80000424:	00728463          	beq	t0,t2,8000042c <test_30>
    80000428:	2800306f          	j	800036a8 <fail>

000000008000042c <test_30>:
    8000042c:	01e00193          	li	gp,30
    80000430:	0005b283          	ld	t0,0(a1)
    80000434:	00858593          	addi	a1,a1,8
    80000438:	000043b7          	lui	t2,0x4
    8000043c:	0013839b          	addiw	t2,t2,1
    80000440:	01239393          	slli	t2,t2,0x12
    80000444:	ff838393          	addi	t2,t2,-8 # 3ff8 <_start-0x7fffc008>
    80000448:	00728463          	beq	t0,t2,80000450 <test_31>
    8000044c:	25c0306f          	j	800036a8 <fail>

0000000080000450 <test_31>:
    80000450:	01f00193          	li	gp,31
    80000454:	0005b283          	ld	t0,0(a1)
    80000458:	00858593          	addi	a1,a1,8
    8000045c:	000103b7          	lui	t2,0x10
    80000460:	0073839b          	addiw	t2,t2,7
    80000464:	01039393          	slli	t2,t2,0x10
    80000468:	00728463          	beq	t0,t2,80000470 <test_32>
    8000046c:	23c0306f          	j	800036a8 <fail>

0000000080000470 <test_32>:
    80000470:	02000193          	li	gp,32
    80000474:	0005b283          	ld	t0,0(a1)
    80000478:	00858593          	addi	a1,a1,8
    8000047c:	ffff03b7          	lui	t2,0xffff0
    80000480:	fff3839b          	addiw	t2,t2,-1
    80000484:	01c39393          	slli	t2,t2,0x1c
    80000488:	fff38393          	addi	t2,t2,-1 # fffffffffffeffff <_end+0xffffffff7ffeacbf>
    8000048c:	00728463          	beq	t0,t2,80000494 <test_33>
    80000490:	2180306f          	j	800036a8 <fail>

0000000080000494 <test_33>:
    80000494:	02100193          	li	gp,33
    80000498:	0005b283          	ld	t0,0(a1)
    8000049c:	00858593          	addi	a1,a1,8
    800004a0:	0010039b          	addiw	t2,zero,1
    800004a4:	02039393          	slli	t2,t2,0x20
    800004a8:	00138393          	addi	t2,t2,1
    800004ac:	01039393          	slli	t2,t2,0x10
    800004b0:	00728463          	beq	t0,t2,800004b8 <test_33+0x24>
    800004b4:	1f40306f          	j	800036a8 <fail>
    800004b8:	fff00293          	li	t0,-1
    800004bc:	0ca2f357          	vsetvli	t1,t0,e16,m4,ta,ma
    800004c0:	00005617          	auipc	a2,0x5
    800004c4:	d5060613          	addi	a2,a2,-688 # 80005210 <tdat>
    800004c8:	02065807          	vle16.v	v16,(a2)
    800004cc:	0cb2f357          	vsetvli	t1,t0,e16,m8,ta,ma
    800004d0:	02065407          	vle16.v	v8,(a2)
    800004d4:	00005617          	auipc	a2,0x5
    800004d8:	d4460613          	addi	a2,a2,-700 # 80005218 <tdat+0x8>
    800004dc:	0ca2f357          	vsetvli	t1,t0,e16,m4,ta,ma
    800004e0:	02065c07          	vle16.v	v24,(a2)
    800004e4:	02000293          	li	t0,32
    800004e8:	08a2f357          	vsetvli	t1,t0,e16,m4,tu,ma
    800004ec:	c30c0457          	vwredsumu.vs	v8,v16,v24
    800004f0:	fff00293          	li	t0,-1
    800004f4:	0cb2f357          	vsetvli	t1,t0,e16,m8,ta,ma
    800004f8:	00005597          	auipc	a1,0x5
    800004fc:	b0858593          	addi	a1,a1,-1272 # 80005000 <begin_signature>
    80000500:	0205d427          	vse16.v	v8,(a1)

0000000080000504 <test_34>:
    80000504:	02200193          	li	gp,34
    80000508:	0005b283          	ld	t0,0(a1)
    8000050c:	00858593          	addi	a1,a1,8
    80000510:	000403b7          	lui	t2,0x40
    80000514:	0433839b          	addiw	t2,t2,67
    80000518:	00e39393          	slli	t2,t2,0xe
    8000051c:	00438393          	addi	t2,t2,4 # 40004 <_start-0x7ffbfffc>
    80000520:	00728463          	beq	t0,t2,80000528 <test_35>
    80000524:	1840306f          	j	800036a8 <fail>

0000000080000528 <test_35>:
    80000528:	02300193          	li	gp,35
    8000052c:	0005b283          	ld	t0,0(a1)
    80000530:	00858593          	addi	a1,a1,8
    80000534:	000103b7          	lui	t2,0x10
    80000538:	0073839b          	addiw	t2,t2,7
    8000053c:	01039393          	slli	t2,t2,0x10
    80000540:	00728463          	beq	t0,t2,80000548 <test_36>
    80000544:	1640306f          	j	800036a8 <fail>

0000000080000548 <test_36>:
    80000548:	02400193          	li	gp,36
    8000054c:	0005b283          	ld	t0,0(a1)
    80000550:	00858593          	addi	a1,a1,8
    80000554:	ffff03b7          	lui	t2,0xffff0
    80000558:	fff3839b          	addiw	t2,t2,-1
    8000055c:	01c39393          	slli	t2,t2,0x1c
    80000560:	fff38393          	addi	t2,t2,-1 # fffffffffffeffff <_end+0xffffffff7ffeacbf>
    80000564:	00728463          	beq	t0,t2,8000056c <test_37>
    80000568:	1400306f          	j	800036a8 <fail>

000000008000056c <test_37>:
    8000056c:	02500193          	li	gp,37
    80000570:	0005b283          	ld	t0,0(a1)
    80000574:	00858593          	addi	a1,a1,8
    80000578:	0010039b          	addiw	t2,zero,1
    8000057c:	02039393          	slli	t2,t2,0x20
    80000580:	00138393          	addi	t2,t2,1
    80000584:	01039393          	slli	t2,t2,0x10
    80000588:	00728463          	beq	t0,t2,80000590 <test_38>
    8000058c:	11c0306f          	j	800036a8 <fail>

0000000080000590 <test_38>:
    80000590:	02600193          	li	gp,38
    80000594:	0005b283          	ld	t0,0(a1)
    80000598:	00858593          	addi	a1,a1,8
    8000059c:	000043b7          	lui	t2,0x4
    800005a0:	0013839b          	addiw	t2,t2,1
    800005a4:	01239393          	slli	t2,t2,0x12
    800005a8:	ff838393          	addi	t2,t2,-8 # 3ff8 <_start-0x7fffc008>
    800005ac:	00728463          	beq	t0,t2,800005b4 <test_39>
    800005b0:	0f80306f          	j	800036a8 <fail>

00000000800005b4 <test_39>:
    800005b4:	02700193          	li	gp,39
    800005b8:	0005b283          	ld	t0,0(a1)
    800005bc:	00858593          	addi	a1,a1,8
    800005c0:	000103b7          	lui	t2,0x10
    800005c4:	0073839b          	addiw	t2,t2,7
    800005c8:	01039393          	slli	t2,t2,0x10
    800005cc:	00728463          	beq	t0,t2,800005d4 <test_40>
    800005d0:	0d80306f          	j	800036a8 <fail>

00000000800005d4 <test_40>:
    800005d4:	02800193          	li	gp,40
    800005d8:	0005b283          	ld	t0,0(a1)
    800005dc:	00858593          	addi	a1,a1,8
    800005e0:	ffff03b7          	lui	t2,0xffff0
    800005e4:	fff3839b          	addiw	t2,t2,-1
    800005e8:	01c39393          	slli	t2,t2,0x1c
    800005ec:	fff38393          	addi	t2,t2,-1 # fffffffffffeffff <_end+0xffffffff7ffeacbf>
    800005f0:	00728463          	beq	t0,t2,800005f8 <test_41>
    800005f4:	0b40306f          	j	800036a8 <fail>

00000000800005f8 <test_41>:
    800005f8:	02900193          	li	gp,41
    800005fc:	0005b283          	ld	t0,0(a1)
    80000600:	00858593          	addi	a1,a1,8
    80000604:	0010039b          	addiw	t2,zero,1
    80000608:	02039393          	slli	t2,t2,0x20
    8000060c:	00138393          	addi	t2,t2,1
    80000610:	01039393          	slli	t2,t2,0x10
    80000614:	00728463          	beq	t0,t2,8000061c <test_42>
    80000618:	0900306f          	j	800036a8 <fail>

000000008000061c <test_42>:
    8000061c:	02a00193          	li	gp,42
    80000620:	0005b283          	ld	t0,0(a1)
    80000624:	00858593          	addi	a1,a1,8
    80000628:	000043b7          	lui	t2,0x4
    8000062c:	0013839b          	addiw	t2,t2,1
    80000630:	01239393          	slli	t2,t2,0x12
    80000634:	ff838393          	addi	t2,t2,-8 # 3ff8 <_start-0x7fffc008>
    80000638:	00728463          	beq	t0,t2,80000640 <test_43>
    8000063c:	06c0306f          	j	800036a8 <fail>

0000000080000640 <test_43>:
    80000640:	02b00193          	li	gp,43
    80000644:	0005b283          	ld	t0,0(a1)
    80000648:	00858593          	addi	a1,a1,8
    8000064c:	000103b7          	lui	t2,0x10
    80000650:	0073839b          	addiw	t2,t2,7
    80000654:	01039393          	slli	t2,t2,0x10
    80000658:	00728463          	beq	t0,t2,80000660 <test_44>
    8000065c:	04c0306f          	j	800036a8 <fail>

0000000080000660 <test_44>:
    80000660:	02c00193          	li	gp,44
    80000664:	0005b283          	ld	t0,0(a1)
    80000668:	00858593          	addi	a1,a1,8
    8000066c:	ffff03b7          	lui	t2,0xffff0
    80000670:	fff3839b          	addiw	t2,t2,-1
    80000674:	01c39393          	slli	t2,t2,0x1c
    80000678:	fff38393          	addi	t2,t2,-1 # fffffffffffeffff <_end+0xffffffff7ffeacbf>
    8000067c:	00728463          	beq	t0,t2,80000684 <test_45>
    80000680:	0280306f          	j	800036a8 <fail>

0000000080000684 <test_45>:
    80000684:	02d00193          	li	gp,45
    80000688:	0005b283          	ld	t0,0(a1)
    8000068c:	00858593          	addi	a1,a1,8
    80000690:	0010039b          	addiw	t2,zero,1
    80000694:	02039393          	slli	t2,t2,0x20
    80000698:	00138393          	addi	t2,t2,1
    8000069c:	01039393          	slli	t2,t2,0x10
    800006a0:	00728463          	beq	t0,t2,800006a8 <test_46>
    800006a4:	0040306f          	j	800036a8 <fail>

00000000800006a8 <test_46>:
    800006a8:	02e00193          	li	gp,46
    800006ac:	0005b283          	ld	t0,0(a1)
    800006b0:	00858593          	addi	a1,a1,8
    800006b4:	000043b7          	lui	t2,0x4
    800006b8:	0013839b          	addiw	t2,t2,1
    800006bc:	01239393          	slli	t2,t2,0x12
    800006c0:	ff838393          	addi	t2,t2,-8 # 3ff8 <_start-0x7fffc008>
    800006c4:	00728463          	beq	t0,t2,800006cc <test_47>
    800006c8:	7e10206f          	j	800036a8 <fail>

00000000800006cc <test_47>:
    800006cc:	02f00193          	li	gp,47
    800006d0:	0005b283          	ld	t0,0(a1)
    800006d4:	00858593          	addi	a1,a1,8
    800006d8:	000103b7          	lui	t2,0x10
    800006dc:	0073839b          	addiw	t2,t2,7
    800006e0:	01039393          	slli	t2,t2,0x10
    800006e4:	00728463          	beq	t0,t2,800006ec <test_48>
    800006e8:	7c10206f          	j	800036a8 <fail>

00000000800006ec <test_48>:
    800006ec:	03000193          	li	gp,48
    800006f0:	0005b283          	ld	t0,0(a1)
    800006f4:	00858593          	addi	a1,a1,8
    800006f8:	ffff03b7          	lui	t2,0xffff0
    800006fc:	fff3839b          	addiw	t2,t2,-1
    80000700:	01c39393          	slli	t2,t2,0x1c
    80000704:	fff38393          	addi	t2,t2,-1 # fffffffffffeffff <_end+0xffffffff7ffeacbf>
    80000708:	00728463          	beq	t0,t2,80000710 <test_49>
    8000070c:	79d0206f          	j	800036a8 <fail>

0000000080000710 <test_49>:
    80000710:	03100193          	li	gp,49
    80000714:	0005b283          	ld	t0,0(a1)
    80000718:	00858593          	addi	a1,a1,8
    8000071c:	0010039b          	addiw	t2,zero,1
    80000720:	02039393          	slli	t2,t2,0x20
    80000724:	00138393          	addi	t2,t2,1
    80000728:	01039393          	slli	t2,t2,0x10
    8000072c:	00728463          	beq	t0,t2,80000734 <test_50>
    80000730:	7790206f          	j	800036a8 <fail>

0000000080000734 <test_50>:
    80000734:	03200193          	li	gp,50
    80000738:	0005b283          	ld	t0,0(a1)
    8000073c:	00858593          	addi	a1,a1,8
    80000740:	000043b7          	lui	t2,0x4
    80000744:	0013839b          	addiw	t2,t2,1
    80000748:	01239393          	slli	t2,t2,0x12
    8000074c:	ff838393          	addi	t2,t2,-8 # 3ff8 <_start-0x7fffc008>
    80000750:	00728463          	beq	t0,t2,80000758 <test_51>
    80000754:	7550206f          	j	800036a8 <fail>

0000000080000758 <test_51>:
    80000758:	03300193          	li	gp,51
    8000075c:	0005b283          	ld	t0,0(a1)
    80000760:	00858593          	addi	a1,a1,8
    80000764:	000103b7          	lui	t2,0x10
    80000768:	0073839b          	addiw	t2,t2,7
    8000076c:	01039393          	slli	t2,t2,0x10
    80000770:	00728463          	beq	t0,t2,80000778 <test_52>
    80000774:	7350206f          	j	800036a8 <fail>

0000000080000778 <test_52>:
    80000778:	03400193          	li	gp,52
    8000077c:	0005b283          	ld	t0,0(a1)
    80000780:	00858593          	addi	a1,a1,8
    80000784:	ffff03b7          	lui	t2,0xffff0
    80000788:	fff3839b          	addiw	t2,t2,-1
    8000078c:	01c39393          	slli	t2,t2,0x1c
    80000790:	fff38393          	addi	t2,t2,-1 # fffffffffffeffff <_end+0xffffffff7ffeacbf>
    80000794:	00728463          	beq	t0,t2,8000079c <test_53>
    80000798:	7110206f          	j	800036a8 <fail>

000000008000079c <test_53>:
    8000079c:	03500193          	li	gp,53
    800007a0:	0005b283          	ld	t0,0(a1)
    800007a4:	00858593          	addi	a1,a1,8
    800007a8:	0010039b          	addiw	t2,zero,1
    800007ac:	02039393          	slli	t2,t2,0x20
    800007b0:	00138393          	addi	t2,t2,1
    800007b4:	01039393          	slli	t2,t2,0x10
    800007b8:	00728463          	beq	t0,t2,800007c0 <test_54>
    800007bc:	6ed0206f          	j	800036a8 <fail>

00000000800007c0 <test_54>:
    800007c0:	03600193          	li	gp,54
    800007c4:	0005b283          	ld	t0,0(a1)
    800007c8:	00858593          	addi	a1,a1,8
    800007cc:	000043b7          	lui	t2,0x4
    800007d0:	0013839b          	addiw	t2,t2,1
    800007d4:	01239393          	slli	t2,t2,0x12
    800007d8:	ff838393          	addi	t2,t2,-8 # 3ff8 <_start-0x7fffc008>
    800007dc:	00728463          	beq	t0,t2,800007e4 <test_55>
    800007e0:	6c90206f          	j	800036a8 <fail>

00000000800007e4 <test_55>:
    800007e4:	03700193          	li	gp,55
    800007e8:	0005b283          	ld	t0,0(a1)
    800007ec:	00858593          	addi	a1,a1,8
    800007f0:	000103b7          	lui	t2,0x10
    800007f4:	0073839b          	addiw	t2,t2,7
    800007f8:	01039393          	slli	t2,t2,0x10
    800007fc:	00728463          	beq	t0,t2,80000804 <test_56>
    80000800:	6a90206f          	j	800036a8 <fail>

0000000080000804 <test_56>:
    80000804:	03800193          	li	gp,56
    80000808:	0005b283          	ld	t0,0(a1)
    8000080c:	00858593          	addi	a1,a1,8
    80000810:	ffff03b7          	lui	t2,0xffff0
    80000814:	fff3839b          	addiw	t2,t2,-1
    80000818:	01c39393          	slli	t2,t2,0x1c
    8000081c:	fff38393          	addi	t2,t2,-1 # fffffffffffeffff <_end+0xffffffff7ffeacbf>
    80000820:	00728463          	beq	t0,t2,80000828 <test_57>
    80000824:	6850206f          	j	800036a8 <fail>

0000000080000828 <test_57>:
    80000828:	03900193          	li	gp,57
    8000082c:	0005b283          	ld	t0,0(a1)
    80000830:	00858593          	addi	a1,a1,8
    80000834:	0010039b          	addiw	t2,zero,1
    80000838:	02039393          	slli	t2,t2,0x20
    8000083c:	00138393          	addi	t2,t2,1
    80000840:	01039393          	slli	t2,t2,0x10
    80000844:	00728463          	beq	t0,t2,8000084c <test_58>
    80000848:	6610206f          	j	800036a8 <fail>

000000008000084c <test_58>:
    8000084c:	03a00193          	li	gp,58
    80000850:	0005b283          	ld	t0,0(a1)
    80000854:	00858593          	addi	a1,a1,8
    80000858:	000043b7          	lui	t2,0x4
    8000085c:	0013839b          	addiw	t2,t2,1
    80000860:	01239393          	slli	t2,t2,0x12
    80000864:	ff838393          	addi	t2,t2,-8 # 3ff8 <_start-0x7fffc008>
    80000868:	00728463          	beq	t0,t2,80000870 <test_59>
    8000086c:	63d0206f          	j	800036a8 <fail>

0000000080000870 <test_59>:
    80000870:	03b00193          	li	gp,59
    80000874:	0005b283          	ld	t0,0(a1)
    80000878:	00858593          	addi	a1,a1,8
    8000087c:	000103b7          	lui	t2,0x10
    80000880:	0073839b          	addiw	t2,t2,7
    80000884:	01039393          	slli	t2,t2,0x10
    80000888:	00728463          	beq	t0,t2,80000890 <test_60>
    8000088c:	61d0206f          	j	800036a8 <fail>

0000000080000890 <test_60>:
    80000890:	03c00193          	li	gp,60
    80000894:	0005b283          	ld	t0,0(a1)
    80000898:	00858593          	addi	a1,a1,8
    8000089c:	ffff03b7          	lui	t2,0xffff0
    800008a0:	fff3839b          	addiw	t2,t2,-1
    800008a4:	01c39393          	slli	t2,t2,0x1c
    800008a8:	fff38393          	addi	t2,t2,-1 # fffffffffffeffff <_end+0xffffffff7ffeacbf>
    800008ac:	00728463          	beq	t0,t2,800008b4 <test_61>
    800008b0:	5f90206f          	j	800036a8 <fail>

00000000800008b4 <test_61>:
    800008b4:	03d00193          	li	gp,61
    800008b8:	0005b283          	ld	t0,0(a1)
    800008bc:	00858593          	addi	a1,a1,8
    800008c0:	0010039b          	addiw	t2,zero,1
    800008c4:	02039393          	slli	t2,t2,0x20
    800008c8:	00138393          	addi	t2,t2,1
    800008cc:	01039393          	slli	t2,t2,0x10
    800008d0:	00728463          	beq	t0,t2,800008d8 <test_62>
    800008d4:	5d50206f          	j	800036a8 <fail>

00000000800008d8 <test_62>:
    800008d8:	03e00193          	li	gp,62
    800008dc:	0005b283          	ld	t0,0(a1)
    800008e0:	00858593          	addi	a1,a1,8
    800008e4:	000043b7          	lui	t2,0x4
    800008e8:	0013839b          	addiw	t2,t2,1
    800008ec:	01239393          	slli	t2,t2,0x12
    800008f0:	ff838393          	addi	t2,t2,-8 # 3ff8 <_start-0x7fffc008>
    800008f4:	00728463          	beq	t0,t2,800008fc <test_63>
    800008f8:	5b10206f          	j	800036a8 <fail>

00000000800008fc <test_63>:
    800008fc:	03f00193          	li	gp,63
    80000900:	0005b283          	ld	t0,0(a1)
    80000904:	00858593          	addi	a1,a1,8
    80000908:	000103b7          	lui	t2,0x10
    8000090c:	0073839b          	addiw	t2,t2,7
    80000910:	01039393          	slli	t2,t2,0x10
    80000914:	00728463          	beq	t0,t2,8000091c <test_64>
    80000918:	5910206f          	j	800036a8 <fail>

000000008000091c <test_64>:
    8000091c:	04000193          	li	gp,64
    80000920:	0005b283          	ld	t0,0(a1)
    80000924:	00858593          	addi	a1,a1,8
    80000928:	ffff03b7          	lui	t2,0xffff0
    8000092c:	fff3839b          	addiw	t2,t2,-1
    80000930:	01c39393          	slli	t2,t2,0x1c
    80000934:	fff38393          	addi	t2,t2,-1 # fffffffffffeffff <_end+0xffffffff7ffeacbf>
    80000938:	00728463          	beq	t0,t2,80000940 <test_65>
    8000093c:	56d0206f          	j	800036a8 <fail>

0000000080000940 <test_65>:
    80000940:	04100193          	li	gp,65
    80000944:	0005b283          	ld	t0,0(a1)
    80000948:	00858593          	addi	a1,a1,8
    8000094c:	0010039b          	addiw	t2,zero,1
    80000950:	02039393          	slli	t2,t2,0x20
    80000954:	00138393          	addi	t2,t2,1
    80000958:	01039393          	slli	t2,t2,0x10
    8000095c:	00728463          	beq	t0,t2,80000964 <test_65+0x24>
    80000960:	5490206f          	j	800036a8 <fail>
    80000964:	fff00293          	li	t0,-1
    80000968:	0ca2f357          	vsetvli	t1,t0,e16,m4,ta,ma
    8000096c:	00005617          	auipc	a2,0x5
    80000970:	8a460613          	addi	a2,a2,-1884 # 80005210 <tdat>
    80000974:	02065807          	vle16.v	v16,(a2)
    80000978:	0cb2f357          	vsetvli	t1,t0,e16,m8,ta,ma
    8000097c:	02065407          	vle16.v	v8,(a2)
    80000980:	00005617          	auipc	a2,0x5
    80000984:	89860613          	addi	a2,a2,-1896 # 80005218 <tdat+0x8>
    80000988:	0ca2f357          	vsetvli	t1,t0,e16,m4,ta,ma
    8000098c:	02065c07          	vle16.v	v24,(a2)
    80000990:	fff00293          	li	t0,-1
    80000994:	0c02f357          	vsetvli	t1,t0,e8,m1,ta,ma
    80000998:	00005697          	auipc	a3,0x5
    8000099c:	98068693          	addi	a3,a3,-1664 # 80005318 <mask>
    800009a0:	02068007          	vle8.v	v0,(a3)
    800009a4:	02000293          	li	t0,32
    800009a8:	0ca2f357          	vsetvli	t1,t0,e16,m4,ta,ma
    800009ac:	c10c0457          	vwredsumu.vs	v8,v16,v24,v0.t
    800009b0:	fff00293          	li	t0,-1
    800009b4:	0cb2f357          	vsetvli	t1,t0,e16,m8,ta,ma
    800009b8:	00004597          	auipc	a1,0x4
    800009bc:	64858593          	addi	a1,a1,1608 # 80005000 <begin_signature>
    800009c0:	0205d427          	vse16.v	v8,(a1)

00000000800009c4 <test_66>:
    800009c4:	04200193          	li	gp,66
    800009c8:	0005b283          	ld	t0,0(a1)
    800009cc:	00858593          	addi	a1,a1,8
    800009d0:	000803b7          	lui	t2,0x80
    800009d4:	0673839b          	addiw	t2,t2,103
    800009d8:	00d39393          	slli	t2,t2,0xd
    800009dc:	ff038393          	addi	t2,t2,-16 # 7fff0 <_start-0x7ff80010>
    800009e0:	00728463          	beq	t0,t2,800009e8 <test_67>
    800009e4:	4c50206f          	j	800036a8 <fail>

00000000800009e8 <test_67>:
    800009e8:	04300193          	li	gp,67
    800009ec:	0005b283          	ld	t0,0(a1)
    800009f0:	00858593          	addi	a1,a1,8
    800009f4:	000103b7          	lui	t2,0x10
    800009f8:	0073839b          	addiw	t2,t2,7
    800009fc:	01039393          	slli	t2,t2,0x10
    80000a00:	00728463          	beq	t0,t2,80000a08 <test_68>
    80000a04:	4a50206f          	j	800036a8 <fail>

0000000080000a08 <test_68>:
    80000a08:	04400193          	li	gp,68
    80000a0c:	0005b283          	ld	t0,0(a1)
    80000a10:	00858593          	addi	a1,a1,8
    80000a14:	ffff03b7          	lui	t2,0xffff0
    80000a18:	fff3839b          	addiw	t2,t2,-1
    80000a1c:	01c39393          	slli	t2,t2,0x1c
    80000a20:	fff38393          	addi	t2,t2,-1 # fffffffffffeffff <_end+0xffffffff7ffeacbf>
    80000a24:	00728463          	beq	t0,t2,80000a2c <test_69>
    80000a28:	4810206f          	j	800036a8 <fail>

0000000080000a2c <test_69>:
    80000a2c:	04500193          	li	gp,69
    80000a30:	0005b283          	ld	t0,0(a1)
    80000a34:	00858593          	addi	a1,a1,8
    80000a38:	0010039b          	addiw	t2,zero,1
    80000a3c:	02039393          	slli	t2,t2,0x20
    80000a40:	00138393          	addi	t2,t2,1
    80000a44:	01039393          	slli	t2,t2,0x10
    80000a48:	00728463          	beq	t0,t2,80000a50 <test_70>
    80000a4c:	45d0206f          	j	800036a8 <fail>

0000000080000a50 <test_70>:
    80000a50:	04600193          	li	gp,70
    80000a54:	0005b283          	ld	t0,0(a1)
    80000a58:	00858593          	addi	a1,a1,8
    80000a5c:	000043b7          	lui	t2,0x4
    80000a60:	0013839b          	addiw	t2,t2,1
    80000a64:	01239393          	slli	t2,t2,0x12
    80000a68:	ff838393          	addi	t2,t2,-8 # 3ff8 <_start-0x7fffc008>
    80000a6c:	00728463          	beq	t0,t2,80000a74 <test_71>
    80000a70:	4390206f          	j	800036a8 <fail>

0000000080000a74 <test_71>:
    80000a74:	04700193          	li	gp,71
    80000a78:	0005b283          	ld	t0,0(a1)
    80000a7c:	00858593          	addi	a1,a1,8
    80000a80:	000103b7          	lui	t2,0x10
    80000a84:	0073839b          	addiw	t2,t2,7
    80000a88:	01039393          	slli	t2,t2,0x10
    80000a8c:	00728463          	beq	t0,t2,80000a94 <test_72>
    80000a90:	4190206f          	j	800036a8 <fail>

0000000080000a94 <test_72>:
    80000a94:	04800193          	li	gp,72
    80000a98:	0005b283          	ld	t0,0(a1)
    80000a9c:	00858593          	addi	a1,a1,8
    80000aa0:	ffff03b7          	lui	t2,0xffff0
    80000aa4:	fff3839b          	addiw	t2,t2,-1
    80000aa8:	01c39393          	slli	t2,t2,0x1c
    80000aac:	fff38393          	addi	t2,t2,-1 # fffffffffffeffff <_end+0xffffffff7ffeacbf>
    80000ab0:	00728463          	beq	t0,t2,80000ab8 <test_73>
    80000ab4:	3f50206f          	j	800036a8 <fail>

0000000080000ab8 <test_73>:
    80000ab8:	04900193          	li	gp,73
    80000abc:	0005b283          	ld	t0,0(a1)
    80000ac0:	00858593          	addi	a1,a1,8
    80000ac4:	0010039b          	addiw	t2,zero,1
    80000ac8:	02039393          	slli	t2,t2,0x20
    80000acc:	00138393          	addi	t2,t2,1
    80000ad0:	01039393          	slli	t2,t2,0x10
    80000ad4:	00728463          	beq	t0,t2,80000adc <test_74>
    80000ad8:	3d10206f          	j	800036a8 <fail>

0000000080000adc <test_74>:
    80000adc:	04a00193          	li	gp,74
    80000ae0:	0005b283          	ld	t0,0(a1)
    80000ae4:	00858593          	addi	a1,a1,8
    80000ae8:	000043b7          	lui	t2,0x4
    80000aec:	0013839b          	addiw	t2,t2,1
    80000af0:	01239393          	slli	t2,t2,0x12
    80000af4:	ff838393          	addi	t2,t2,-8 # 3ff8 <_start-0x7fffc008>
    80000af8:	00728463          	beq	t0,t2,80000b00 <test_75>
    80000afc:	3ad0206f          	j	800036a8 <fail>

0000000080000b00 <test_75>:
    80000b00:	04b00193          	li	gp,75
    80000b04:	0005b283          	ld	t0,0(a1)
    80000b08:	00858593          	addi	a1,a1,8
    80000b0c:	000103b7          	lui	t2,0x10
    80000b10:	0073839b          	addiw	t2,t2,7
    80000b14:	01039393          	slli	t2,t2,0x10
    80000b18:	00728463          	beq	t0,t2,80000b20 <test_76>
    80000b1c:	38d0206f          	j	800036a8 <fail>

0000000080000b20 <test_76>:
    80000b20:	04c00193          	li	gp,76
    80000b24:	0005b283          	ld	t0,0(a1)
    80000b28:	00858593          	addi	a1,a1,8
    80000b2c:	ffff03b7          	lui	t2,0xffff0
    80000b30:	fff3839b          	addiw	t2,t2,-1
    80000b34:	01c39393          	slli	t2,t2,0x1c
    80000b38:	fff38393          	addi	t2,t2,-1 # fffffffffffeffff <_end+0xffffffff7ffeacbf>
    80000b3c:	00728463          	beq	t0,t2,80000b44 <test_77>
    80000b40:	3690206f          	j	800036a8 <fail>

0000000080000b44 <test_77>:
    80000b44:	04d00193          	li	gp,77
    80000b48:	0005b283          	ld	t0,0(a1)
    80000b4c:	00858593          	addi	a1,a1,8
    80000b50:	0010039b          	addiw	t2,zero,1
    80000b54:	02039393          	slli	t2,t2,0x20
    80000b58:	00138393          	addi	t2,t2,1
    80000b5c:	01039393          	slli	t2,t2,0x10
    80000b60:	00728463          	beq	t0,t2,80000b68 <test_78>
    80000b64:	3450206f          	j	800036a8 <fail>

0000000080000b68 <test_78>:
    80000b68:	04e00193          	li	gp,78
    80000b6c:	0005b283          	ld	t0,0(a1)
    80000b70:	00858593          	addi	a1,a1,8
    80000b74:	000043b7          	lui	t2,0x4
    80000b78:	0013839b          	addiw	t2,t2,1
    80000b7c:	01239393          	slli	t2,t2,0x12
    80000b80:	ff838393          	addi	t2,t2,-8 # 3ff8 <_start-0x7fffc008>
    80000b84:	00728463          	beq	t0,t2,80000b8c <test_79>
    80000b88:	3210206f          	j	800036a8 <fail>

0000000080000b8c <test_79>:
    80000b8c:	04f00193          	li	gp,79
    80000b90:	0005b283          	ld	t0,0(a1)
    80000b94:	00858593          	addi	a1,a1,8
    80000b98:	000103b7          	lui	t2,0x10
    80000b9c:	0073839b          	addiw	t2,t2,7
    80000ba0:	01039393          	slli	t2,t2,0x10
    80000ba4:	00728463          	beq	t0,t2,80000bac <test_80>
    80000ba8:	3010206f          	j	800036a8 <fail>

0000000080000bac <test_80>:
    80000bac:	05000193          	li	gp,80
    80000bb0:	0005b283          	ld	t0,0(a1)
    80000bb4:	00858593          	addi	a1,a1,8
    80000bb8:	ffff03b7          	lui	t2,0xffff0
    80000bbc:	fff3839b          	addiw	t2,t2,-1
    80000bc0:	01c39393          	slli	t2,t2,0x1c
    80000bc4:	fff38393          	addi	t2,t2,-1 # fffffffffffeffff <_end+0xffffffff7ffeacbf>
    80000bc8:	00728463          	beq	t0,t2,80000bd0 <test_81>
    80000bcc:	2dd0206f          	j	800036a8 <fail>

0000000080000bd0 <test_81>:
    80000bd0:	05100193          	li	gp,81
    80000bd4:	0005b283          	ld	t0,0(a1)
    80000bd8:	00858593          	addi	a1,a1,8
    80000bdc:	0010039b          	addiw	t2,zero,1
    80000be0:	02039393          	slli	t2,t2,0x20
    80000be4:	00138393          	addi	t2,t2,1
    80000be8:	01039393          	slli	t2,t2,0x10
    80000bec:	00728463          	beq	t0,t2,80000bf4 <test_82>
    80000bf0:	2b90206f          	j	800036a8 <fail>

0000000080000bf4 <test_82>:
    80000bf4:	05200193          	li	gp,82
    80000bf8:	0005b283          	ld	t0,0(a1)
    80000bfc:	00858593          	addi	a1,a1,8
    80000c00:	000043b7          	lui	t2,0x4
    80000c04:	0013839b          	addiw	t2,t2,1
    80000c08:	01239393          	slli	t2,t2,0x12
    80000c0c:	ff838393          	addi	t2,t2,-8 # 3ff8 <_start-0x7fffc008>
    80000c10:	00728463          	beq	t0,t2,80000c18 <test_83>
    80000c14:	2950206f          	j	800036a8 <fail>

0000000080000c18 <test_83>:
    80000c18:	05300193          	li	gp,83
    80000c1c:	0005b283          	ld	t0,0(a1)
    80000c20:	00858593          	addi	a1,a1,8
    80000c24:	000103b7          	lui	t2,0x10
    80000c28:	0073839b          	addiw	t2,t2,7
    80000c2c:	01039393          	slli	t2,t2,0x10
    80000c30:	00728463          	beq	t0,t2,80000c38 <test_84>
    80000c34:	2750206f          	j	800036a8 <fail>

0000000080000c38 <test_84>:
    80000c38:	05400193          	li	gp,84
    80000c3c:	0005b283          	ld	t0,0(a1)
    80000c40:	00858593          	addi	a1,a1,8
    80000c44:	ffff03b7          	lui	t2,0xffff0
    80000c48:	fff3839b          	addiw	t2,t2,-1
    80000c4c:	01c39393          	slli	t2,t2,0x1c
    80000c50:	fff38393          	addi	t2,t2,-1 # fffffffffffeffff <_end+0xffffffff7ffeacbf>
    80000c54:	00728463          	beq	t0,t2,80000c5c <test_85>
    80000c58:	2510206f          	j	800036a8 <fail>

0000000080000c5c <test_85>:
    80000c5c:	05500193          	li	gp,85
    80000c60:	0005b283          	ld	t0,0(a1)
    80000c64:	00858593          	addi	a1,a1,8
    80000c68:	0010039b          	addiw	t2,zero,1
    80000c6c:	02039393          	slli	t2,t2,0x20
    80000c70:	00138393          	addi	t2,t2,1
    80000c74:	01039393          	slli	t2,t2,0x10
    80000c78:	00728463          	beq	t0,t2,80000c80 <test_86>
    80000c7c:	22d0206f          	j	800036a8 <fail>

0000000080000c80 <test_86>:
    80000c80:	05600193          	li	gp,86
    80000c84:	0005b283          	ld	t0,0(a1)
    80000c88:	00858593          	addi	a1,a1,8
    80000c8c:	000043b7          	lui	t2,0x4
    80000c90:	0013839b          	addiw	t2,t2,1
    80000c94:	01239393          	slli	t2,t2,0x12
    80000c98:	ff838393          	addi	t2,t2,-8 # 3ff8 <_start-0x7fffc008>
    80000c9c:	00728463          	beq	t0,t2,80000ca4 <test_87>
    80000ca0:	2090206f          	j	800036a8 <fail>

0000000080000ca4 <test_87>:
    80000ca4:	05700193          	li	gp,87
    80000ca8:	0005b283          	ld	t0,0(a1)
    80000cac:	00858593          	addi	a1,a1,8
    80000cb0:	000103b7          	lui	t2,0x10
    80000cb4:	0073839b          	addiw	t2,t2,7
    80000cb8:	01039393          	slli	t2,t2,0x10
    80000cbc:	00728463          	beq	t0,t2,80000cc4 <test_88>
    80000cc0:	1e90206f          	j	800036a8 <fail>

0000000080000cc4 <test_88>:
    80000cc4:	05800193          	li	gp,88
    80000cc8:	0005b283          	ld	t0,0(a1)
    80000ccc:	00858593          	addi	a1,a1,8
    80000cd0:	ffff03b7          	lui	t2,0xffff0
    80000cd4:	fff3839b          	addiw	t2,t2,-1
    80000cd8:	01c39393          	slli	t2,t2,0x1c
    80000cdc:	fff38393          	addi	t2,t2,-1 # fffffffffffeffff <_end+0xffffffff7ffeacbf>
    80000ce0:	00728463          	beq	t0,t2,80000ce8 <test_89>
    80000ce4:	1c50206f          	j	800036a8 <fail>

0000000080000ce8 <test_89>:
    80000ce8:	05900193          	li	gp,89
    80000cec:	0005b283          	ld	t0,0(a1)
    80000cf0:	00858593          	addi	a1,a1,8
    80000cf4:	0010039b          	addiw	t2,zero,1
    80000cf8:	02039393          	slli	t2,t2,0x20
    80000cfc:	00138393          	addi	t2,t2,1
    80000d00:	01039393          	slli	t2,t2,0x10
    80000d04:	00728463          	beq	t0,t2,80000d0c <test_90>
    80000d08:	1a10206f          	j	800036a8 <fail>

0000000080000d0c <test_90>:
    80000d0c:	05a00193          	li	gp,90
    80000d10:	0005b283          	ld	t0,0(a1)
    80000d14:	00858593          	addi	a1,a1,8
    80000d18:	000043b7          	lui	t2,0x4
    80000d1c:	0013839b          	addiw	t2,t2,1
    80000d20:	01239393          	slli	t2,t2,0x12
    80000d24:	ff838393          	addi	t2,t2,-8 # 3ff8 <_start-0x7fffc008>
    80000d28:	00728463          	beq	t0,t2,80000d30 <test_91>
    80000d2c:	17d0206f          	j	800036a8 <fail>

0000000080000d30 <test_91>:
    80000d30:	05b00193          	li	gp,91
    80000d34:	0005b283          	ld	t0,0(a1)
    80000d38:	00858593          	addi	a1,a1,8
    80000d3c:	000103b7          	lui	t2,0x10
    80000d40:	0073839b          	addiw	t2,t2,7
    80000d44:	01039393          	slli	t2,t2,0x10
    80000d48:	00728463          	beq	t0,t2,80000d50 <test_92>
    80000d4c:	15d0206f          	j	800036a8 <fail>

0000000080000d50 <test_92>:
    80000d50:	05c00193          	li	gp,92
    80000d54:	0005b283          	ld	t0,0(a1)
    80000d58:	00858593          	addi	a1,a1,8
    80000d5c:	ffff03b7          	lui	t2,0xffff0
    80000d60:	fff3839b          	addiw	t2,t2,-1
    80000d64:	01c39393          	slli	t2,t2,0x1c
    80000d68:	fff38393          	addi	t2,t2,-1 # fffffffffffeffff <_end+0xffffffff7ffeacbf>
    80000d6c:	00728463          	beq	t0,t2,80000d74 <test_93>
    80000d70:	1390206f          	j	800036a8 <fail>

0000000080000d74 <test_93>:
    80000d74:	05d00193          	li	gp,93
    80000d78:	0005b283          	ld	t0,0(a1)
    80000d7c:	00858593          	addi	a1,a1,8
    80000d80:	0010039b          	addiw	t2,zero,1
    80000d84:	02039393          	slli	t2,t2,0x20
    80000d88:	00138393          	addi	t2,t2,1
    80000d8c:	01039393          	slli	t2,t2,0x10
    80000d90:	00728463          	beq	t0,t2,80000d98 <test_94>
    80000d94:	1150206f          	j	800036a8 <fail>

0000000080000d98 <test_94>:
    80000d98:	05e00193          	li	gp,94
    80000d9c:	0005b283          	ld	t0,0(a1)
    80000da0:	00858593          	addi	a1,a1,8
    80000da4:	000043b7          	lui	t2,0x4
    80000da8:	0013839b          	addiw	t2,t2,1
    80000dac:	01239393          	slli	t2,t2,0x12
    80000db0:	ff838393          	addi	t2,t2,-8 # 3ff8 <_start-0x7fffc008>
    80000db4:	00728463          	beq	t0,t2,80000dbc <test_95>
    80000db8:	0f10206f          	j	800036a8 <fail>

0000000080000dbc <test_95>:
    80000dbc:	05f00193          	li	gp,95
    80000dc0:	0005b283          	ld	t0,0(a1)
    80000dc4:	00858593          	addi	a1,a1,8
    80000dc8:	000103b7          	lui	t2,0x10
    80000dcc:	0073839b          	addiw	t2,t2,7
    80000dd0:	01039393          	slli	t2,t2,0x10
    80000dd4:	00728463          	beq	t0,t2,80000ddc <test_96>
    80000dd8:	0d10206f          	j	800036a8 <fail>

0000000080000ddc <test_96>:
    80000ddc:	06000193          	li	gp,96
    80000de0:	0005b283          	ld	t0,0(a1)
    80000de4:	00858593          	addi	a1,a1,8
    80000de8:	ffff03b7          	lui	t2,0xffff0
    80000dec:	fff3839b          	addiw	t2,t2,-1
    80000df0:	01c39393          	slli	t2,t2,0x1c
    80000df4:	fff38393          	addi	t2,t2,-1 # fffffffffffeffff <_end+0xffffffff7ffeacbf>
    80000df8:	00728463          	beq	t0,t2,80000e00 <test_97>
    80000dfc:	0ad0206f          	j	800036a8 <fail>

0000000080000e00 <test_97>:
    80000e00:	06100193          	li	gp,97
    80000e04:	0005b283          	ld	t0,0(a1)
    80000e08:	00858593          	addi	a1,a1,8
    80000e0c:	0010039b          	addiw	t2,zero,1
    80000e10:	02039393          	slli	t2,t2,0x20
    80000e14:	00138393          	addi	t2,t2,1
    80000e18:	01039393          	slli	t2,t2,0x10
    80000e1c:	00728463          	beq	t0,t2,80000e24 <test_97+0x24>
    80000e20:	0890206f          	j	800036a8 <fail>
    80000e24:	fff00293          	li	t0,-1
    80000e28:	0ca2f357          	vsetvli	t1,t0,e16,m4,ta,ma
    80000e2c:	00004617          	auipc	a2,0x4
    80000e30:	3e460613          	addi	a2,a2,996 # 80005210 <tdat>
    80000e34:	02065807          	vle16.v	v16,(a2)
    80000e38:	0cb2f357          	vsetvli	t1,t0,e16,m8,ta,ma
    80000e3c:	02065407          	vle16.v	v8,(a2)
    80000e40:	00004617          	auipc	a2,0x4
    80000e44:	3d860613          	addi	a2,a2,984 # 80005218 <tdat+0x8>
    80000e48:	0ca2f357          	vsetvli	t1,t0,e16,m4,ta,ma
    80000e4c:	02065c07          	vle16.v	v24,(a2)
    80000e50:	fff00293          	li	t0,-1
    80000e54:	0c02f357          	vsetvli	t1,t0,e8,m1,ta,ma
    80000e58:	00004697          	auipc	a3,0x4
    80000e5c:	4c068693          	addi	a3,a3,1216 # 80005318 <mask>
    80000e60:	02068007          	vle8.v	v0,(a3)
    80000e64:	02000293          	li	t0,32
    80000e68:	0ca2f357          	vsetvli	t1,t0,e16,m4,ta,ma
    80000e6c:	c10c0457          	vwredsumu.vs	v8,v16,v24,v0.t
    80000e70:	fff00293          	li	t0,-1
    80000e74:	0cb2f357          	vsetvli	t1,t0,e16,m8,ta,ma
    80000e78:	00004597          	auipc	a1,0x4
    80000e7c:	18858593          	addi	a1,a1,392 # 80005000 <begin_signature>
    80000e80:	0205d427          	vse16.v	v8,(a1)

0000000080000e84 <test_98>:
    80000e84:	06200193          	li	gp,98
    80000e88:	0005b283          	ld	t0,0(a1)
    80000e8c:	00858593          	addi	a1,a1,8
    80000e90:	000803b7          	lui	t2,0x80
    80000e94:	0673839b          	addiw	t2,t2,103
    80000e98:	00d39393          	slli	t2,t2,0xd
    80000e9c:	ff038393          	addi	t2,t2,-16 # 7fff0 <_start-0x7ff80010>
    80000ea0:	00728463          	beq	t0,t2,80000ea8 <test_99>
    80000ea4:	0050206f          	j	800036a8 <fail>

0000000080000ea8 <test_99>:
    80000ea8:	06300193          	li	gp,99
    80000eac:	0005b283          	ld	t0,0(a1)
    80000eb0:	00858593          	addi	a1,a1,8
    80000eb4:	000103b7          	lui	t2,0x10
    80000eb8:	0073839b          	addiw	t2,t2,7
    80000ebc:	01039393          	slli	t2,t2,0x10
    80000ec0:	00728463          	beq	t0,t2,80000ec8 <test_100>
    80000ec4:	7e40206f          	j	800036a8 <fail>

0000000080000ec8 <test_100>:
    80000ec8:	06400193          	li	gp,100
    80000ecc:	0005b283          	ld	t0,0(a1)
    80000ed0:	00858593          	addi	a1,a1,8
    80000ed4:	ffff03b7          	lui	t2,0xffff0
    80000ed8:	fff3839b          	addiw	t2,t2,-1
    80000edc:	01c39393          	slli	t2,t2,0x1c
    80000ee0:	fff38393          	addi	t2,t2,-1 # fffffffffffeffff <_end+0xffffffff7ffeacbf>
    80000ee4:	00728463          	beq	t0,t2,80000eec <test_101>
    80000ee8:	7c00206f          	j	800036a8 <fail>

0000000080000eec <test_101>:
    80000eec:	06500193          	li	gp,101
    80000ef0:	0005b283          	ld	t0,0(a1)
    80000ef4:	00858593          	addi	a1,a1,8
    80000ef8:	0010039b          	addiw	t2,zero,1
    80000efc:	02039393          	slli	t2,t2,0x20
    80000f00:	00138393          	addi	t2,t2,1
    80000f04:	01039393          	slli	t2,t2,0x10
    80000f08:	00728463          	beq	t0,t2,80000f10 <test_102>
    80000f0c:	79c0206f          	j	800036a8 <fail>

0000000080000f10 <test_102>:
    80000f10:	06600193          	li	gp,102
    80000f14:	0005b283          	ld	t0,0(a1)
    80000f18:	00858593          	addi	a1,a1,8
    80000f1c:	000043b7          	lui	t2,0x4
    80000f20:	0013839b          	addiw	t2,t2,1
    80000f24:	01239393          	slli	t2,t2,0x12
    80000f28:	ff838393          	addi	t2,t2,-8 # 3ff8 <_start-0x7fffc008>
    80000f2c:	00728463          	beq	t0,t2,80000f34 <test_103>
    80000f30:	7780206f          	j	800036a8 <fail>

0000000080000f34 <test_103>:
    80000f34:	06700193          	li	gp,103
    80000f38:	0005b283          	ld	t0,0(a1)
    80000f3c:	00858593          	addi	a1,a1,8
    80000f40:	000103b7          	lui	t2,0x10
    80000f44:	0073839b          	addiw	t2,t2,7
    80000f48:	01039393          	slli	t2,t2,0x10
    80000f4c:	00728463          	beq	t0,t2,80000f54 <test_104>
    80000f50:	7580206f          	j	800036a8 <fail>

0000000080000f54 <test_104>:
    80000f54:	06800193          	li	gp,104
    80000f58:	0005b283          	ld	t0,0(a1)
    80000f5c:	00858593          	addi	a1,a1,8
    80000f60:	ffff03b7          	lui	t2,0xffff0
    80000f64:	fff3839b          	addiw	t2,t2,-1
    80000f68:	01c39393          	slli	t2,t2,0x1c
    80000f6c:	fff38393          	addi	t2,t2,-1 # fffffffffffeffff <_end+0xffffffff7ffeacbf>
    80000f70:	00728463          	beq	t0,t2,80000f78 <test_105>
    80000f74:	7340206f          	j	800036a8 <fail>

0000000080000f78 <test_105>:
    80000f78:	06900193          	li	gp,105
    80000f7c:	0005b283          	ld	t0,0(a1)
    80000f80:	00858593          	addi	a1,a1,8
    80000f84:	0010039b          	addiw	t2,zero,1
    80000f88:	02039393          	slli	t2,t2,0x20
    80000f8c:	00138393          	addi	t2,t2,1
    80000f90:	01039393          	slli	t2,t2,0x10
    80000f94:	00728463          	beq	t0,t2,80000f9c <test_106>
    80000f98:	7100206f          	j	800036a8 <fail>

0000000080000f9c <test_106>:
    80000f9c:	06a00193          	li	gp,106
    80000fa0:	0005b283          	ld	t0,0(a1)
    80000fa4:	00858593          	addi	a1,a1,8
    80000fa8:	000043b7          	lui	t2,0x4
    80000fac:	0013839b          	addiw	t2,t2,1
    80000fb0:	01239393          	slli	t2,t2,0x12
    80000fb4:	ff838393          	addi	t2,t2,-8 # 3ff8 <_start-0x7fffc008>
    80000fb8:	00728463          	beq	t0,t2,80000fc0 <test_107>
    80000fbc:	6ec0206f          	j	800036a8 <fail>

0000000080000fc0 <test_107>:
    80000fc0:	06b00193          	li	gp,107
    80000fc4:	0005b283          	ld	t0,0(a1)
    80000fc8:	00858593          	addi	a1,a1,8
    80000fcc:	000103b7          	lui	t2,0x10
    80000fd0:	0073839b          	addiw	t2,t2,7
    80000fd4:	01039393          	slli	t2,t2,0x10
    80000fd8:	00728463          	beq	t0,t2,80000fe0 <test_108>
    80000fdc:	6cc0206f          	j	800036a8 <fail>

0000000080000fe0 <test_108>:
    80000fe0:	06c00193          	li	gp,108
    80000fe4:	0005b283          	ld	t0,0(a1)
    80000fe8:	00858593          	addi	a1,a1,8
    80000fec:	ffff03b7          	lui	t2,0xffff0
    80000ff0:	fff3839b          	addiw	t2,t2,-1
    80000ff4:	01c39393          	slli	t2,t2,0x1c
    80000ff8:	fff38393          	addi	t2,t2,-1 # fffffffffffeffff <_end+0xffffffff7ffeacbf>
    80000ffc:	00728463          	beq	t0,t2,80001004 <test_109>
    80001000:	6a80206f          	j	800036a8 <fail>

0000000080001004 <test_109>:
    80001004:	06d00193          	li	gp,109
    80001008:	0005b283          	ld	t0,0(a1)
    8000100c:	00858593          	addi	a1,a1,8
    80001010:	0010039b          	addiw	t2,zero,1
    80001014:	02039393          	slli	t2,t2,0x20
    80001018:	00138393          	addi	t2,t2,1
    8000101c:	01039393          	slli	t2,t2,0x10
    80001020:	00728463          	beq	t0,t2,80001028 <test_110>
    80001024:	6840206f          	j	800036a8 <fail>

0000000080001028 <test_110>:
    80001028:	06e00193          	li	gp,110
    8000102c:	0005b283          	ld	t0,0(a1)
    80001030:	00858593          	addi	a1,a1,8
    80001034:	000043b7          	lui	t2,0x4
    80001038:	0013839b          	addiw	t2,t2,1
    8000103c:	01239393          	slli	t2,t2,0x12
    80001040:	ff838393          	addi	t2,t2,-8 # 3ff8 <_start-0x7fffc008>
    80001044:	00728463          	beq	t0,t2,8000104c <test_111>
    80001048:	6600206f          	j	800036a8 <fail>

000000008000104c <test_111>:
    8000104c:	06f00193          	li	gp,111
    80001050:	0005b283          	ld	t0,0(a1)
    80001054:	00858593          	addi	a1,a1,8
    80001058:	000103b7          	lui	t2,0x10
    8000105c:	0073839b          	addiw	t2,t2,7
    80001060:	01039393          	slli	t2,t2,0x10
    80001064:	00728463          	beq	t0,t2,8000106c <test_112>
    80001068:	6400206f          	j	800036a8 <fail>

000000008000106c <test_112>:
    8000106c:	07000193          	li	gp,112
    80001070:	0005b283          	ld	t0,0(a1)
    80001074:	00858593          	addi	a1,a1,8
    80001078:	ffff03b7          	lui	t2,0xffff0
    8000107c:	fff3839b          	addiw	t2,t2,-1
    80001080:	01c39393          	slli	t2,t2,0x1c
    80001084:	fff38393          	addi	t2,t2,-1 # fffffffffffeffff <_end+0xffffffff7ffeacbf>
    80001088:	00728463          	beq	t0,t2,80001090 <test_113>
    8000108c:	61c0206f          	j	800036a8 <fail>

0000000080001090 <test_113>:
    80001090:	07100193          	li	gp,113
    80001094:	0005b283          	ld	t0,0(a1)
    80001098:	00858593          	addi	a1,a1,8
    8000109c:	0010039b          	addiw	t2,zero,1
    800010a0:	02039393          	slli	t2,t2,0x20
    800010a4:	00138393          	addi	t2,t2,1
    800010a8:	01039393          	slli	t2,t2,0x10
    800010ac:	00728463          	beq	t0,t2,800010b4 <test_114>
    800010b0:	5f80206f          	j	800036a8 <fail>

00000000800010b4 <test_114>:
    800010b4:	07200193          	li	gp,114
    800010b8:	0005b283          	ld	t0,0(a1)
    800010bc:	00858593          	addi	a1,a1,8
    800010c0:	000043b7          	lui	t2,0x4
    800010c4:	0013839b          	addiw	t2,t2,1
    800010c8:	01239393          	slli	t2,t2,0x12
    800010cc:	ff838393          	addi	t2,t2,-8 # 3ff8 <_start-0x7fffc008>
    800010d0:	00728463          	beq	t0,t2,800010d8 <test_115>
    800010d4:	5d40206f          	j	800036a8 <fail>

00000000800010d8 <test_115>:
    800010d8:	07300193          	li	gp,115
    800010dc:	0005b283          	ld	t0,0(a1)
    800010e0:	00858593          	addi	a1,a1,8
    800010e4:	000103b7          	lui	t2,0x10
    800010e8:	0073839b          	addiw	t2,t2,7
    800010ec:	01039393          	slli	t2,t2,0x10
    800010f0:	00728463          	beq	t0,t2,800010f8 <test_116>
    800010f4:	5b40206f          	j	800036a8 <fail>

00000000800010f8 <test_116>:
    800010f8:	07400193          	li	gp,116
    800010fc:	0005b283          	ld	t0,0(a1)
    80001100:	00858593          	addi	a1,a1,8
    80001104:	ffff03b7          	lui	t2,0xffff0
    80001108:	fff3839b          	addiw	t2,t2,-1
    8000110c:	01c39393          	slli	t2,t2,0x1c
    80001110:	fff38393          	addi	t2,t2,-1 # fffffffffffeffff <_end+0xffffffff7ffeacbf>
    80001114:	00728463          	beq	t0,t2,8000111c <test_117>
    80001118:	5900206f          	j	800036a8 <fail>

000000008000111c <test_117>:
    8000111c:	07500193          	li	gp,117
    80001120:	0005b283          	ld	t0,0(a1)
    80001124:	00858593          	addi	a1,a1,8
    80001128:	0010039b          	addiw	t2,zero,1
    8000112c:	02039393          	slli	t2,t2,0x20
    80001130:	00138393          	addi	t2,t2,1
    80001134:	01039393          	slli	t2,t2,0x10
    80001138:	00728463          	beq	t0,t2,80001140 <test_118>
    8000113c:	56c0206f          	j	800036a8 <fail>

0000000080001140 <test_118>:
    80001140:	07600193          	li	gp,118
    80001144:	0005b283          	ld	t0,0(a1)
    80001148:	00858593          	addi	a1,a1,8
    8000114c:	000043b7          	lui	t2,0x4
    80001150:	0013839b          	addiw	t2,t2,1
    80001154:	01239393          	slli	t2,t2,0x12
    80001158:	ff838393          	addi	t2,t2,-8 # 3ff8 <_start-0x7fffc008>
    8000115c:	00728463          	beq	t0,t2,80001164 <test_119>
    80001160:	5480206f          	j	800036a8 <fail>

0000000080001164 <test_119>:
    80001164:	07700193          	li	gp,119
    80001168:	0005b283          	ld	t0,0(a1)
    8000116c:	00858593          	addi	a1,a1,8
    80001170:	000103b7          	lui	t2,0x10
    80001174:	0073839b          	addiw	t2,t2,7
    80001178:	01039393          	slli	t2,t2,0x10
    8000117c:	00728463          	beq	t0,t2,80001184 <test_120>
    80001180:	5280206f          	j	800036a8 <fail>

0000000080001184 <test_120>:
    80001184:	07800193          	li	gp,120
    80001188:	0005b283          	ld	t0,0(a1)
    8000118c:	00858593          	addi	a1,a1,8
    80001190:	ffff03b7          	lui	t2,0xffff0
    80001194:	fff3839b          	addiw	t2,t2,-1
    80001198:	01c39393          	slli	t2,t2,0x1c
    8000119c:	fff38393          	addi	t2,t2,-1 # fffffffffffeffff <_end+0xffffffff7ffeacbf>
    800011a0:	00728463          	beq	t0,t2,800011a8 <test_121>
    800011a4:	5040206f          	j	800036a8 <fail>

00000000800011a8 <test_121>:
    800011a8:	07900193          	li	gp,121
    800011ac:	0005b283          	ld	t0,0(a1)
    800011b0:	00858593          	addi	a1,a1,8
    800011b4:	0010039b          	addiw	t2,zero,1
    800011b8:	02039393          	slli	t2,t2,0x20
    800011bc:	00138393          	addi	t2,t2,1
    800011c0:	01039393          	slli	t2,t2,0x10
    800011c4:	00728463          	beq	t0,t2,800011cc <test_122>
    800011c8:	4e00206f          	j	800036a8 <fail>

00000000800011cc <test_122>:
    800011cc:	07a00193          	li	gp,122
    800011d0:	0005b283          	ld	t0,0(a1)
    800011d4:	00858593          	addi	a1,a1,8
    800011d8:	000043b7          	lui	t2,0x4
    800011dc:	0013839b          	addiw	t2,t2,1
    800011e0:	01239393          	slli	t2,t2,0x12
    800011e4:	ff838393          	addi	t2,t2,-8 # 3ff8 <_start-0x7fffc008>
    800011e8:	00728463          	beq	t0,t2,800011f0 <test_123>
    800011ec:	4bc0206f          	j	800036a8 <fail>

00000000800011f0 <test_123>:
    800011f0:	07b00193          	li	gp,123
    800011f4:	0005b283          	ld	t0,0(a1)
    800011f8:	00858593          	addi	a1,a1,8
    800011fc:	000103b7          	lui	t2,0x10
    80001200:	0073839b          	addiw	t2,t2,7
    80001204:	01039393          	slli	t2,t2,0x10
    80001208:	00728463          	beq	t0,t2,80001210 <test_124>
    8000120c:	49c0206f          	j	800036a8 <fail>

0000000080001210 <test_124>:
    80001210:	07c00193          	li	gp,124
    80001214:	0005b283          	ld	t0,0(a1)
    80001218:	00858593          	addi	a1,a1,8
    8000121c:	ffff03b7          	lui	t2,0xffff0
    80001220:	fff3839b          	addiw	t2,t2,-1
    80001224:	01c39393          	slli	t2,t2,0x1c
    80001228:	fff38393          	addi	t2,t2,-1 # fffffffffffeffff <_end+0xffffffff7ffeacbf>
    8000122c:	00728463          	beq	t0,t2,80001234 <test_125>
    80001230:	4780206f          	j	800036a8 <fail>

0000000080001234 <test_125>:
    80001234:	07d00193          	li	gp,125
    80001238:	0005b283          	ld	t0,0(a1)
    8000123c:	00858593          	addi	a1,a1,8
    80001240:	0010039b          	addiw	t2,zero,1
    80001244:	02039393          	slli	t2,t2,0x20
    80001248:	00138393          	addi	t2,t2,1
    8000124c:	01039393          	slli	t2,t2,0x10
    80001250:	00728463          	beq	t0,t2,80001258 <test_126>
    80001254:	4540206f          	j	800036a8 <fail>

0000000080001258 <test_126>:
    80001258:	07e00193          	li	gp,126
    8000125c:	0005b283          	ld	t0,0(a1)
    80001260:	00858593          	addi	a1,a1,8
    80001264:	000043b7          	lui	t2,0x4
    80001268:	0013839b          	addiw	t2,t2,1
    8000126c:	01239393          	slli	t2,t2,0x12
    80001270:	ff838393          	addi	t2,t2,-8 # 3ff8 <_start-0x7fffc008>
    80001274:	00728463          	beq	t0,t2,8000127c <test_127>
    80001278:	4300206f          	j	800036a8 <fail>

000000008000127c <test_127>:
    8000127c:	07f00193          	li	gp,127
    80001280:	0005b283          	ld	t0,0(a1)
    80001284:	00858593          	addi	a1,a1,8
    80001288:	000103b7          	lui	t2,0x10
    8000128c:	0073839b          	addiw	t2,t2,7
    80001290:	01039393          	slli	t2,t2,0x10
    80001294:	00728463          	beq	t0,t2,8000129c <test_128>
    80001298:	4100206f          	j	800036a8 <fail>

000000008000129c <test_128>:
    8000129c:	08000193          	li	gp,128
    800012a0:	0005b283          	ld	t0,0(a1)
    800012a4:	00858593          	addi	a1,a1,8
    800012a8:	ffff03b7          	lui	t2,0xffff0
    800012ac:	fff3839b          	addiw	t2,t2,-1
    800012b0:	01c39393          	slli	t2,t2,0x1c
    800012b4:	fff38393          	addi	t2,t2,-1 # fffffffffffeffff <_end+0xffffffff7ffeacbf>
    800012b8:	00728463          	beq	t0,t2,800012c0 <test_129>
    800012bc:	3ec0206f          	j	800036a8 <fail>

00000000800012c0 <test_129>:
    800012c0:	08100193          	li	gp,129
    800012c4:	0005b283          	ld	t0,0(a1)
    800012c8:	00858593          	addi	a1,a1,8
    800012cc:	0010039b          	addiw	t2,zero,1
    800012d0:	02039393          	slli	t2,t2,0x20
    800012d4:	00138393          	addi	t2,t2,1
    800012d8:	01039393          	slli	t2,t2,0x10
    800012dc:	00728463          	beq	t0,t2,800012e4 <test_129+0x24>
    800012e0:	3c80206f          	j	800036a8 <fail>
    800012e4:	fff00293          	li	t0,-1
    800012e8:	0ca2f357          	vsetvli	t1,t0,e16,m4,ta,ma
    800012ec:	00004617          	auipc	a2,0x4
    800012f0:	f2460613          	addi	a2,a2,-220 # 80005210 <tdat>
    800012f4:	02065807          	vle16.v	v16,(a2)
    800012f8:	0cb2f357          	vsetvli	t1,t0,e16,m8,ta,ma
    800012fc:	02065407          	vle16.v	v8,(a2)
    80001300:	00004617          	auipc	a2,0x4
    80001304:	f1860613          	addi	a2,a2,-232 # 80005218 <tdat+0x8>
    80001308:	0ca2f357          	vsetvli	t1,t0,e16,m4,ta,ma
    8000130c:	02065c07          	vle16.v	v24,(a2)
    80001310:	03f00293          	li	t0,63
    80001314:	0ca2f357          	vsetvli	t1,t0,e16,m4,ta,ma
    80001318:	c30c0457          	vwredsumu.vs	v8,v16,v24
    8000131c:	fff00293          	li	t0,-1
    80001320:	0cb2f357          	vsetvli	t1,t0,e16,m8,ta,ma
    80001324:	00004597          	auipc	a1,0x4
    80001328:	cdc58593          	addi	a1,a1,-804 # 80005000 <begin_signature>
    8000132c:	0205d427          	vse16.v	v8,(a1)

0000000080001330 <test_130>:
    80001330:	08200193          	li	gp,130
    80001334:	0005b283          	ld	t0,0(a1)
    80001338:	00858593          	addi	a1,a1,8
    8000133c:	000203b7          	lui	t2,0x20
    80001340:	0353839b          	addiw	t2,t2,53
    80001344:	00f39393          	slli	t2,t2,0xf
    80001348:	00738393          	addi	t2,t2,7 # 20007 <_start-0x7ffdfff9>
    8000134c:	00728463          	beq	t0,t2,80001354 <test_131>
    80001350:	3580206f          	j	800036a8 <fail>

0000000080001354 <test_131>:
    80001354:	08300193          	li	gp,131
    80001358:	0005b283          	ld	t0,0(a1)
    8000135c:	00858593          	addi	a1,a1,8
    80001360:	000103b7          	lui	t2,0x10
    80001364:	0073839b          	addiw	t2,t2,7
    80001368:	01039393          	slli	t2,t2,0x10
    8000136c:	00728463          	beq	t0,t2,80001374 <test_132>
    80001370:	3380206f          	j	800036a8 <fail>

0000000080001374 <test_132>:
    80001374:	08400193          	li	gp,132
    80001378:	0005b283          	ld	t0,0(a1)
    8000137c:	00858593          	addi	a1,a1,8
    80001380:	ffff03b7          	lui	t2,0xffff0
    80001384:	fff3839b          	addiw	t2,t2,-1
    80001388:	01c39393          	slli	t2,t2,0x1c
    8000138c:	fff38393          	addi	t2,t2,-1 # fffffffffffeffff <_end+0xffffffff7ffeacbf>
    80001390:	00728463          	beq	t0,t2,80001398 <test_133>
    80001394:	3140206f          	j	800036a8 <fail>

0000000080001398 <test_133>:
    80001398:	08500193          	li	gp,133
    8000139c:	0005b283          	ld	t0,0(a1)
    800013a0:	00858593          	addi	a1,a1,8
    800013a4:	0010039b          	addiw	t2,zero,1
    800013a8:	02039393          	slli	t2,t2,0x20
    800013ac:	00138393          	addi	t2,t2,1
    800013b0:	01039393          	slli	t2,t2,0x10
    800013b4:	00728463          	beq	t0,t2,800013bc <test_134>
    800013b8:	2f00206f          	j	800036a8 <fail>

00000000800013bc <test_134>:
    800013bc:	08600193          	li	gp,134
    800013c0:	0005b283          	ld	t0,0(a1)
    800013c4:	00858593          	addi	a1,a1,8
    800013c8:	000043b7          	lui	t2,0x4
    800013cc:	0013839b          	addiw	t2,t2,1
    800013d0:	01239393          	slli	t2,t2,0x12
    800013d4:	ff838393          	addi	t2,t2,-8 # 3ff8 <_start-0x7fffc008>
    800013d8:	00728463          	beq	t0,t2,800013e0 <test_135>
    800013dc:	2cc0206f          	j	800036a8 <fail>

00000000800013e0 <test_135>:
    800013e0:	08700193          	li	gp,135
    800013e4:	0005b283          	ld	t0,0(a1)
    800013e8:	00858593          	addi	a1,a1,8
    800013ec:	000103b7          	lui	t2,0x10
    800013f0:	0073839b          	addiw	t2,t2,7
    800013f4:	01039393          	slli	t2,t2,0x10
    800013f8:	00728463          	beq	t0,t2,80001400 <test_136>
    800013fc:	2ac0206f          	j	800036a8 <fail>

0000000080001400 <test_136>:
    80001400:	08800193          	li	gp,136
    80001404:	0005b283          	ld	t0,0(a1)
    80001408:	00858593          	addi	a1,a1,8
    8000140c:	ffff03b7          	lui	t2,0xffff0
    80001410:	fff3839b          	addiw	t2,t2,-1
    80001414:	01c39393          	slli	t2,t2,0x1c
    80001418:	fff38393          	addi	t2,t2,-1 # fffffffffffeffff <_end+0xffffffff7ffeacbf>
    8000141c:	00728463          	beq	t0,t2,80001424 <test_137>
    80001420:	2880206f          	j	800036a8 <fail>

0000000080001424 <test_137>:
    80001424:	08900193          	li	gp,137
    80001428:	0005b283          	ld	t0,0(a1)
    8000142c:	00858593          	addi	a1,a1,8
    80001430:	0010039b          	addiw	t2,zero,1
    80001434:	02039393          	slli	t2,t2,0x20
    80001438:	00138393          	addi	t2,t2,1
    8000143c:	01039393          	slli	t2,t2,0x10
    80001440:	00728463          	beq	t0,t2,80001448 <test_138>
    80001444:	2640206f          	j	800036a8 <fail>

0000000080001448 <test_138>:
    80001448:	08a00193          	li	gp,138
    8000144c:	0005b283          	ld	t0,0(a1)
    80001450:	00858593          	addi	a1,a1,8
    80001454:	000043b7          	lui	t2,0x4
    80001458:	0013839b          	addiw	t2,t2,1
    8000145c:	01239393          	slli	t2,t2,0x12
    80001460:	ff838393          	addi	t2,t2,-8 # 3ff8 <_start-0x7fffc008>
    80001464:	00728463          	beq	t0,t2,8000146c <test_139>
    80001468:	2400206f          	j	800036a8 <fail>

000000008000146c <test_139>:
    8000146c:	08b00193          	li	gp,139
    80001470:	0005b283          	ld	t0,0(a1)
    80001474:	00858593          	addi	a1,a1,8
    80001478:	000103b7          	lui	t2,0x10
    8000147c:	0073839b          	addiw	t2,t2,7
    80001480:	01039393          	slli	t2,t2,0x10
    80001484:	00728463          	beq	t0,t2,8000148c <test_140>
    80001488:	2200206f          	j	800036a8 <fail>

000000008000148c <test_140>:
    8000148c:	08c00193          	li	gp,140
    80001490:	0005b283          	ld	t0,0(a1)
    80001494:	00858593          	addi	a1,a1,8
    80001498:	ffff03b7          	lui	t2,0xffff0
    8000149c:	fff3839b          	addiw	t2,t2,-1
    800014a0:	01c39393          	slli	t2,t2,0x1c
    800014a4:	fff38393          	addi	t2,t2,-1 # fffffffffffeffff <_end+0xffffffff7ffeacbf>
    800014a8:	00728463          	beq	t0,t2,800014b0 <test_141>
    800014ac:	1fc0206f          	j	800036a8 <fail>

00000000800014b0 <test_141>:
    800014b0:	08d00193          	li	gp,141
    800014b4:	0005b283          	ld	t0,0(a1)
    800014b8:	00858593          	addi	a1,a1,8
    800014bc:	0010039b          	addiw	t2,zero,1
    800014c0:	02039393          	slli	t2,t2,0x20
    800014c4:	00138393          	addi	t2,t2,1
    800014c8:	01039393          	slli	t2,t2,0x10
    800014cc:	00728463          	beq	t0,t2,800014d4 <test_142>
    800014d0:	1d80206f          	j	800036a8 <fail>

00000000800014d4 <test_142>:
    800014d4:	08e00193          	li	gp,142
    800014d8:	0005b283          	ld	t0,0(a1)
    800014dc:	00858593          	addi	a1,a1,8
    800014e0:	000043b7          	lui	t2,0x4
    800014e4:	0013839b          	addiw	t2,t2,1
    800014e8:	01239393          	slli	t2,t2,0x12
    800014ec:	ff838393          	addi	t2,t2,-8 # 3ff8 <_start-0x7fffc008>
    800014f0:	00728463          	beq	t0,t2,800014f8 <test_143>
    800014f4:	1b40206f          	j	800036a8 <fail>

00000000800014f8 <test_143>:
    800014f8:	08f00193          	li	gp,143
    800014fc:	0005b283          	ld	t0,0(a1)
    80001500:	00858593          	addi	a1,a1,8
    80001504:	000103b7          	lui	t2,0x10
    80001508:	0073839b          	addiw	t2,t2,7
    8000150c:	01039393          	slli	t2,t2,0x10
    80001510:	00728463          	beq	t0,t2,80001518 <test_144>
    80001514:	1940206f          	j	800036a8 <fail>

0000000080001518 <test_144>:
    80001518:	09000193          	li	gp,144
    8000151c:	0005b283          	ld	t0,0(a1)
    80001520:	00858593          	addi	a1,a1,8
    80001524:	ffff03b7          	lui	t2,0xffff0
    80001528:	fff3839b          	addiw	t2,t2,-1
    8000152c:	01c39393          	slli	t2,t2,0x1c
    80001530:	fff38393          	addi	t2,t2,-1 # fffffffffffeffff <_end+0xffffffff7ffeacbf>
    80001534:	00728463          	beq	t0,t2,8000153c <test_145>
    80001538:	1700206f          	j	800036a8 <fail>

000000008000153c <test_145>:
    8000153c:	09100193          	li	gp,145
    80001540:	0005b283          	ld	t0,0(a1)
    80001544:	00858593          	addi	a1,a1,8
    80001548:	0010039b          	addiw	t2,zero,1
    8000154c:	02039393          	slli	t2,t2,0x20
    80001550:	00138393          	addi	t2,t2,1
    80001554:	01039393          	slli	t2,t2,0x10
    80001558:	00728463          	beq	t0,t2,80001560 <test_146>
    8000155c:	14c0206f          	j	800036a8 <fail>

0000000080001560 <test_146>:
    80001560:	09200193          	li	gp,146
    80001564:	0005b283          	ld	t0,0(a1)
    80001568:	00858593          	addi	a1,a1,8
    8000156c:	000043b7          	lui	t2,0x4
    80001570:	0013839b          	addiw	t2,t2,1
    80001574:	01239393          	slli	t2,t2,0x12
    80001578:	ff838393          	addi	t2,t2,-8 # 3ff8 <_start-0x7fffc008>
    8000157c:	00728463          	beq	t0,t2,80001584 <test_147>
    80001580:	1280206f          	j	800036a8 <fail>

0000000080001584 <test_147>:
    80001584:	09300193          	li	gp,147
    80001588:	0005b283          	ld	t0,0(a1)
    8000158c:	00858593          	addi	a1,a1,8
    80001590:	000103b7          	lui	t2,0x10
    80001594:	0073839b          	addiw	t2,t2,7
    80001598:	01039393          	slli	t2,t2,0x10
    8000159c:	00728463          	beq	t0,t2,800015a4 <test_148>
    800015a0:	1080206f          	j	800036a8 <fail>

00000000800015a4 <test_148>:
    800015a4:	09400193          	li	gp,148
    800015a8:	0005b283          	ld	t0,0(a1)
    800015ac:	00858593          	addi	a1,a1,8
    800015b0:	ffff03b7          	lui	t2,0xffff0
    800015b4:	fff3839b          	addiw	t2,t2,-1
    800015b8:	01c39393          	slli	t2,t2,0x1c
    800015bc:	fff38393          	addi	t2,t2,-1 # fffffffffffeffff <_end+0xffffffff7ffeacbf>
    800015c0:	00728463          	beq	t0,t2,800015c8 <test_149>
    800015c4:	0e40206f          	j	800036a8 <fail>

00000000800015c8 <test_149>:
    800015c8:	09500193          	li	gp,149
    800015cc:	0005b283          	ld	t0,0(a1)
    800015d0:	00858593          	addi	a1,a1,8
    800015d4:	0010039b          	addiw	t2,zero,1
    800015d8:	02039393          	slli	t2,t2,0x20
    800015dc:	00138393          	addi	t2,t2,1
    800015e0:	01039393          	slli	t2,t2,0x10
    800015e4:	00728463          	beq	t0,t2,800015ec <test_150>
    800015e8:	0c00206f          	j	800036a8 <fail>

00000000800015ec <test_150>:
    800015ec:	09600193          	li	gp,150
    800015f0:	0005b283          	ld	t0,0(a1)
    800015f4:	00858593          	addi	a1,a1,8
    800015f8:	000043b7          	lui	t2,0x4
    800015fc:	0013839b          	addiw	t2,t2,1
    80001600:	01239393          	slli	t2,t2,0x12
    80001604:	ff838393          	addi	t2,t2,-8 # 3ff8 <_start-0x7fffc008>
    80001608:	00728463          	beq	t0,t2,80001610 <test_151>
    8000160c:	09c0206f          	j	800036a8 <fail>

0000000080001610 <test_151>:
    80001610:	09700193          	li	gp,151
    80001614:	0005b283          	ld	t0,0(a1)
    80001618:	00858593          	addi	a1,a1,8
    8000161c:	000103b7          	lui	t2,0x10
    80001620:	0073839b          	addiw	t2,t2,7
    80001624:	01039393          	slli	t2,t2,0x10
    80001628:	00728463          	beq	t0,t2,80001630 <test_152>
    8000162c:	07c0206f          	j	800036a8 <fail>

0000000080001630 <test_152>:
    80001630:	09800193          	li	gp,152
    80001634:	0005b283          	ld	t0,0(a1)
    80001638:	00858593          	addi	a1,a1,8
    8000163c:	ffff03b7          	lui	t2,0xffff0
    80001640:	fff3839b          	addiw	t2,t2,-1
    80001644:	01c39393          	slli	t2,t2,0x1c
    80001648:	fff38393          	addi	t2,t2,-1 # fffffffffffeffff <_end+0xffffffff7ffeacbf>
    8000164c:	00728463          	beq	t0,t2,80001654 <test_153>
    80001650:	0580206f          	j	800036a8 <fail>

0000000080001654 <test_153>:
    80001654:	09900193          	li	gp,153
    80001658:	0005b283          	ld	t0,0(a1)
    8000165c:	00858593          	addi	a1,a1,8
    80001660:	0010039b          	addiw	t2,zero,1
    80001664:	02039393          	slli	t2,t2,0x20
    80001668:	00138393          	addi	t2,t2,1
    8000166c:	01039393          	slli	t2,t2,0x10
    80001670:	00728463          	beq	t0,t2,80001678 <test_154>
    80001674:	0340206f          	j	800036a8 <fail>

0000000080001678 <test_154>:
    80001678:	09a00193          	li	gp,154
    8000167c:	0005b283          	ld	t0,0(a1)
    80001680:	00858593          	addi	a1,a1,8
    80001684:	000043b7          	lui	t2,0x4
    80001688:	0013839b          	addiw	t2,t2,1
    8000168c:	01239393          	slli	t2,t2,0x12
    80001690:	ff838393          	addi	t2,t2,-8 # 3ff8 <_start-0x7fffc008>
    80001694:	00728463          	beq	t0,t2,8000169c <test_155>
    80001698:	0100206f          	j	800036a8 <fail>

000000008000169c <test_155>:
    8000169c:	09b00193          	li	gp,155
    800016a0:	0005b283          	ld	t0,0(a1)
    800016a4:	00858593          	addi	a1,a1,8
    800016a8:	000103b7          	lui	t2,0x10
    800016ac:	0073839b          	addiw	t2,t2,7
    800016b0:	01039393          	slli	t2,t2,0x10
    800016b4:	00728463          	beq	t0,t2,800016bc <test_156>
    800016b8:	7f10106f          	j	800036a8 <fail>

00000000800016bc <test_156>:
    800016bc:	09c00193          	li	gp,156
    800016c0:	0005b283          	ld	t0,0(a1)
    800016c4:	00858593          	addi	a1,a1,8
    800016c8:	ffff03b7          	lui	t2,0xffff0
    800016cc:	fff3839b          	addiw	t2,t2,-1
    800016d0:	01c39393          	slli	t2,t2,0x1c
    800016d4:	fff38393          	addi	t2,t2,-1 # fffffffffffeffff <_end+0xffffffff7ffeacbf>
    800016d8:	00728463          	beq	t0,t2,800016e0 <test_157>
    800016dc:	7cd0106f          	j	800036a8 <fail>

00000000800016e0 <test_157>:
    800016e0:	09d00193          	li	gp,157
    800016e4:	0005b283          	ld	t0,0(a1)
    800016e8:	00858593          	addi	a1,a1,8
    800016ec:	0010039b          	addiw	t2,zero,1
    800016f0:	02039393          	slli	t2,t2,0x20
    800016f4:	00138393          	addi	t2,t2,1
    800016f8:	01039393          	slli	t2,t2,0x10
    800016fc:	00728463          	beq	t0,t2,80001704 <test_158>
    80001700:	7a90106f          	j	800036a8 <fail>

0000000080001704 <test_158>:
    80001704:	09e00193          	li	gp,158
    80001708:	0005b283          	ld	t0,0(a1)
    8000170c:	00858593          	addi	a1,a1,8
    80001710:	000043b7          	lui	t2,0x4
    80001714:	0013839b          	addiw	t2,t2,1
    80001718:	01239393          	slli	t2,t2,0x12
    8000171c:	ff838393          	addi	t2,t2,-8 # 3ff8 <_start-0x7fffc008>
    80001720:	00728463          	beq	t0,t2,80001728 <test_159>
    80001724:	7850106f          	j	800036a8 <fail>

0000000080001728 <test_159>:
    80001728:	09f00193          	li	gp,159
    8000172c:	0005b283          	ld	t0,0(a1)
    80001730:	00858593          	addi	a1,a1,8
    80001734:	000103b7          	lui	t2,0x10
    80001738:	0073839b          	addiw	t2,t2,7
    8000173c:	01039393          	slli	t2,t2,0x10
    80001740:	00728463          	beq	t0,t2,80001748 <test_160>
    80001744:	7650106f          	j	800036a8 <fail>

0000000080001748 <test_160>:
    80001748:	0a000193          	li	gp,160
    8000174c:	0005b283          	ld	t0,0(a1)
    80001750:	00858593          	addi	a1,a1,8
    80001754:	ffff03b7          	lui	t2,0xffff0
    80001758:	fff3839b          	addiw	t2,t2,-1
    8000175c:	01c39393          	slli	t2,t2,0x1c
    80001760:	fff38393          	addi	t2,t2,-1 # fffffffffffeffff <_end+0xffffffff7ffeacbf>
    80001764:	00728463          	beq	t0,t2,8000176c <test_161>
    80001768:	7410106f          	j	800036a8 <fail>

000000008000176c <test_161>:
    8000176c:	0a100193          	li	gp,161
    80001770:	0005b283          	ld	t0,0(a1)
    80001774:	00858593          	addi	a1,a1,8
    80001778:	0010039b          	addiw	t2,zero,1
    8000177c:	02039393          	slli	t2,t2,0x20
    80001780:	00138393          	addi	t2,t2,1
    80001784:	01039393          	slli	t2,t2,0x10
    80001788:	00728463          	beq	t0,t2,80001790 <test_161+0x24>
    8000178c:	71d0106f          	j	800036a8 <fail>
    80001790:	fff00293          	li	t0,-1
    80001794:	0ca2f357          	vsetvli	t1,t0,e16,m4,ta,ma
    80001798:	00004617          	auipc	a2,0x4
    8000179c:	a7860613          	addi	a2,a2,-1416 # 80005210 <tdat>
    800017a0:	02065807          	vle16.v	v16,(a2)
    800017a4:	0cb2f357          	vsetvli	t1,t0,e16,m8,ta,ma
    800017a8:	02065407          	vle16.v	v8,(a2)
    800017ac:	00004617          	auipc	a2,0x4
    800017b0:	a6c60613          	addi	a2,a2,-1428 # 80005218 <tdat+0x8>
    800017b4:	0ca2f357          	vsetvli	t1,t0,e16,m4,ta,ma
    800017b8:	02065c07          	vle16.v	v24,(a2)
    800017bc:	03f00293          	li	t0,63
    800017c0:	08a2f357          	vsetvli	t1,t0,e16,m4,tu,ma
    800017c4:	c30c0457          	vwredsumu.vs	v8,v16,v24
    800017c8:	fff00293          	li	t0,-1
    800017cc:	0cb2f357          	vsetvli	t1,t0,e16,m8,ta,ma
    800017d0:	00004597          	auipc	a1,0x4
    800017d4:	83058593          	addi	a1,a1,-2000 # 80005000 <begin_signature>
    800017d8:	0205d427          	vse16.v	v8,(a1)

00000000800017dc <test_162>:
    800017dc:	0a200193          	li	gp,162
    800017e0:	0005b283          	ld	t0,0(a1)
    800017e4:	00858593          	addi	a1,a1,8
    800017e8:	000203b7          	lui	t2,0x20
    800017ec:	0353839b          	addiw	t2,t2,53
    800017f0:	00f39393          	slli	t2,t2,0xf
    800017f4:	00738393          	addi	t2,t2,7 # 20007 <_start-0x7ffdfff9>
    800017f8:	00728463          	beq	t0,t2,80001800 <test_163>
    800017fc:	6ad0106f          	j	800036a8 <fail>

0000000080001800 <test_163>:
    80001800:	0a300193          	li	gp,163
    80001804:	0005b283          	ld	t0,0(a1)
    80001808:	00858593          	addi	a1,a1,8
    8000180c:	000103b7          	lui	t2,0x10
    80001810:	0073839b          	addiw	t2,t2,7
    80001814:	01039393          	slli	t2,t2,0x10
    80001818:	00728463          	beq	t0,t2,80001820 <test_164>
    8000181c:	68d0106f          	j	800036a8 <fail>

0000000080001820 <test_164>:
    80001820:	0a400193          	li	gp,164
    80001824:	0005b283          	ld	t0,0(a1)
    80001828:	00858593          	addi	a1,a1,8
    8000182c:	ffff03b7          	lui	t2,0xffff0
    80001830:	fff3839b          	addiw	t2,t2,-1
    80001834:	01c39393          	slli	t2,t2,0x1c
    80001838:	fff38393          	addi	t2,t2,-1 # fffffffffffeffff <_end+0xffffffff7ffeacbf>
    8000183c:	00728463          	beq	t0,t2,80001844 <test_165>
    80001840:	6690106f          	j	800036a8 <fail>

0000000080001844 <test_165>:
    80001844:	0a500193          	li	gp,165
    80001848:	0005b283          	ld	t0,0(a1)
    8000184c:	00858593          	addi	a1,a1,8
    80001850:	0010039b          	addiw	t2,zero,1
    80001854:	02039393          	slli	t2,t2,0x20
    80001858:	00138393          	addi	t2,t2,1
    8000185c:	01039393          	slli	t2,t2,0x10
    80001860:	00728463          	beq	t0,t2,80001868 <test_166>
    80001864:	6450106f          	j	800036a8 <fail>

0000000080001868 <test_166>:
    80001868:	0a600193          	li	gp,166
    8000186c:	0005b283          	ld	t0,0(a1)
    80001870:	00858593          	addi	a1,a1,8
    80001874:	000043b7          	lui	t2,0x4
    80001878:	0013839b          	addiw	t2,t2,1
    8000187c:	01239393          	slli	t2,t2,0x12
    80001880:	ff838393          	addi	t2,t2,-8 # 3ff8 <_start-0x7fffc008>
    80001884:	00728463          	beq	t0,t2,8000188c <test_167>
    80001888:	6210106f          	j	800036a8 <fail>

000000008000188c <test_167>:
    8000188c:	0a700193          	li	gp,167
    80001890:	0005b283          	ld	t0,0(a1)
    80001894:	00858593          	addi	a1,a1,8
    80001898:	000103b7          	lui	t2,0x10
    8000189c:	0073839b          	addiw	t2,t2,7
    800018a0:	01039393          	slli	t2,t2,0x10
    800018a4:	00728463          	beq	t0,t2,800018ac <test_168>
    800018a8:	6010106f          	j	800036a8 <fail>

00000000800018ac <test_168>:
    800018ac:	0a800193          	li	gp,168
    800018b0:	0005b283          	ld	t0,0(a1)
    800018b4:	00858593          	addi	a1,a1,8
    800018b8:	ffff03b7          	lui	t2,0xffff0
    800018bc:	fff3839b          	addiw	t2,t2,-1
    800018c0:	01c39393          	slli	t2,t2,0x1c
    800018c4:	fff38393          	addi	t2,t2,-1 # fffffffffffeffff <_end+0xffffffff7ffeacbf>
    800018c8:	00728463          	beq	t0,t2,800018d0 <test_169>
    800018cc:	5dd0106f          	j	800036a8 <fail>

00000000800018d0 <test_169>:
    800018d0:	0a900193          	li	gp,169
    800018d4:	0005b283          	ld	t0,0(a1)
    800018d8:	00858593          	addi	a1,a1,8
    800018dc:	0010039b          	addiw	t2,zero,1
    800018e0:	02039393          	slli	t2,t2,0x20
    800018e4:	00138393          	addi	t2,t2,1
    800018e8:	01039393          	slli	t2,t2,0x10
    800018ec:	00728463          	beq	t0,t2,800018f4 <test_170>
    800018f0:	5b90106f          	j	800036a8 <fail>

00000000800018f4 <test_170>:
    800018f4:	0aa00193          	li	gp,170
    800018f8:	0005b283          	ld	t0,0(a1)
    800018fc:	00858593          	addi	a1,a1,8
    80001900:	000043b7          	lui	t2,0x4
    80001904:	0013839b          	addiw	t2,t2,1
    80001908:	01239393          	slli	t2,t2,0x12
    8000190c:	ff838393          	addi	t2,t2,-8 # 3ff8 <_start-0x7fffc008>
    80001910:	00728463          	beq	t0,t2,80001918 <test_171>
    80001914:	5950106f          	j	800036a8 <fail>

0000000080001918 <test_171>:
    80001918:	0ab00193          	li	gp,171
    8000191c:	0005b283          	ld	t0,0(a1)
    80001920:	00858593          	addi	a1,a1,8
    80001924:	000103b7          	lui	t2,0x10
    80001928:	0073839b          	addiw	t2,t2,7
    8000192c:	01039393          	slli	t2,t2,0x10
    80001930:	00728463          	beq	t0,t2,80001938 <test_172>
    80001934:	5750106f          	j	800036a8 <fail>

0000000080001938 <test_172>:
    80001938:	0ac00193          	li	gp,172
    8000193c:	0005b283          	ld	t0,0(a1)
    80001940:	00858593          	addi	a1,a1,8
    80001944:	ffff03b7          	lui	t2,0xffff0
    80001948:	fff3839b          	addiw	t2,t2,-1
    8000194c:	01c39393          	slli	t2,t2,0x1c
    80001950:	fff38393          	addi	t2,t2,-1 # fffffffffffeffff <_end+0xffffffff7ffeacbf>
    80001954:	00728463          	beq	t0,t2,8000195c <test_173>
    80001958:	5510106f          	j	800036a8 <fail>

000000008000195c <test_173>:
    8000195c:	0ad00193          	li	gp,173
    80001960:	0005b283          	ld	t0,0(a1)
    80001964:	00858593          	addi	a1,a1,8
    80001968:	0010039b          	addiw	t2,zero,1
    8000196c:	02039393          	slli	t2,t2,0x20
    80001970:	00138393          	addi	t2,t2,1
    80001974:	01039393          	slli	t2,t2,0x10
    80001978:	00728463          	beq	t0,t2,80001980 <test_174>
    8000197c:	52d0106f          	j	800036a8 <fail>

0000000080001980 <test_174>:
    80001980:	0ae00193          	li	gp,174
    80001984:	0005b283          	ld	t0,0(a1)
    80001988:	00858593          	addi	a1,a1,8
    8000198c:	000043b7          	lui	t2,0x4
    80001990:	0013839b          	addiw	t2,t2,1
    80001994:	01239393          	slli	t2,t2,0x12
    80001998:	ff838393          	addi	t2,t2,-8 # 3ff8 <_start-0x7fffc008>
    8000199c:	00728463          	beq	t0,t2,800019a4 <test_175>
    800019a0:	5090106f          	j	800036a8 <fail>

00000000800019a4 <test_175>:
    800019a4:	0af00193          	li	gp,175
    800019a8:	0005b283          	ld	t0,0(a1)
    800019ac:	00858593          	addi	a1,a1,8
    800019b0:	000103b7          	lui	t2,0x10
    800019b4:	0073839b          	addiw	t2,t2,7
    800019b8:	01039393          	slli	t2,t2,0x10
    800019bc:	00728463          	beq	t0,t2,800019c4 <test_176>
    800019c0:	4e90106f          	j	800036a8 <fail>

00000000800019c4 <test_176>:
    800019c4:	0b000193          	li	gp,176
    800019c8:	0005b283          	ld	t0,0(a1)
    800019cc:	00858593          	addi	a1,a1,8
    800019d0:	ffff03b7          	lui	t2,0xffff0
    800019d4:	fff3839b          	addiw	t2,t2,-1
    800019d8:	01c39393          	slli	t2,t2,0x1c
    800019dc:	fff38393          	addi	t2,t2,-1 # fffffffffffeffff <_end+0xffffffff7ffeacbf>
    800019e0:	00728463          	beq	t0,t2,800019e8 <test_177>
    800019e4:	4c50106f          	j	800036a8 <fail>

00000000800019e8 <test_177>:
    800019e8:	0b100193          	li	gp,177
    800019ec:	0005b283          	ld	t0,0(a1)
    800019f0:	00858593          	addi	a1,a1,8
    800019f4:	0010039b          	addiw	t2,zero,1
    800019f8:	02039393          	slli	t2,t2,0x20
    800019fc:	00138393          	addi	t2,t2,1
    80001a00:	01039393          	slli	t2,t2,0x10
    80001a04:	00728463          	beq	t0,t2,80001a0c <test_178>
    80001a08:	4a10106f          	j	800036a8 <fail>

0000000080001a0c <test_178>:
    80001a0c:	0b200193          	li	gp,178
    80001a10:	0005b283          	ld	t0,0(a1)
    80001a14:	00858593          	addi	a1,a1,8
    80001a18:	000043b7          	lui	t2,0x4
    80001a1c:	0013839b          	addiw	t2,t2,1
    80001a20:	01239393          	slli	t2,t2,0x12
    80001a24:	ff838393          	addi	t2,t2,-8 # 3ff8 <_start-0x7fffc008>
    80001a28:	00728463          	beq	t0,t2,80001a30 <test_179>
    80001a2c:	47d0106f          	j	800036a8 <fail>

0000000080001a30 <test_179>:
    80001a30:	0b300193          	li	gp,179
    80001a34:	0005b283          	ld	t0,0(a1)
    80001a38:	00858593          	addi	a1,a1,8
    80001a3c:	000103b7          	lui	t2,0x10
    80001a40:	0073839b          	addiw	t2,t2,7
    80001a44:	01039393          	slli	t2,t2,0x10
    80001a48:	00728463          	beq	t0,t2,80001a50 <test_180>
    80001a4c:	45d0106f          	j	800036a8 <fail>

0000000080001a50 <test_180>:
    80001a50:	0b400193          	li	gp,180
    80001a54:	0005b283          	ld	t0,0(a1)
    80001a58:	00858593          	addi	a1,a1,8
    80001a5c:	ffff03b7          	lui	t2,0xffff0
    80001a60:	fff3839b          	addiw	t2,t2,-1
    80001a64:	01c39393          	slli	t2,t2,0x1c
    80001a68:	fff38393          	addi	t2,t2,-1 # fffffffffffeffff <_end+0xffffffff7ffeacbf>
    80001a6c:	00728463          	beq	t0,t2,80001a74 <test_181>
    80001a70:	4390106f          	j	800036a8 <fail>

0000000080001a74 <test_181>:
    80001a74:	0b500193          	li	gp,181
    80001a78:	0005b283          	ld	t0,0(a1)
    80001a7c:	00858593          	addi	a1,a1,8
    80001a80:	0010039b          	addiw	t2,zero,1
    80001a84:	02039393          	slli	t2,t2,0x20
    80001a88:	00138393          	addi	t2,t2,1
    80001a8c:	01039393          	slli	t2,t2,0x10
    80001a90:	00728463          	beq	t0,t2,80001a98 <test_182>
    80001a94:	4150106f          	j	800036a8 <fail>

0000000080001a98 <test_182>:
    80001a98:	0b600193          	li	gp,182
    80001a9c:	0005b283          	ld	t0,0(a1)
    80001aa0:	00858593          	addi	a1,a1,8
    80001aa4:	000043b7          	lui	t2,0x4
    80001aa8:	0013839b          	addiw	t2,t2,1
    80001aac:	01239393          	slli	t2,t2,0x12
    80001ab0:	ff838393          	addi	t2,t2,-8 # 3ff8 <_start-0x7fffc008>
    80001ab4:	00728463          	beq	t0,t2,80001abc <test_183>
    80001ab8:	3f10106f          	j	800036a8 <fail>

0000000080001abc <test_183>:
    80001abc:	0b700193          	li	gp,183
    80001ac0:	0005b283          	ld	t0,0(a1)
    80001ac4:	00858593          	addi	a1,a1,8
    80001ac8:	000103b7          	lui	t2,0x10
    80001acc:	0073839b          	addiw	t2,t2,7
    80001ad0:	01039393          	slli	t2,t2,0x10
    80001ad4:	00728463          	beq	t0,t2,80001adc <test_184>
    80001ad8:	3d10106f          	j	800036a8 <fail>

0000000080001adc <test_184>:
    80001adc:	0b800193          	li	gp,184
    80001ae0:	0005b283          	ld	t0,0(a1)
    80001ae4:	00858593          	addi	a1,a1,8
    80001ae8:	ffff03b7          	lui	t2,0xffff0
    80001aec:	fff3839b          	addiw	t2,t2,-1
    80001af0:	01c39393          	slli	t2,t2,0x1c
    80001af4:	fff38393          	addi	t2,t2,-1 # fffffffffffeffff <_end+0xffffffff7ffeacbf>
    80001af8:	00728463          	beq	t0,t2,80001b00 <test_185>
    80001afc:	3ad0106f          	j	800036a8 <fail>

0000000080001b00 <test_185>:
    80001b00:	0b900193          	li	gp,185
    80001b04:	0005b283          	ld	t0,0(a1)
    80001b08:	00858593          	addi	a1,a1,8
    80001b0c:	0010039b          	addiw	t2,zero,1
    80001b10:	02039393          	slli	t2,t2,0x20
    80001b14:	00138393          	addi	t2,t2,1
    80001b18:	01039393          	slli	t2,t2,0x10
    80001b1c:	00728463          	beq	t0,t2,80001b24 <test_186>
    80001b20:	3890106f          	j	800036a8 <fail>

0000000080001b24 <test_186>:
    80001b24:	0ba00193          	li	gp,186
    80001b28:	0005b283          	ld	t0,0(a1)
    80001b2c:	00858593          	addi	a1,a1,8
    80001b30:	000043b7          	lui	t2,0x4
    80001b34:	0013839b          	addiw	t2,t2,1
    80001b38:	01239393          	slli	t2,t2,0x12
    80001b3c:	ff838393          	addi	t2,t2,-8 # 3ff8 <_start-0x7fffc008>
    80001b40:	00728463          	beq	t0,t2,80001b48 <test_187>
    80001b44:	3650106f          	j	800036a8 <fail>

0000000080001b48 <test_187>:
    80001b48:	0bb00193          	li	gp,187
    80001b4c:	0005b283          	ld	t0,0(a1)
    80001b50:	00858593          	addi	a1,a1,8
    80001b54:	000103b7          	lui	t2,0x10
    80001b58:	0073839b          	addiw	t2,t2,7
    80001b5c:	01039393          	slli	t2,t2,0x10
    80001b60:	00728463          	beq	t0,t2,80001b68 <test_188>
    80001b64:	3450106f          	j	800036a8 <fail>

0000000080001b68 <test_188>:
    80001b68:	0bc00193          	li	gp,188
    80001b6c:	0005b283          	ld	t0,0(a1)
    80001b70:	00858593          	addi	a1,a1,8
    80001b74:	ffff03b7          	lui	t2,0xffff0
    80001b78:	fff3839b          	addiw	t2,t2,-1
    80001b7c:	01c39393          	slli	t2,t2,0x1c
    80001b80:	fff38393          	addi	t2,t2,-1 # fffffffffffeffff <_end+0xffffffff7ffeacbf>
    80001b84:	00728463          	beq	t0,t2,80001b8c <test_189>
    80001b88:	3210106f          	j	800036a8 <fail>

0000000080001b8c <test_189>:
    80001b8c:	0bd00193          	li	gp,189
    80001b90:	0005b283          	ld	t0,0(a1)
    80001b94:	00858593          	addi	a1,a1,8
    80001b98:	0010039b          	addiw	t2,zero,1
    80001b9c:	02039393          	slli	t2,t2,0x20
    80001ba0:	00138393          	addi	t2,t2,1
    80001ba4:	01039393          	slli	t2,t2,0x10
    80001ba8:	00728463          	beq	t0,t2,80001bb0 <test_190>
    80001bac:	2fd0106f          	j	800036a8 <fail>

0000000080001bb0 <test_190>:
    80001bb0:	0be00193          	li	gp,190
    80001bb4:	0005b283          	ld	t0,0(a1)
    80001bb8:	00858593          	addi	a1,a1,8
    80001bbc:	000043b7          	lui	t2,0x4
    80001bc0:	0013839b          	addiw	t2,t2,1
    80001bc4:	01239393          	slli	t2,t2,0x12
    80001bc8:	ff838393          	addi	t2,t2,-8 # 3ff8 <_start-0x7fffc008>
    80001bcc:	00728463          	beq	t0,t2,80001bd4 <test_191>
    80001bd0:	2d90106f          	j	800036a8 <fail>

0000000080001bd4 <test_191>:
    80001bd4:	0bf00193          	li	gp,191
    80001bd8:	0005b283          	ld	t0,0(a1)
    80001bdc:	00858593          	addi	a1,a1,8
    80001be0:	000103b7          	lui	t2,0x10
    80001be4:	0073839b          	addiw	t2,t2,7
    80001be8:	01039393          	slli	t2,t2,0x10
    80001bec:	00728463          	beq	t0,t2,80001bf4 <test_192>
    80001bf0:	2b90106f          	j	800036a8 <fail>

0000000080001bf4 <test_192>:
    80001bf4:	0c000193          	li	gp,192
    80001bf8:	0005b283          	ld	t0,0(a1)
    80001bfc:	00858593          	addi	a1,a1,8
    80001c00:	ffff03b7          	lui	t2,0xffff0
    80001c04:	fff3839b          	addiw	t2,t2,-1
    80001c08:	01c39393          	slli	t2,t2,0x1c
    80001c0c:	fff38393          	addi	t2,t2,-1 # fffffffffffeffff <_end+0xffffffff7ffeacbf>
    80001c10:	00728463          	beq	t0,t2,80001c18 <test_193>
    80001c14:	2950106f          	j	800036a8 <fail>

0000000080001c18 <test_193>:
    80001c18:	0c100193          	li	gp,193
    80001c1c:	0005b283          	ld	t0,0(a1)
    80001c20:	00858593          	addi	a1,a1,8
    80001c24:	0010039b          	addiw	t2,zero,1
    80001c28:	02039393          	slli	t2,t2,0x20
    80001c2c:	00138393          	addi	t2,t2,1
    80001c30:	01039393          	slli	t2,t2,0x10
    80001c34:	00728463          	beq	t0,t2,80001c3c <test_193+0x24>
    80001c38:	2710106f          	j	800036a8 <fail>
    80001c3c:	fff00293          	li	t0,-1
    80001c40:	0ca2f357          	vsetvli	t1,t0,e16,m4,ta,ma
    80001c44:	00003617          	auipc	a2,0x3
    80001c48:	5cc60613          	addi	a2,a2,1484 # 80005210 <tdat>
    80001c4c:	02065807          	vle16.v	v16,(a2)
    80001c50:	0cb2f357          	vsetvli	t1,t0,e16,m8,ta,ma
    80001c54:	02065407          	vle16.v	v8,(a2)
    80001c58:	00003617          	auipc	a2,0x3
    80001c5c:	5c060613          	addi	a2,a2,1472 # 80005218 <tdat+0x8>
    80001c60:	0ca2f357          	vsetvli	t1,t0,e16,m4,ta,ma
    80001c64:	02065c07          	vle16.v	v24,(a2)
    80001c68:	fff00293          	li	t0,-1
    80001c6c:	0c02f357          	vsetvli	t1,t0,e8,m1,ta,ma
    80001c70:	00003697          	auipc	a3,0x3
    80001c74:	6a868693          	addi	a3,a3,1704 # 80005318 <mask>
    80001c78:	02068007          	vle8.v	v0,(a3)
    80001c7c:	03f00293          	li	t0,63
    80001c80:	0ca2f357          	vsetvli	t1,t0,e16,m4,ta,ma
    80001c84:	c10c0457          	vwredsumu.vs	v8,v16,v24,v0.t
    80001c88:	fff00293          	li	t0,-1
    80001c8c:	0cb2f357          	vsetvli	t1,t0,e16,m8,ta,ma
    80001c90:	00003597          	auipc	a1,0x3
    80001c94:	37058593          	addi	a1,a1,880 # 80005000 <begin_signature>
    80001c98:	0205d427          	vse16.v	v8,(a1)

0000000080001c9c <test_194>:
    80001c9c:	0c200193          	li	gp,194
    80001ca0:	0005b283          	ld	t0,0(a1)
    80001ca4:	00858593          	addi	a1,a1,8
    80001ca8:	000403b7          	lui	t2,0x40
    80001cac:	04b3839b          	addiw	t2,t2,75
    80001cb0:	00e39393          	slli	t2,t2,0xe
    80001cb4:	fe038393          	addi	t2,t2,-32 # 3ffe0 <_start-0x7ffc0020>
    80001cb8:	00728463          	beq	t0,t2,80001cc0 <test_195>
    80001cbc:	1ed0106f          	j	800036a8 <fail>

0000000080001cc0 <test_195>:
    80001cc0:	0c300193          	li	gp,195
    80001cc4:	0005b283          	ld	t0,0(a1)
    80001cc8:	00858593          	addi	a1,a1,8
    80001ccc:	000103b7          	lui	t2,0x10
    80001cd0:	0073839b          	addiw	t2,t2,7
    80001cd4:	01039393          	slli	t2,t2,0x10
    80001cd8:	00728463          	beq	t0,t2,80001ce0 <test_196>
    80001cdc:	1cd0106f          	j	800036a8 <fail>

0000000080001ce0 <test_196>:
    80001ce0:	0c400193          	li	gp,196
    80001ce4:	0005b283          	ld	t0,0(a1)
    80001ce8:	00858593          	addi	a1,a1,8
    80001cec:	ffff03b7          	lui	t2,0xffff0
    80001cf0:	fff3839b          	addiw	t2,t2,-1
    80001cf4:	01c39393          	slli	t2,t2,0x1c
    80001cf8:	fff38393          	addi	t2,t2,-1 # fffffffffffeffff <_end+0xffffffff7ffeacbf>
    80001cfc:	00728463          	beq	t0,t2,80001d04 <test_197>
    80001d00:	1a90106f          	j	800036a8 <fail>

0000000080001d04 <test_197>:
    80001d04:	0c500193          	li	gp,197
    80001d08:	0005b283          	ld	t0,0(a1)
    80001d0c:	00858593          	addi	a1,a1,8
    80001d10:	0010039b          	addiw	t2,zero,1
    80001d14:	02039393          	slli	t2,t2,0x20
    80001d18:	00138393          	addi	t2,t2,1
    80001d1c:	01039393          	slli	t2,t2,0x10
    80001d20:	00728463          	beq	t0,t2,80001d28 <test_198>
    80001d24:	1850106f          	j	800036a8 <fail>

0000000080001d28 <test_198>:
    80001d28:	0c600193          	li	gp,198
    80001d2c:	0005b283          	ld	t0,0(a1)
    80001d30:	00858593          	addi	a1,a1,8
    80001d34:	000043b7          	lui	t2,0x4
    80001d38:	0013839b          	addiw	t2,t2,1
    80001d3c:	01239393          	slli	t2,t2,0x12
    80001d40:	ff838393          	addi	t2,t2,-8 # 3ff8 <_start-0x7fffc008>
    80001d44:	00728463          	beq	t0,t2,80001d4c <test_199>
    80001d48:	1610106f          	j	800036a8 <fail>

0000000080001d4c <test_199>:
    80001d4c:	0c700193          	li	gp,199
    80001d50:	0005b283          	ld	t0,0(a1)
    80001d54:	00858593          	addi	a1,a1,8
    80001d58:	000103b7          	lui	t2,0x10
    80001d5c:	0073839b          	addiw	t2,t2,7
    80001d60:	01039393          	slli	t2,t2,0x10
    80001d64:	00728463          	beq	t0,t2,80001d6c <test_200>
    80001d68:	1410106f          	j	800036a8 <fail>

0000000080001d6c <test_200>:
    80001d6c:	0c800193          	li	gp,200
    80001d70:	0005b283          	ld	t0,0(a1)
    80001d74:	00858593          	addi	a1,a1,8
    80001d78:	ffff03b7          	lui	t2,0xffff0
    80001d7c:	fff3839b          	addiw	t2,t2,-1
    80001d80:	01c39393          	slli	t2,t2,0x1c
    80001d84:	fff38393          	addi	t2,t2,-1 # fffffffffffeffff <_end+0xffffffff7ffeacbf>
    80001d88:	00728463          	beq	t0,t2,80001d90 <test_201>
    80001d8c:	11d0106f          	j	800036a8 <fail>

0000000080001d90 <test_201>:
    80001d90:	0c900193          	li	gp,201
    80001d94:	0005b283          	ld	t0,0(a1)
    80001d98:	00858593          	addi	a1,a1,8
    80001d9c:	0010039b          	addiw	t2,zero,1
    80001da0:	02039393          	slli	t2,t2,0x20
    80001da4:	00138393          	addi	t2,t2,1
    80001da8:	01039393          	slli	t2,t2,0x10
    80001dac:	00728463          	beq	t0,t2,80001db4 <test_202>
    80001db0:	0f90106f          	j	800036a8 <fail>

0000000080001db4 <test_202>:
    80001db4:	0ca00193          	li	gp,202
    80001db8:	0005b283          	ld	t0,0(a1)
    80001dbc:	00858593          	addi	a1,a1,8
    80001dc0:	000043b7          	lui	t2,0x4
    80001dc4:	0013839b          	addiw	t2,t2,1
    80001dc8:	01239393          	slli	t2,t2,0x12
    80001dcc:	ff838393          	addi	t2,t2,-8 # 3ff8 <_start-0x7fffc008>
    80001dd0:	00728463          	beq	t0,t2,80001dd8 <test_203>
    80001dd4:	0d50106f          	j	800036a8 <fail>

0000000080001dd8 <test_203>:
    80001dd8:	0cb00193          	li	gp,203
    80001ddc:	0005b283          	ld	t0,0(a1)
    80001de0:	00858593          	addi	a1,a1,8
    80001de4:	000103b7          	lui	t2,0x10
    80001de8:	0073839b          	addiw	t2,t2,7
    80001dec:	01039393          	slli	t2,t2,0x10
    80001df0:	00728463          	beq	t0,t2,80001df8 <test_204>
    80001df4:	0b50106f          	j	800036a8 <fail>

0000000080001df8 <test_204>:
    80001df8:	0cc00193          	li	gp,204
    80001dfc:	0005b283          	ld	t0,0(a1)
    80001e00:	00858593          	addi	a1,a1,8
    80001e04:	ffff03b7          	lui	t2,0xffff0
    80001e08:	fff3839b          	addiw	t2,t2,-1
    80001e0c:	01c39393          	slli	t2,t2,0x1c
    80001e10:	fff38393          	addi	t2,t2,-1 # fffffffffffeffff <_end+0xffffffff7ffeacbf>
    80001e14:	00728463          	beq	t0,t2,80001e1c <test_205>
    80001e18:	0910106f          	j	800036a8 <fail>

0000000080001e1c <test_205>:
    80001e1c:	0cd00193          	li	gp,205
    80001e20:	0005b283          	ld	t0,0(a1)
    80001e24:	00858593          	addi	a1,a1,8
    80001e28:	0010039b          	addiw	t2,zero,1
    80001e2c:	02039393          	slli	t2,t2,0x20
    80001e30:	00138393          	addi	t2,t2,1
    80001e34:	01039393          	slli	t2,t2,0x10
    80001e38:	00728463          	beq	t0,t2,80001e40 <test_206>
    80001e3c:	06d0106f          	j	800036a8 <fail>

0000000080001e40 <test_206>:
    80001e40:	0ce00193          	li	gp,206
    80001e44:	0005b283          	ld	t0,0(a1)
    80001e48:	00858593          	addi	a1,a1,8
    80001e4c:	000043b7          	lui	t2,0x4
    80001e50:	0013839b          	addiw	t2,t2,1
    80001e54:	01239393          	slli	t2,t2,0x12
    80001e58:	ff838393          	addi	t2,t2,-8 # 3ff8 <_start-0x7fffc008>
    80001e5c:	00728463          	beq	t0,t2,80001e64 <test_207>
    80001e60:	0490106f          	j	800036a8 <fail>

0000000080001e64 <test_207>:
    80001e64:	0cf00193          	li	gp,207
    80001e68:	0005b283          	ld	t0,0(a1)
    80001e6c:	00858593          	addi	a1,a1,8
    80001e70:	000103b7          	lui	t2,0x10
    80001e74:	0073839b          	addiw	t2,t2,7
    80001e78:	01039393          	slli	t2,t2,0x10
    80001e7c:	00728463          	beq	t0,t2,80001e84 <test_208>
    80001e80:	0290106f          	j	800036a8 <fail>

0000000080001e84 <test_208>:
    80001e84:	0d000193          	li	gp,208
    80001e88:	0005b283          	ld	t0,0(a1)
    80001e8c:	00858593          	addi	a1,a1,8
    80001e90:	ffff03b7          	lui	t2,0xffff0
    80001e94:	fff3839b          	addiw	t2,t2,-1
    80001e98:	01c39393          	slli	t2,t2,0x1c
    80001e9c:	fff38393          	addi	t2,t2,-1 # fffffffffffeffff <_end+0xffffffff7ffeacbf>
    80001ea0:	00728463          	beq	t0,t2,80001ea8 <test_209>
    80001ea4:	0050106f          	j	800036a8 <fail>

0000000080001ea8 <test_209>:
    80001ea8:	0d100193          	li	gp,209
    80001eac:	0005b283          	ld	t0,0(a1)
    80001eb0:	00858593          	addi	a1,a1,8
    80001eb4:	0010039b          	addiw	t2,zero,1
    80001eb8:	02039393          	slli	t2,t2,0x20
    80001ebc:	00138393          	addi	t2,t2,1
    80001ec0:	01039393          	slli	t2,t2,0x10
    80001ec4:	00728463          	beq	t0,t2,80001ecc <test_210>
    80001ec8:	7e00106f          	j	800036a8 <fail>

0000000080001ecc <test_210>:
    80001ecc:	0d200193          	li	gp,210
    80001ed0:	0005b283          	ld	t0,0(a1)
    80001ed4:	00858593          	addi	a1,a1,8
    80001ed8:	000043b7          	lui	t2,0x4
    80001edc:	0013839b          	addiw	t2,t2,1
    80001ee0:	01239393          	slli	t2,t2,0x12
    80001ee4:	ff838393          	addi	t2,t2,-8 # 3ff8 <_start-0x7fffc008>
    80001ee8:	00728463          	beq	t0,t2,80001ef0 <test_211>
    80001eec:	7bc0106f          	j	800036a8 <fail>

0000000080001ef0 <test_211>:
    80001ef0:	0d300193          	li	gp,211
    80001ef4:	0005b283          	ld	t0,0(a1)
    80001ef8:	00858593          	addi	a1,a1,8
    80001efc:	000103b7          	lui	t2,0x10
    80001f00:	0073839b          	addiw	t2,t2,7
    80001f04:	01039393          	slli	t2,t2,0x10
    80001f08:	00728463          	beq	t0,t2,80001f10 <test_212>
    80001f0c:	79c0106f          	j	800036a8 <fail>

0000000080001f10 <test_212>:
    80001f10:	0d400193          	li	gp,212
    80001f14:	0005b283          	ld	t0,0(a1)
    80001f18:	00858593          	addi	a1,a1,8
    80001f1c:	ffff03b7          	lui	t2,0xffff0
    80001f20:	fff3839b          	addiw	t2,t2,-1
    80001f24:	01c39393          	slli	t2,t2,0x1c
    80001f28:	fff38393          	addi	t2,t2,-1 # fffffffffffeffff <_end+0xffffffff7ffeacbf>
    80001f2c:	00728463          	beq	t0,t2,80001f34 <test_213>
    80001f30:	7780106f          	j	800036a8 <fail>

0000000080001f34 <test_213>:
    80001f34:	0d500193          	li	gp,213
    80001f38:	0005b283          	ld	t0,0(a1)
    80001f3c:	00858593          	addi	a1,a1,8
    80001f40:	0010039b          	addiw	t2,zero,1
    80001f44:	02039393          	slli	t2,t2,0x20
    80001f48:	00138393          	addi	t2,t2,1
    80001f4c:	01039393          	slli	t2,t2,0x10
    80001f50:	00728463          	beq	t0,t2,80001f58 <test_214>
    80001f54:	7540106f          	j	800036a8 <fail>

0000000080001f58 <test_214>:
    80001f58:	0d600193          	li	gp,214
    80001f5c:	0005b283          	ld	t0,0(a1)
    80001f60:	00858593          	addi	a1,a1,8
    80001f64:	000043b7          	lui	t2,0x4
    80001f68:	0013839b          	addiw	t2,t2,1
    80001f6c:	01239393          	slli	t2,t2,0x12
    80001f70:	ff838393          	addi	t2,t2,-8 # 3ff8 <_start-0x7fffc008>
    80001f74:	00728463          	beq	t0,t2,80001f7c <test_215>
    80001f78:	7300106f          	j	800036a8 <fail>

0000000080001f7c <test_215>:
    80001f7c:	0d700193          	li	gp,215
    80001f80:	0005b283          	ld	t0,0(a1)
    80001f84:	00858593          	addi	a1,a1,8
    80001f88:	000103b7          	lui	t2,0x10
    80001f8c:	0073839b          	addiw	t2,t2,7
    80001f90:	01039393          	slli	t2,t2,0x10
    80001f94:	00728463          	beq	t0,t2,80001f9c <test_216>
    80001f98:	7100106f          	j	800036a8 <fail>

0000000080001f9c <test_216>:
    80001f9c:	0d800193          	li	gp,216
    80001fa0:	0005b283          	ld	t0,0(a1)
    80001fa4:	00858593          	addi	a1,a1,8
    80001fa8:	ffff03b7          	lui	t2,0xffff0
    80001fac:	fff3839b          	addiw	t2,t2,-1
    80001fb0:	01c39393          	slli	t2,t2,0x1c
    80001fb4:	fff38393          	addi	t2,t2,-1 # fffffffffffeffff <_end+0xffffffff7ffeacbf>
    80001fb8:	00728463          	beq	t0,t2,80001fc0 <test_217>
    80001fbc:	6ec0106f          	j	800036a8 <fail>

0000000080001fc0 <test_217>:
    80001fc0:	0d900193          	li	gp,217
    80001fc4:	0005b283          	ld	t0,0(a1)
    80001fc8:	00858593          	addi	a1,a1,8
    80001fcc:	0010039b          	addiw	t2,zero,1
    80001fd0:	02039393          	slli	t2,t2,0x20
    80001fd4:	00138393          	addi	t2,t2,1
    80001fd8:	01039393          	slli	t2,t2,0x10
    80001fdc:	00728463          	beq	t0,t2,80001fe4 <test_218>
    80001fe0:	6c80106f          	j	800036a8 <fail>

0000000080001fe4 <test_218>:
    80001fe4:	0da00193          	li	gp,218
    80001fe8:	0005b283          	ld	t0,0(a1)
    80001fec:	00858593          	addi	a1,a1,8
    80001ff0:	000043b7          	lui	t2,0x4
    80001ff4:	0013839b          	addiw	t2,t2,1
    80001ff8:	01239393          	slli	t2,t2,0x12
    80001ffc:	ff838393          	addi	t2,t2,-8 # 3ff8 <_start-0x7fffc008>
    80002000:	00728463          	beq	t0,t2,80002008 <test_219>
    80002004:	6a40106f          	j	800036a8 <fail>

0000000080002008 <test_219>:
    80002008:	0db00193          	li	gp,219
    8000200c:	0005b283          	ld	t0,0(a1)
    80002010:	00858593          	addi	a1,a1,8
    80002014:	000103b7          	lui	t2,0x10
    80002018:	0073839b          	addiw	t2,t2,7
    8000201c:	01039393          	slli	t2,t2,0x10
    80002020:	00728463          	beq	t0,t2,80002028 <test_220>
    80002024:	6840106f          	j	800036a8 <fail>

0000000080002028 <test_220>:
    80002028:	0dc00193          	li	gp,220
    8000202c:	0005b283          	ld	t0,0(a1)
    80002030:	00858593          	addi	a1,a1,8
    80002034:	ffff03b7          	lui	t2,0xffff0
    80002038:	fff3839b          	addiw	t2,t2,-1
    8000203c:	01c39393          	slli	t2,t2,0x1c
    80002040:	fff38393          	addi	t2,t2,-1 # fffffffffffeffff <_end+0xffffffff7ffeacbf>
    80002044:	00728463          	beq	t0,t2,8000204c <test_221>
    80002048:	6600106f          	j	800036a8 <fail>

000000008000204c <test_221>:
    8000204c:	0dd00193          	li	gp,221
    80002050:	0005b283          	ld	t0,0(a1)
    80002054:	00858593          	addi	a1,a1,8
    80002058:	0010039b          	addiw	t2,zero,1
    8000205c:	02039393          	slli	t2,t2,0x20
    80002060:	00138393          	addi	t2,t2,1
    80002064:	01039393          	slli	t2,t2,0x10
    80002068:	00728463          	beq	t0,t2,80002070 <test_222>
    8000206c:	63c0106f          	j	800036a8 <fail>

0000000080002070 <test_222>:
    80002070:	0de00193          	li	gp,222
    80002074:	0005b283          	ld	t0,0(a1)
    80002078:	00858593          	addi	a1,a1,8
    8000207c:	000043b7          	lui	t2,0x4
    80002080:	0013839b          	addiw	t2,t2,1
    80002084:	01239393          	slli	t2,t2,0x12
    80002088:	ff838393          	addi	t2,t2,-8 # 3ff8 <_start-0x7fffc008>
    8000208c:	00728463          	beq	t0,t2,80002094 <test_223>
    80002090:	6180106f          	j	800036a8 <fail>

0000000080002094 <test_223>:
    80002094:	0df00193          	li	gp,223
    80002098:	0005b283          	ld	t0,0(a1)
    8000209c:	00858593          	addi	a1,a1,8
    800020a0:	000103b7          	lui	t2,0x10
    800020a4:	0073839b          	addiw	t2,t2,7
    800020a8:	01039393          	slli	t2,t2,0x10
    800020ac:	00728463          	beq	t0,t2,800020b4 <test_224>
    800020b0:	5f80106f          	j	800036a8 <fail>

00000000800020b4 <test_224>:
    800020b4:	0e000193          	li	gp,224
    800020b8:	0005b283          	ld	t0,0(a1)
    800020bc:	00858593          	addi	a1,a1,8
    800020c0:	ffff03b7          	lui	t2,0xffff0
    800020c4:	fff3839b          	addiw	t2,t2,-1
    800020c8:	01c39393          	slli	t2,t2,0x1c
    800020cc:	fff38393          	addi	t2,t2,-1 # fffffffffffeffff <_end+0xffffffff7ffeacbf>
    800020d0:	00728463          	beq	t0,t2,800020d8 <test_225>
    800020d4:	5d40106f          	j	800036a8 <fail>

00000000800020d8 <test_225>:
    800020d8:	0e100193          	li	gp,225
    800020dc:	0005b283          	ld	t0,0(a1)
    800020e0:	00858593          	addi	a1,a1,8
    800020e4:	0010039b          	addiw	t2,zero,1
    800020e8:	02039393          	slli	t2,t2,0x20
    800020ec:	00138393          	addi	t2,t2,1
    800020f0:	01039393          	slli	t2,t2,0x10
    800020f4:	00728463          	beq	t0,t2,800020fc <test_225+0x24>
    800020f8:	5b00106f          	j	800036a8 <fail>
    800020fc:	fff00293          	li	t0,-1
    80002100:	0ca2f357          	vsetvli	t1,t0,e16,m4,ta,ma
    80002104:	00003617          	auipc	a2,0x3
    80002108:	10c60613          	addi	a2,a2,268 # 80005210 <tdat>
    8000210c:	02065807          	vle16.v	v16,(a2)
    80002110:	0cb2f357          	vsetvli	t1,t0,e16,m8,ta,ma
    80002114:	02065407          	vle16.v	v8,(a2)
    80002118:	00003617          	auipc	a2,0x3
    8000211c:	10060613          	addi	a2,a2,256 # 80005218 <tdat+0x8>
    80002120:	0ca2f357          	vsetvli	t1,t0,e16,m4,ta,ma
    80002124:	02065c07          	vle16.v	v24,(a2)
    80002128:	fff00293          	li	t0,-1
    8000212c:	0c02f357          	vsetvli	t1,t0,e8,m1,ta,ma
    80002130:	00003697          	auipc	a3,0x3
    80002134:	1e868693          	addi	a3,a3,488 # 80005318 <mask>
    80002138:	02068007          	vle8.v	v0,(a3)
    8000213c:	03f00293          	li	t0,63
    80002140:	0ca2f357          	vsetvli	t1,t0,e16,m4,ta,ma
    80002144:	c10c0457          	vwredsumu.vs	v8,v16,v24,v0.t
    80002148:	fff00293          	li	t0,-1
    8000214c:	0cb2f357          	vsetvli	t1,t0,e16,m8,ta,ma
    80002150:	00003597          	auipc	a1,0x3
    80002154:	eb058593          	addi	a1,a1,-336 # 80005000 <begin_signature>
    80002158:	0205d427          	vse16.v	v8,(a1)

000000008000215c <test_226>:
    8000215c:	0e200193          	li	gp,226
    80002160:	0005b283          	ld	t0,0(a1)
    80002164:	00858593          	addi	a1,a1,8
    80002168:	000403b7          	lui	t2,0x40
    8000216c:	04b3839b          	addiw	t2,t2,75
    80002170:	00e39393          	slli	t2,t2,0xe
    80002174:	fe038393          	addi	t2,t2,-32 # 3ffe0 <_start-0x7ffc0020>
    80002178:	00728463          	beq	t0,t2,80002180 <test_227>
    8000217c:	52c0106f          	j	800036a8 <fail>

0000000080002180 <test_227>:
    80002180:	0e300193          	li	gp,227
    80002184:	0005b283          	ld	t0,0(a1)
    80002188:	00858593          	addi	a1,a1,8
    8000218c:	000103b7          	lui	t2,0x10
    80002190:	0073839b          	addiw	t2,t2,7
    80002194:	01039393          	slli	t2,t2,0x10
    80002198:	00728463          	beq	t0,t2,800021a0 <test_228>
    8000219c:	50c0106f          	j	800036a8 <fail>

00000000800021a0 <test_228>:
    800021a0:	0e400193          	li	gp,228
    800021a4:	0005b283          	ld	t0,0(a1)
    800021a8:	00858593          	addi	a1,a1,8
    800021ac:	ffff03b7          	lui	t2,0xffff0
    800021b0:	fff3839b          	addiw	t2,t2,-1
    800021b4:	01c39393          	slli	t2,t2,0x1c
    800021b8:	fff38393          	addi	t2,t2,-1 # fffffffffffeffff <_end+0xffffffff7ffeacbf>
    800021bc:	00728463          	beq	t0,t2,800021c4 <test_229>
    800021c0:	4e80106f          	j	800036a8 <fail>

00000000800021c4 <test_229>:
    800021c4:	0e500193          	li	gp,229
    800021c8:	0005b283          	ld	t0,0(a1)
    800021cc:	00858593          	addi	a1,a1,8
    800021d0:	0010039b          	addiw	t2,zero,1
    800021d4:	02039393          	slli	t2,t2,0x20
    800021d8:	00138393          	addi	t2,t2,1
    800021dc:	01039393          	slli	t2,t2,0x10
    800021e0:	00728463          	beq	t0,t2,800021e8 <test_230>
    800021e4:	4c40106f          	j	800036a8 <fail>

00000000800021e8 <test_230>:
    800021e8:	0e600193          	li	gp,230
    800021ec:	0005b283          	ld	t0,0(a1)
    800021f0:	00858593          	addi	a1,a1,8
    800021f4:	000043b7          	lui	t2,0x4
    800021f8:	0013839b          	addiw	t2,t2,1
    800021fc:	01239393          	slli	t2,t2,0x12
    80002200:	ff838393          	addi	t2,t2,-8 # 3ff8 <_start-0x7fffc008>
    80002204:	00728463          	beq	t0,t2,8000220c <test_231>
    80002208:	4a00106f          	j	800036a8 <fail>

000000008000220c <test_231>:
    8000220c:	0e700193          	li	gp,231
    80002210:	0005b283          	ld	t0,0(a1)
    80002214:	00858593          	addi	a1,a1,8
    80002218:	000103b7          	lui	t2,0x10
    8000221c:	0073839b          	addiw	t2,t2,7
    80002220:	01039393          	slli	t2,t2,0x10
    80002224:	00728463          	beq	t0,t2,8000222c <test_232>
    80002228:	4800106f          	j	800036a8 <fail>

000000008000222c <test_232>:
    8000222c:	0e800193          	li	gp,232
    80002230:	0005b283          	ld	t0,0(a1)
    80002234:	00858593          	addi	a1,a1,8
    80002238:	ffff03b7          	lui	t2,0xffff0
    8000223c:	fff3839b          	addiw	t2,t2,-1
    80002240:	01c39393          	slli	t2,t2,0x1c
    80002244:	fff38393          	addi	t2,t2,-1 # fffffffffffeffff <_end+0xffffffff7ffeacbf>
    80002248:	00728463          	beq	t0,t2,80002250 <test_233>
    8000224c:	45c0106f          	j	800036a8 <fail>

0000000080002250 <test_233>:
    80002250:	0e900193          	li	gp,233
    80002254:	0005b283          	ld	t0,0(a1)
    80002258:	00858593          	addi	a1,a1,8
    8000225c:	0010039b          	addiw	t2,zero,1
    80002260:	02039393          	slli	t2,t2,0x20
    80002264:	00138393          	addi	t2,t2,1
    80002268:	01039393          	slli	t2,t2,0x10
    8000226c:	00728463          	beq	t0,t2,80002274 <test_234>
    80002270:	4380106f          	j	800036a8 <fail>

0000000080002274 <test_234>:
    80002274:	0ea00193          	li	gp,234
    80002278:	0005b283          	ld	t0,0(a1)
    8000227c:	00858593          	addi	a1,a1,8
    80002280:	000043b7          	lui	t2,0x4
    80002284:	0013839b          	addiw	t2,t2,1
    80002288:	01239393          	slli	t2,t2,0x12
    8000228c:	ff838393          	addi	t2,t2,-8 # 3ff8 <_start-0x7fffc008>
    80002290:	00728463          	beq	t0,t2,80002298 <test_235>
    80002294:	4140106f          	j	800036a8 <fail>

0000000080002298 <test_235>:
    80002298:	0eb00193          	li	gp,235
    8000229c:	0005b283          	ld	t0,0(a1)
    800022a0:	00858593          	addi	a1,a1,8
    800022a4:	000103b7          	lui	t2,0x10
    800022a8:	0073839b          	addiw	t2,t2,7
    800022ac:	01039393          	slli	t2,t2,0x10
    800022b0:	00728463          	beq	t0,t2,800022b8 <test_236>
    800022b4:	3f40106f          	j	800036a8 <fail>

00000000800022b8 <test_236>:
    800022b8:	0ec00193          	li	gp,236
    800022bc:	0005b283          	ld	t0,0(a1)
    800022c0:	00858593          	addi	a1,a1,8
    800022c4:	ffff03b7          	lui	t2,0xffff0
    800022c8:	fff3839b          	addiw	t2,t2,-1
    800022cc:	01c39393          	slli	t2,t2,0x1c
    800022d0:	fff38393          	addi	t2,t2,-1 # fffffffffffeffff <_end+0xffffffff7ffeacbf>
    800022d4:	00728463          	beq	t0,t2,800022dc <test_237>
    800022d8:	3d00106f          	j	800036a8 <fail>

00000000800022dc <test_237>:
    800022dc:	0ed00193          	li	gp,237
    800022e0:	0005b283          	ld	t0,0(a1)
    800022e4:	00858593          	addi	a1,a1,8
    800022e8:	0010039b          	addiw	t2,zero,1
    800022ec:	02039393          	slli	t2,t2,0x20
    800022f0:	00138393          	addi	t2,t2,1
    800022f4:	01039393          	slli	t2,t2,0x10
    800022f8:	00728463          	beq	t0,t2,80002300 <test_238>
    800022fc:	3ac0106f          	j	800036a8 <fail>

0000000080002300 <test_238>:
    80002300:	0ee00193          	li	gp,238
    80002304:	0005b283          	ld	t0,0(a1)
    80002308:	00858593          	addi	a1,a1,8
    8000230c:	000043b7          	lui	t2,0x4
    80002310:	0013839b          	addiw	t2,t2,1
    80002314:	01239393          	slli	t2,t2,0x12
    80002318:	ff838393          	addi	t2,t2,-8 # 3ff8 <_start-0x7fffc008>
    8000231c:	00728463          	beq	t0,t2,80002324 <test_239>
    80002320:	3880106f          	j	800036a8 <fail>

0000000080002324 <test_239>:
    80002324:	0ef00193          	li	gp,239
    80002328:	0005b283          	ld	t0,0(a1)
    8000232c:	00858593          	addi	a1,a1,8
    80002330:	000103b7          	lui	t2,0x10
    80002334:	0073839b          	addiw	t2,t2,7
    80002338:	01039393          	slli	t2,t2,0x10
    8000233c:	00728463          	beq	t0,t2,80002344 <test_240>
    80002340:	3680106f          	j	800036a8 <fail>

0000000080002344 <test_240>:
    80002344:	0f000193          	li	gp,240
    80002348:	0005b283          	ld	t0,0(a1)
    8000234c:	00858593          	addi	a1,a1,8
    80002350:	ffff03b7          	lui	t2,0xffff0
    80002354:	fff3839b          	addiw	t2,t2,-1
    80002358:	01c39393          	slli	t2,t2,0x1c
    8000235c:	fff38393          	addi	t2,t2,-1 # fffffffffffeffff <_end+0xffffffff7ffeacbf>
    80002360:	00728463          	beq	t0,t2,80002368 <test_241>
    80002364:	3440106f          	j	800036a8 <fail>

0000000080002368 <test_241>:
    80002368:	0f100193          	li	gp,241
    8000236c:	0005b283          	ld	t0,0(a1)
    80002370:	00858593          	addi	a1,a1,8
    80002374:	0010039b          	addiw	t2,zero,1
    80002378:	02039393          	slli	t2,t2,0x20
    8000237c:	00138393          	addi	t2,t2,1
    80002380:	01039393          	slli	t2,t2,0x10
    80002384:	00728463          	beq	t0,t2,8000238c <test_242>
    80002388:	3200106f          	j	800036a8 <fail>

000000008000238c <test_242>:
    8000238c:	0f200193          	li	gp,242
    80002390:	0005b283          	ld	t0,0(a1)
    80002394:	00858593          	addi	a1,a1,8
    80002398:	000043b7          	lui	t2,0x4
    8000239c:	0013839b          	addiw	t2,t2,1
    800023a0:	01239393          	slli	t2,t2,0x12
    800023a4:	ff838393          	addi	t2,t2,-8 # 3ff8 <_start-0x7fffc008>
    800023a8:	00728463          	beq	t0,t2,800023b0 <test_243>
    800023ac:	2fc0106f          	j	800036a8 <fail>

00000000800023b0 <test_243>:
    800023b0:	0f300193          	li	gp,243
    800023b4:	0005b283          	ld	t0,0(a1)
    800023b8:	00858593          	addi	a1,a1,8
    800023bc:	000103b7          	lui	t2,0x10
    800023c0:	0073839b          	addiw	t2,t2,7
    800023c4:	01039393          	slli	t2,t2,0x10
    800023c8:	00728463          	beq	t0,t2,800023d0 <test_244>
    800023cc:	2dc0106f          	j	800036a8 <fail>

00000000800023d0 <test_244>:
    800023d0:	0f400193          	li	gp,244
    800023d4:	0005b283          	ld	t0,0(a1)
    800023d8:	00858593          	addi	a1,a1,8
    800023dc:	ffff03b7          	lui	t2,0xffff0
    800023e0:	fff3839b          	addiw	t2,t2,-1
    800023e4:	01c39393          	slli	t2,t2,0x1c
    800023e8:	fff38393          	addi	t2,t2,-1 # fffffffffffeffff <_end+0xffffffff7ffeacbf>
    800023ec:	00728463          	beq	t0,t2,800023f4 <test_245>
    800023f0:	2b80106f          	j	800036a8 <fail>

00000000800023f4 <test_245>:
    800023f4:	0f500193          	li	gp,245
    800023f8:	0005b283          	ld	t0,0(a1)
    800023fc:	00858593          	addi	a1,a1,8
    80002400:	0010039b          	addiw	t2,zero,1
    80002404:	02039393          	slli	t2,t2,0x20
    80002408:	00138393          	addi	t2,t2,1
    8000240c:	01039393          	slli	t2,t2,0x10
    80002410:	00728463          	beq	t0,t2,80002418 <test_246>
    80002414:	2940106f          	j	800036a8 <fail>

0000000080002418 <test_246>:
    80002418:	0f600193          	li	gp,246
    8000241c:	0005b283          	ld	t0,0(a1)
    80002420:	00858593          	addi	a1,a1,8
    80002424:	000043b7          	lui	t2,0x4
    80002428:	0013839b          	addiw	t2,t2,1
    8000242c:	01239393          	slli	t2,t2,0x12
    80002430:	ff838393          	addi	t2,t2,-8 # 3ff8 <_start-0x7fffc008>
    80002434:	00728463          	beq	t0,t2,8000243c <test_247>
    80002438:	2700106f          	j	800036a8 <fail>

000000008000243c <test_247>:
    8000243c:	0f700193          	li	gp,247
    80002440:	0005b283          	ld	t0,0(a1)
    80002444:	00858593          	addi	a1,a1,8
    80002448:	000103b7          	lui	t2,0x10
    8000244c:	0073839b          	addiw	t2,t2,7
    80002450:	01039393          	slli	t2,t2,0x10
    80002454:	00728463          	beq	t0,t2,8000245c <test_248>
    80002458:	2500106f          	j	800036a8 <fail>

000000008000245c <test_248>:
    8000245c:	0f800193          	li	gp,248
    80002460:	0005b283          	ld	t0,0(a1)
    80002464:	00858593          	addi	a1,a1,8
    80002468:	ffff03b7          	lui	t2,0xffff0
    8000246c:	fff3839b          	addiw	t2,t2,-1
    80002470:	01c39393          	slli	t2,t2,0x1c
    80002474:	fff38393          	addi	t2,t2,-1 # fffffffffffeffff <_end+0xffffffff7ffeacbf>
    80002478:	00728463          	beq	t0,t2,80002480 <test_249>
    8000247c:	22c0106f          	j	800036a8 <fail>

0000000080002480 <test_249>:
    80002480:	0f900193          	li	gp,249
    80002484:	0005b283          	ld	t0,0(a1)
    80002488:	00858593          	addi	a1,a1,8
    8000248c:	0010039b          	addiw	t2,zero,1
    80002490:	02039393          	slli	t2,t2,0x20
    80002494:	00138393          	addi	t2,t2,1
    80002498:	01039393          	slli	t2,t2,0x10
    8000249c:	00728463          	beq	t0,t2,800024a4 <test_250>
    800024a0:	2080106f          	j	800036a8 <fail>

00000000800024a4 <test_250>:
    800024a4:	0fa00193          	li	gp,250
    800024a8:	0005b283          	ld	t0,0(a1)
    800024ac:	00858593          	addi	a1,a1,8
    800024b0:	000043b7          	lui	t2,0x4
    800024b4:	0013839b          	addiw	t2,t2,1
    800024b8:	01239393          	slli	t2,t2,0x12
    800024bc:	ff838393          	addi	t2,t2,-8 # 3ff8 <_start-0x7fffc008>
    800024c0:	00728463          	beq	t0,t2,800024c8 <test_251>
    800024c4:	1e40106f          	j	800036a8 <fail>

00000000800024c8 <test_251>:
    800024c8:	0fb00193          	li	gp,251
    800024cc:	0005b283          	ld	t0,0(a1)
    800024d0:	00858593          	addi	a1,a1,8
    800024d4:	000103b7          	lui	t2,0x10
    800024d8:	0073839b          	addiw	t2,t2,7
    800024dc:	01039393          	slli	t2,t2,0x10
    800024e0:	00728463          	beq	t0,t2,800024e8 <test_252>
    800024e4:	1c40106f          	j	800036a8 <fail>

00000000800024e8 <test_252>:
    800024e8:	0fc00193          	li	gp,252
    800024ec:	0005b283          	ld	t0,0(a1)
    800024f0:	00858593          	addi	a1,a1,8
    800024f4:	ffff03b7          	lui	t2,0xffff0
    800024f8:	fff3839b          	addiw	t2,t2,-1
    800024fc:	01c39393          	slli	t2,t2,0x1c
    80002500:	fff38393          	addi	t2,t2,-1 # fffffffffffeffff <_end+0xffffffff7ffeacbf>
    80002504:	00728463          	beq	t0,t2,8000250c <test_253>
    80002508:	1a00106f          	j	800036a8 <fail>

000000008000250c <test_253>:
    8000250c:	0fd00193          	li	gp,253
    80002510:	0005b283          	ld	t0,0(a1)
    80002514:	00858593          	addi	a1,a1,8
    80002518:	0010039b          	addiw	t2,zero,1
    8000251c:	02039393          	slli	t2,t2,0x20
    80002520:	00138393          	addi	t2,t2,1
    80002524:	01039393          	slli	t2,t2,0x10
    80002528:	00728463          	beq	t0,t2,80002530 <test_254>
    8000252c:	17c0106f          	j	800036a8 <fail>

0000000080002530 <test_254>:
    80002530:	0fe00193          	li	gp,254
    80002534:	0005b283          	ld	t0,0(a1)
    80002538:	00858593          	addi	a1,a1,8
    8000253c:	000043b7          	lui	t2,0x4
    80002540:	0013839b          	addiw	t2,t2,1
    80002544:	01239393          	slli	t2,t2,0x12
    80002548:	ff838393          	addi	t2,t2,-8 # 3ff8 <_start-0x7fffc008>
    8000254c:	00728463          	beq	t0,t2,80002554 <test_255>
    80002550:	1580106f          	j	800036a8 <fail>

0000000080002554 <test_255>:
    80002554:	0ff00193          	li	gp,255
    80002558:	0005b283          	ld	t0,0(a1)
    8000255c:	00858593          	addi	a1,a1,8
    80002560:	000103b7          	lui	t2,0x10
    80002564:	0073839b          	addiw	t2,t2,7
    80002568:	01039393          	slli	t2,t2,0x10
    8000256c:	00728463          	beq	t0,t2,80002574 <test_256>
    80002570:	1380106f          	j	800036a8 <fail>

0000000080002574 <test_256>:
    80002574:	10000193          	li	gp,256
    80002578:	0005b283          	ld	t0,0(a1)
    8000257c:	00858593          	addi	a1,a1,8
    80002580:	ffff03b7          	lui	t2,0xffff0
    80002584:	fff3839b          	addiw	t2,t2,-1
    80002588:	01c39393          	slli	t2,t2,0x1c
    8000258c:	fff38393          	addi	t2,t2,-1 # fffffffffffeffff <_end+0xffffffff7ffeacbf>
    80002590:	00728463          	beq	t0,t2,80002598 <test_257>
    80002594:	1140106f          	j	800036a8 <fail>

0000000080002598 <test_257>:
    80002598:	10100193          	li	gp,257
    8000259c:	0005b283          	ld	t0,0(a1)
    800025a0:	00858593          	addi	a1,a1,8
    800025a4:	0010039b          	addiw	t2,zero,1
    800025a8:	02039393          	slli	t2,t2,0x20
    800025ac:	00138393          	addi	t2,t2,1
    800025b0:	01039393          	slli	t2,t2,0x10
    800025b4:	00728463          	beq	t0,t2,800025bc <test_257+0x24>
    800025b8:	0f00106f          	j	800036a8 <fail>
    800025bc:	fff00293          	li	t0,-1
    800025c0:	0ca2f357          	vsetvli	t1,t0,e16,m4,ta,ma
    800025c4:	00003617          	auipc	a2,0x3
    800025c8:	c4c60613          	addi	a2,a2,-948 # 80005210 <tdat>
    800025cc:	02065807          	vle16.v	v16,(a2)
    800025d0:	0cb2f357          	vsetvli	t1,t0,e16,m8,ta,ma
    800025d4:	02065407          	vle16.v	v8,(a2)
    800025d8:	00003617          	auipc	a2,0x3
    800025dc:	c4060613          	addi	a2,a2,-960 # 80005218 <tdat+0x8>
    800025e0:	0ca2f357          	vsetvli	t1,t0,e16,m4,ta,ma
    800025e4:	02065c07          	vle16.v	v24,(a2)
    800025e8:	04000293          	li	t0,64
    800025ec:	0ca2f357          	vsetvli	t1,t0,e16,m4,ta,ma
    800025f0:	c30c0457          	vwredsumu.vs	v8,v16,v24
    800025f4:	fff00293          	li	t0,-1
    800025f8:	0cb2f357          	vsetvli	t1,t0,e16,m8,ta,ma
    800025fc:	00003597          	auipc	a1,0x3
    80002600:	a0458593          	addi	a1,a1,-1532 # 80005000 <begin_signature>
    80002604:	0205d427          	vse16.v	v8,(a1)

0000000080002608 <test_258>:
    80002608:	10200193          	li	gp,258
    8000260c:	0005b283          	ld	t0,0(a1)
    80002610:	00858593          	addi	a1,a1,8
    80002614:	000203b7          	lui	t2,0x20
    80002618:	0353839b          	addiw	t2,t2,53
    8000261c:	00f39393          	slli	t2,t2,0xf
    80002620:	00838393          	addi	t2,t2,8 # 20008 <_start-0x7ffdfff8>
    80002624:	00728463          	beq	t0,t2,8000262c <test_259>
    80002628:	0800106f          	j	800036a8 <fail>

000000008000262c <test_259>:
    8000262c:	10300193          	li	gp,259
    80002630:	0005b283          	ld	t0,0(a1)
    80002634:	00858593          	addi	a1,a1,8
    80002638:	000103b7          	lui	t2,0x10
    8000263c:	0073839b          	addiw	t2,t2,7
    80002640:	01039393          	slli	t2,t2,0x10
    80002644:	00728463          	beq	t0,t2,8000264c <test_260>
    80002648:	0600106f          	j	800036a8 <fail>

000000008000264c <test_260>:
    8000264c:	10400193          	li	gp,260
    80002650:	0005b283          	ld	t0,0(a1)
    80002654:	00858593          	addi	a1,a1,8
    80002658:	ffff03b7          	lui	t2,0xffff0
    8000265c:	fff3839b          	addiw	t2,t2,-1
    80002660:	01c39393          	slli	t2,t2,0x1c
    80002664:	fff38393          	addi	t2,t2,-1 # fffffffffffeffff <_end+0xffffffff7ffeacbf>
    80002668:	00728463          	beq	t0,t2,80002670 <test_261>
    8000266c:	03c0106f          	j	800036a8 <fail>

0000000080002670 <test_261>:
    80002670:	10500193          	li	gp,261
    80002674:	0005b283          	ld	t0,0(a1)
    80002678:	00858593          	addi	a1,a1,8
    8000267c:	0010039b          	addiw	t2,zero,1
    80002680:	02039393          	slli	t2,t2,0x20
    80002684:	00138393          	addi	t2,t2,1
    80002688:	01039393          	slli	t2,t2,0x10
    8000268c:	00728463          	beq	t0,t2,80002694 <test_262>
    80002690:	0180106f          	j	800036a8 <fail>

0000000080002694 <test_262>:
    80002694:	10600193          	li	gp,262
    80002698:	0005b283          	ld	t0,0(a1)
    8000269c:	00858593          	addi	a1,a1,8
    800026a0:	000043b7          	lui	t2,0x4
    800026a4:	0013839b          	addiw	t2,t2,1
    800026a8:	01239393          	slli	t2,t2,0x12
    800026ac:	ff838393          	addi	t2,t2,-8 # 3ff8 <_start-0x7fffc008>
    800026b0:	7e729ce3          	bne	t0,t2,800036a8 <fail>

00000000800026b4 <test_263>:
    800026b4:	10700193          	li	gp,263
    800026b8:	0005b283          	ld	t0,0(a1)
    800026bc:	00858593          	addi	a1,a1,8
    800026c0:	000103b7          	lui	t2,0x10
    800026c4:	0073839b          	addiw	t2,t2,7
    800026c8:	01039393          	slli	t2,t2,0x10
    800026cc:	7c729ee3          	bne	t0,t2,800036a8 <fail>

00000000800026d0 <test_264>:
    800026d0:	10800193          	li	gp,264
    800026d4:	0005b283          	ld	t0,0(a1)
    800026d8:	00858593          	addi	a1,a1,8
    800026dc:	ffff03b7          	lui	t2,0xffff0
    800026e0:	fff3839b          	addiw	t2,t2,-1
    800026e4:	01c39393          	slli	t2,t2,0x1c
    800026e8:	fff38393          	addi	t2,t2,-1 # fffffffffffeffff <_end+0xffffffff7ffeacbf>
    800026ec:	7a729ee3          	bne	t0,t2,800036a8 <fail>

00000000800026f0 <test_265>:
    800026f0:	10900193          	li	gp,265
    800026f4:	0005b283          	ld	t0,0(a1)
    800026f8:	00858593          	addi	a1,a1,8
    800026fc:	0010039b          	addiw	t2,zero,1
    80002700:	02039393          	slli	t2,t2,0x20
    80002704:	00138393          	addi	t2,t2,1
    80002708:	01039393          	slli	t2,t2,0x10
    8000270c:	78729ee3          	bne	t0,t2,800036a8 <fail>

0000000080002710 <test_266>:
    80002710:	10a00193          	li	gp,266
    80002714:	0005b283          	ld	t0,0(a1)
    80002718:	00858593          	addi	a1,a1,8
    8000271c:	000043b7          	lui	t2,0x4
    80002720:	0013839b          	addiw	t2,t2,1
    80002724:	01239393          	slli	t2,t2,0x12
    80002728:	ff838393          	addi	t2,t2,-8 # 3ff8 <_start-0x7fffc008>
    8000272c:	76729ee3          	bne	t0,t2,800036a8 <fail>

0000000080002730 <test_267>:
    80002730:	10b00193          	li	gp,267
    80002734:	0005b283          	ld	t0,0(a1)
    80002738:	00858593          	addi	a1,a1,8
    8000273c:	000103b7          	lui	t2,0x10
    80002740:	0073839b          	addiw	t2,t2,7
    80002744:	01039393          	slli	t2,t2,0x10
    80002748:	767290e3          	bne	t0,t2,800036a8 <fail>

000000008000274c <test_268>:
    8000274c:	10c00193          	li	gp,268
    80002750:	0005b283          	ld	t0,0(a1)
    80002754:	00858593          	addi	a1,a1,8
    80002758:	ffff03b7          	lui	t2,0xffff0
    8000275c:	fff3839b          	addiw	t2,t2,-1
    80002760:	01c39393          	slli	t2,t2,0x1c
    80002764:	fff38393          	addi	t2,t2,-1 # fffffffffffeffff <_end+0xffffffff7ffeacbf>
    80002768:	747290e3          	bne	t0,t2,800036a8 <fail>

000000008000276c <test_269>:
    8000276c:	10d00193          	li	gp,269
    80002770:	0005b283          	ld	t0,0(a1)
    80002774:	00858593          	addi	a1,a1,8
    80002778:	0010039b          	addiw	t2,zero,1
    8000277c:	02039393          	slli	t2,t2,0x20
    80002780:	00138393          	addi	t2,t2,1
    80002784:	01039393          	slli	t2,t2,0x10
    80002788:	727290e3          	bne	t0,t2,800036a8 <fail>

000000008000278c <test_270>:
    8000278c:	10e00193          	li	gp,270
    80002790:	0005b283          	ld	t0,0(a1)
    80002794:	00858593          	addi	a1,a1,8
    80002798:	000043b7          	lui	t2,0x4
    8000279c:	0013839b          	addiw	t2,t2,1
    800027a0:	01239393          	slli	t2,t2,0x12
    800027a4:	ff838393          	addi	t2,t2,-8 # 3ff8 <_start-0x7fffc008>
    800027a8:	707290e3          	bne	t0,t2,800036a8 <fail>

00000000800027ac <test_271>:
    800027ac:	10f00193          	li	gp,271
    800027b0:	0005b283          	ld	t0,0(a1)
    800027b4:	00858593          	addi	a1,a1,8
    800027b8:	000103b7          	lui	t2,0x10
    800027bc:	0073839b          	addiw	t2,t2,7
    800027c0:	01039393          	slli	t2,t2,0x10
    800027c4:	6e7292e3          	bne	t0,t2,800036a8 <fail>

00000000800027c8 <test_272>:
    800027c8:	11000193          	li	gp,272
    800027cc:	0005b283          	ld	t0,0(a1)
    800027d0:	00858593          	addi	a1,a1,8
    800027d4:	ffff03b7          	lui	t2,0xffff0
    800027d8:	fff3839b          	addiw	t2,t2,-1
    800027dc:	01c39393          	slli	t2,t2,0x1c
    800027e0:	fff38393          	addi	t2,t2,-1 # fffffffffffeffff <_end+0xffffffff7ffeacbf>
    800027e4:	6c7292e3          	bne	t0,t2,800036a8 <fail>

00000000800027e8 <test_273>:
    800027e8:	11100193          	li	gp,273
    800027ec:	0005b283          	ld	t0,0(a1)
    800027f0:	00858593          	addi	a1,a1,8
    800027f4:	0010039b          	addiw	t2,zero,1
    800027f8:	02039393          	slli	t2,t2,0x20
    800027fc:	00138393          	addi	t2,t2,1
    80002800:	01039393          	slli	t2,t2,0x10
    80002804:	6a7292e3          	bne	t0,t2,800036a8 <fail>

0000000080002808 <test_274>:
    80002808:	11200193          	li	gp,274
    8000280c:	0005b283          	ld	t0,0(a1)
    80002810:	00858593          	addi	a1,a1,8
    80002814:	000043b7          	lui	t2,0x4
    80002818:	0013839b          	addiw	t2,t2,1
    8000281c:	01239393          	slli	t2,t2,0x12
    80002820:	ff838393          	addi	t2,t2,-8 # 3ff8 <_start-0x7fffc008>
    80002824:	687292e3          	bne	t0,t2,800036a8 <fail>

0000000080002828 <test_275>:
    80002828:	11300193          	li	gp,275
    8000282c:	0005b283          	ld	t0,0(a1)
    80002830:	00858593          	addi	a1,a1,8
    80002834:	000103b7          	lui	t2,0x10
    80002838:	0073839b          	addiw	t2,t2,7
    8000283c:	01039393          	slli	t2,t2,0x10
    80002840:	667294e3          	bne	t0,t2,800036a8 <fail>

0000000080002844 <test_276>:
    80002844:	11400193          	li	gp,276
    80002848:	0005b283          	ld	t0,0(a1)
    8000284c:	00858593          	addi	a1,a1,8
    80002850:	ffff03b7          	lui	t2,0xffff0
    80002854:	fff3839b          	addiw	t2,t2,-1
    80002858:	01c39393          	slli	t2,t2,0x1c
    8000285c:	fff38393          	addi	t2,t2,-1 # fffffffffffeffff <_end+0xffffffff7ffeacbf>
    80002860:	647294e3          	bne	t0,t2,800036a8 <fail>

0000000080002864 <test_277>:
    80002864:	11500193          	li	gp,277
    80002868:	0005b283          	ld	t0,0(a1)
    8000286c:	00858593          	addi	a1,a1,8
    80002870:	0010039b          	addiw	t2,zero,1
    80002874:	02039393          	slli	t2,t2,0x20
    80002878:	00138393          	addi	t2,t2,1
    8000287c:	01039393          	slli	t2,t2,0x10
    80002880:	627294e3          	bne	t0,t2,800036a8 <fail>

0000000080002884 <test_278>:
    80002884:	11600193          	li	gp,278
    80002888:	0005b283          	ld	t0,0(a1)
    8000288c:	00858593          	addi	a1,a1,8
    80002890:	000043b7          	lui	t2,0x4
    80002894:	0013839b          	addiw	t2,t2,1
    80002898:	01239393          	slli	t2,t2,0x12
    8000289c:	ff838393          	addi	t2,t2,-8 # 3ff8 <_start-0x7fffc008>
    800028a0:	607294e3          	bne	t0,t2,800036a8 <fail>

00000000800028a4 <test_279>:
    800028a4:	11700193          	li	gp,279
    800028a8:	0005b283          	ld	t0,0(a1)
    800028ac:	00858593          	addi	a1,a1,8
    800028b0:	000103b7          	lui	t2,0x10
    800028b4:	0073839b          	addiw	t2,t2,7
    800028b8:	01039393          	slli	t2,t2,0x10
    800028bc:	5e7296e3          	bne	t0,t2,800036a8 <fail>

00000000800028c0 <test_280>:
    800028c0:	11800193          	li	gp,280
    800028c4:	0005b283          	ld	t0,0(a1)
    800028c8:	00858593          	addi	a1,a1,8
    800028cc:	ffff03b7          	lui	t2,0xffff0
    800028d0:	fff3839b          	addiw	t2,t2,-1
    800028d4:	01c39393          	slli	t2,t2,0x1c
    800028d8:	fff38393          	addi	t2,t2,-1 # fffffffffffeffff <_end+0xffffffff7ffeacbf>
    800028dc:	5c7296e3          	bne	t0,t2,800036a8 <fail>

00000000800028e0 <test_281>:
    800028e0:	11900193          	li	gp,281
    800028e4:	0005b283          	ld	t0,0(a1)
    800028e8:	00858593          	addi	a1,a1,8
    800028ec:	0010039b          	addiw	t2,zero,1
    800028f0:	02039393          	slli	t2,t2,0x20
    800028f4:	00138393          	addi	t2,t2,1
    800028f8:	01039393          	slli	t2,t2,0x10
    800028fc:	5a7296e3          	bne	t0,t2,800036a8 <fail>

0000000080002900 <test_282>:
    80002900:	11a00193          	li	gp,282
    80002904:	0005b283          	ld	t0,0(a1)
    80002908:	00858593          	addi	a1,a1,8
    8000290c:	000043b7          	lui	t2,0x4
    80002910:	0013839b          	addiw	t2,t2,1
    80002914:	01239393          	slli	t2,t2,0x12
    80002918:	ff838393          	addi	t2,t2,-8 # 3ff8 <_start-0x7fffc008>
    8000291c:	587296e3          	bne	t0,t2,800036a8 <fail>

0000000080002920 <test_283>:
    80002920:	11b00193          	li	gp,283
    80002924:	0005b283          	ld	t0,0(a1)
    80002928:	00858593          	addi	a1,a1,8
    8000292c:	000103b7          	lui	t2,0x10
    80002930:	0073839b          	addiw	t2,t2,7
    80002934:	01039393          	slli	t2,t2,0x10
    80002938:	567298e3          	bne	t0,t2,800036a8 <fail>

000000008000293c <test_284>:
    8000293c:	11c00193          	li	gp,284
    80002940:	0005b283          	ld	t0,0(a1)
    80002944:	00858593          	addi	a1,a1,8
    80002948:	ffff03b7          	lui	t2,0xffff0
    8000294c:	fff3839b          	addiw	t2,t2,-1
    80002950:	01c39393          	slli	t2,t2,0x1c
    80002954:	fff38393          	addi	t2,t2,-1 # fffffffffffeffff <_end+0xffffffff7ffeacbf>
    80002958:	547298e3          	bne	t0,t2,800036a8 <fail>

000000008000295c <test_285>:
    8000295c:	11d00193          	li	gp,285
    80002960:	0005b283          	ld	t0,0(a1)
    80002964:	00858593          	addi	a1,a1,8
    80002968:	0010039b          	addiw	t2,zero,1
    8000296c:	02039393          	slli	t2,t2,0x20
    80002970:	00138393          	addi	t2,t2,1
    80002974:	01039393          	slli	t2,t2,0x10
    80002978:	527298e3          	bne	t0,t2,800036a8 <fail>

000000008000297c <test_286>:
    8000297c:	11e00193          	li	gp,286
    80002980:	0005b283          	ld	t0,0(a1)
    80002984:	00858593          	addi	a1,a1,8
    80002988:	000043b7          	lui	t2,0x4
    8000298c:	0013839b          	addiw	t2,t2,1
    80002990:	01239393          	slli	t2,t2,0x12
    80002994:	ff838393          	addi	t2,t2,-8 # 3ff8 <_start-0x7fffc008>
    80002998:	507298e3          	bne	t0,t2,800036a8 <fail>

000000008000299c <test_287>:
    8000299c:	11f00193          	li	gp,287
    800029a0:	0005b283          	ld	t0,0(a1)
    800029a4:	00858593          	addi	a1,a1,8
    800029a8:	000103b7          	lui	t2,0x10
    800029ac:	0073839b          	addiw	t2,t2,7
    800029b0:	01039393          	slli	t2,t2,0x10
    800029b4:	4e729ae3          	bne	t0,t2,800036a8 <fail>

00000000800029b8 <test_288>:
    800029b8:	12000193          	li	gp,288
    800029bc:	0005b283          	ld	t0,0(a1)
    800029c0:	00858593          	addi	a1,a1,8
    800029c4:	ffff03b7          	lui	t2,0xffff0
    800029c8:	fff3839b          	addiw	t2,t2,-1
    800029cc:	01c39393          	slli	t2,t2,0x1c
    800029d0:	fff38393          	addi	t2,t2,-1 # fffffffffffeffff <_end+0xffffffff7ffeacbf>
    800029d4:	4c729ae3          	bne	t0,t2,800036a8 <fail>

00000000800029d8 <test_289>:
    800029d8:	12100193          	li	gp,289
    800029dc:	0005b283          	ld	t0,0(a1)
    800029e0:	00858593          	addi	a1,a1,8
    800029e4:	0010039b          	addiw	t2,zero,1
    800029e8:	02039393          	slli	t2,t2,0x20
    800029ec:	00138393          	addi	t2,t2,1
    800029f0:	01039393          	slli	t2,t2,0x10
    800029f4:	4a729ae3          	bne	t0,t2,800036a8 <fail>
    800029f8:	fff00293          	li	t0,-1
    800029fc:	0ca2f357          	vsetvli	t1,t0,e16,m4,ta,ma
    80002a00:	00003617          	auipc	a2,0x3
    80002a04:	81060613          	addi	a2,a2,-2032 # 80005210 <tdat>
    80002a08:	02065807          	vle16.v	v16,(a2)
    80002a0c:	0cb2f357          	vsetvli	t1,t0,e16,m8,ta,ma
    80002a10:	02065407          	vle16.v	v8,(a2)
    80002a14:	00003617          	auipc	a2,0x3
    80002a18:	80460613          	addi	a2,a2,-2044 # 80005218 <tdat+0x8>
    80002a1c:	0ca2f357          	vsetvli	t1,t0,e16,m4,ta,ma
    80002a20:	02065c07          	vle16.v	v24,(a2)
    80002a24:	04000293          	li	t0,64
    80002a28:	08a2f357          	vsetvli	t1,t0,e16,m4,tu,ma
    80002a2c:	c30c0457          	vwredsumu.vs	v8,v16,v24
    80002a30:	fff00293          	li	t0,-1
    80002a34:	0cb2f357          	vsetvli	t1,t0,e16,m8,ta,ma
    80002a38:	00002597          	auipc	a1,0x2
    80002a3c:	5c858593          	addi	a1,a1,1480 # 80005000 <begin_signature>
    80002a40:	0205d427          	vse16.v	v8,(a1)

0000000080002a44 <test_290>:
    80002a44:	12200193          	li	gp,290
    80002a48:	0005b283          	ld	t0,0(a1)
    80002a4c:	00858593          	addi	a1,a1,8
    80002a50:	000203b7          	lui	t2,0x20
    80002a54:	0353839b          	addiw	t2,t2,53
    80002a58:	00f39393          	slli	t2,t2,0xf
    80002a5c:	00838393          	addi	t2,t2,8 # 20008 <_start-0x7ffdfff8>
    80002a60:	447294e3          	bne	t0,t2,800036a8 <fail>

0000000080002a64 <test_291>:
    80002a64:	12300193          	li	gp,291
    80002a68:	0005b283          	ld	t0,0(a1)
    80002a6c:	00858593          	addi	a1,a1,8
    80002a70:	000103b7          	lui	t2,0x10
    80002a74:	0073839b          	addiw	t2,t2,7
    80002a78:	01039393          	slli	t2,t2,0x10
    80002a7c:	427296e3          	bne	t0,t2,800036a8 <fail>

0000000080002a80 <test_292>:
    80002a80:	12400193          	li	gp,292
    80002a84:	0005b283          	ld	t0,0(a1)
    80002a88:	00858593          	addi	a1,a1,8
    80002a8c:	ffff03b7          	lui	t2,0xffff0
    80002a90:	fff3839b          	addiw	t2,t2,-1
    80002a94:	01c39393          	slli	t2,t2,0x1c
    80002a98:	fff38393          	addi	t2,t2,-1 # fffffffffffeffff <_end+0xffffffff7ffeacbf>
    80002a9c:	407296e3          	bne	t0,t2,800036a8 <fail>

0000000080002aa0 <test_293>:
    80002aa0:	12500193          	li	gp,293
    80002aa4:	0005b283          	ld	t0,0(a1)
    80002aa8:	00858593          	addi	a1,a1,8
    80002aac:	0010039b          	addiw	t2,zero,1
    80002ab0:	02039393          	slli	t2,t2,0x20
    80002ab4:	00138393          	addi	t2,t2,1
    80002ab8:	01039393          	slli	t2,t2,0x10
    80002abc:	3e7296e3          	bne	t0,t2,800036a8 <fail>

0000000080002ac0 <test_294>:
    80002ac0:	12600193          	li	gp,294
    80002ac4:	0005b283          	ld	t0,0(a1)
    80002ac8:	00858593          	addi	a1,a1,8
    80002acc:	000043b7          	lui	t2,0x4
    80002ad0:	0013839b          	addiw	t2,t2,1
    80002ad4:	01239393          	slli	t2,t2,0x12
    80002ad8:	ff838393          	addi	t2,t2,-8 # 3ff8 <_start-0x7fffc008>
    80002adc:	3c7296e3          	bne	t0,t2,800036a8 <fail>

0000000080002ae0 <test_295>:
    80002ae0:	12700193          	li	gp,295
    80002ae4:	0005b283          	ld	t0,0(a1)
    80002ae8:	00858593          	addi	a1,a1,8
    80002aec:	000103b7          	lui	t2,0x10
    80002af0:	0073839b          	addiw	t2,t2,7
    80002af4:	01039393          	slli	t2,t2,0x10
    80002af8:	3a7298e3          	bne	t0,t2,800036a8 <fail>

0000000080002afc <test_296>:
    80002afc:	12800193          	li	gp,296
    80002b00:	0005b283          	ld	t0,0(a1)
    80002b04:	00858593          	addi	a1,a1,8
    80002b08:	ffff03b7          	lui	t2,0xffff0
    80002b0c:	fff3839b          	addiw	t2,t2,-1
    80002b10:	01c39393          	slli	t2,t2,0x1c
    80002b14:	fff38393          	addi	t2,t2,-1 # fffffffffffeffff <_end+0xffffffff7ffeacbf>
    80002b18:	387298e3          	bne	t0,t2,800036a8 <fail>

0000000080002b1c <test_297>:
    80002b1c:	12900193          	li	gp,297
    80002b20:	0005b283          	ld	t0,0(a1)
    80002b24:	00858593          	addi	a1,a1,8
    80002b28:	0010039b          	addiw	t2,zero,1
    80002b2c:	02039393          	slli	t2,t2,0x20
    80002b30:	00138393          	addi	t2,t2,1
    80002b34:	01039393          	slli	t2,t2,0x10
    80002b38:	367298e3          	bne	t0,t2,800036a8 <fail>

0000000080002b3c <test_298>:
    80002b3c:	12a00193          	li	gp,298
    80002b40:	0005b283          	ld	t0,0(a1)
    80002b44:	00858593          	addi	a1,a1,8
    80002b48:	000043b7          	lui	t2,0x4
    80002b4c:	0013839b          	addiw	t2,t2,1
    80002b50:	01239393          	slli	t2,t2,0x12
    80002b54:	ff838393          	addi	t2,t2,-8 # 3ff8 <_start-0x7fffc008>
    80002b58:	347298e3          	bne	t0,t2,800036a8 <fail>

0000000080002b5c <test_299>:
    80002b5c:	12b00193          	li	gp,299
    80002b60:	0005b283          	ld	t0,0(a1)
    80002b64:	00858593          	addi	a1,a1,8
    80002b68:	000103b7          	lui	t2,0x10
    80002b6c:	0073839b          	addiw	t2,t2,7
    80002b70:	01039393          	slli	t2,t2,0x10
    80002b74:	32729ae3          	bne	t0,t2,800036a8 <fail>

0000000080002b78 <test_300>:
    80002b78:	12c00193          	li	gp,300
    80002b7c:	0005b283          	ld	t0,0(a1)
    80002b80:	00858593          	addi	a1,a1,8
    80002b84:	ffff03b7          	lui	t2,0xffff0
    80002b88:	fff3839b          	addiw	t2,t2,-1
    80002b8c:	01c39393          	slli	t2,t2,0x1c
    80002b90:	fff38393          	addi	t2,t2,-1 # fffffffffffeffff <_end+0xffffffff7ffeacbf>
    80002b94:	30729ae3          	bne	t0,t2,800036a8 <fail>

0000000080002b98 <test_301>:
    80002b98:	12d00193          	li	gp,301
    80002b9c:	0005b283          	ld	t0,0(a1)
    80002ba0:	00858593          	addi	a1,a1,8
    80002ba4:	0010039b          	addiw	t2,zero,1
    80002ba8:	02039393          	slli	t2,t2,0x20
    80002bac:	00138393          	addi	t2,t2,1
    80002bb0:	01039393          	slli	t2,t2,0x10
    80002bb4:	2e729ae3          	bne	t0,t2,800036a8 <fail>

0000000080002bb8 <test_302>:
    80002bb8:	12e00193          	li	gp,302
    80002bbc:	0005b283          	ld	t0,0(a1)
    80002bc0:	00858593          	addi	a1,a1,8
    80002bc4:	000043b7          	lui	t2,0x4
    80002bc8:	0013839b          	addiw	t2,t2,1
    80002bcc:	01239393          	slli	t2,t2,0x12
    80002bd0:	ff838393          	addi	t2,t2,-8 # 3ff8 <_start-0x7fffc008>
    80002bd4:	2c729ae3          	bne	t0,t2,800036a8 <fail>

0000000080002bd8 <test_303>:
    80002bd8:	12f00193          	li	gp,303
    80002bdc:	0005b283          	ld	t0,0(a1)
    80002be0:	00858593          	addi	a1,a1,8
    80002be4:	000103b7          	lui	t2,0x10
    80002be8:	0073839b          	addiw	t2,t2,7
    80002bec:	01039393          	slli	t2,t2,0x10
    80002bf0:	2a729ce3          	bne	t0,t2,800036a8 <fail>

0000000080002bf4 <test_304>:
    80002bf4:	13000193          	li	gp,304
    80002bf8:	0005b283          	ld	t0,0(a1)
    80002bfc:	00858593          	addi	a1,a1,8
    80002c00:	ffff03b7          	lui	t2,0xffff0
    80002c04:	fff3839b          	addiw	t2,t2,-1
    80002c08:	01c39393          	slli	t2,t2,0x1c
    80002c0c:	fff38393          	addi	t2,t2,-1 # fffffffffffeffff <_end+0xffffffff7ffeacbf>
    80002c10:	28729ce3          	bne	t0,t2,800036a8 <fail>

0000000080002c14 <test_305>:
    80002c14:	13100193          	li	gp,305
    80002c18:	0005b283          	ld	t0,0(a1)
    80002c1c:	00858593          	addi	a1,a1,8
    80002c20:	0010039b          	addiw	t2,zero,1
    80002c24:	02039393          	slli	t2,t2,0x20
    80002c28:	00138393          	addi	t2,t2,1
    80002c2c:	01039393          	slli	t2,t2,0x10
    80002c30:	26729ce3          	bne	t0,t2,800036a8 <fail>

0000000080002c34 <test_306>:
    80002c34:	13200193          	li	gp,306
    80002c38:	0005b283          	ld	t0,0(a1)
    80002c3c:	00858593          	addi	a1,a1,8
    80002c40:	000043b7          	lui	t2,0x4
    80002c44:	0013839b          	addiw	t2,t2,1
    80002c48:	01239393          	slli	t2,t2,0x12
    80002c4c:	ff838393          	addi	t2,t2,-8 # 3ff8 <_start-0x7fffc008>
    80002c50:	24729ce3          	bne	t0,t2,800036a8 <fail>

0000000080002c54 <test_307>:
    80002c54:	13300193          	li	gp,307
    80002c58:	0005b283          	ld	t0,0(a1)
    80002c5c:	00858593          	addi	a1,a1,8
    80002c60:	000103b7          	lui	t2,0x10
    80002c64:	0073839b          	addiw	t2,t2,7
    80002c68:	01039393          	slli	t2,t2,0x10
    80002c6c:	22729ee3          	bne	t0,t2,800036a8 <fail>

0000000080002c70 <test_308>:
    80002c70:	13400193          	li	gp,308
    80002c74:	0005b283          	ld	t0,0(a1)
    80002c78:	00858593          	addi	a1,a1,8
    80002c7c:	ffff03b7          	lui	t2,0xffff0
    80002c80:	fff3839b          	addiw	t2,t2,-1
    80002c84:	01c39393          	slli	t2,t2,0x1c
    80002c88:	fff38393          	addi	t2,t2,-1 # fffffffffffeffff <_end+0xffffffff7ffeacbf>
    80002c8c:	20729ee3          	bne	t0,t2,800036a8 <fail>

0000000080002c90 <test_309>:
    80002c90:	13500193          	li	gp,309
    80002c94:	0005b283          	ld	t0,0(a1)
    80002c98:	00858593          	addi	a1,a1,8
    80002c9c:	0010039b          	addiw	t2,zero,1
    80002ca0:	02039393          	slli	t2,t2,0x20
    80002ca4:	00138393          	addi	t2,t2,1
    80002ca8:	01039393          	slli	t2,t2,0x10
    80002cac:	1e729ee3          	bne	t0,t2,800036a8 <fail>

0000000080002cb0 <test_310>:
    80002cb0:	13600193          	li	gp,310
    80002cb4:	0005b283          	ld	t0,0(a1)
    80002cb8:	00858593          	addi	a1,a1,8
    80002cbc:	000043b7          	lui	t2,0x4
    80002cc0:	0013839b          	addiw	t2,t2,1
    80002cc4:	01239393          	slli	t2,t2,0x12
    80002cc8:	ff838393          	addi	t2,t2,-8 # 3ff8 <_start-0x7fffc008>
    80002ccc:	1c729ee3          	bne	t0,t2,800036a8 <fail>

0000000080002cd0 <test_311>:
    80002cd0:	13700193          	li	gp,311
    80002cd4:	0005b283          	ld	t0,0(a1)
    80002cd8:	00858593          	addi	a1,a1,8
    80002cdc:	000103b7          	lui	t2,0x10
    80002ce0:	0073839b          	addiw	t2,t2,7
    80002ce4:	01039393          	slli	t2,t2,0x10
    80002ce8:	1c7290e3          	bne	t0,t2,800036a8 <fail>

0000000080002cec <test_312>:
    80002cec:	13800193          	li	gp,312
    80002cf0:	0005b283          	ld	t0,0(a1)
    80002cf4:	00858593          	addi	a1,a1,8
    80002cf8:	ffff03b7          	lui	t2,0xffff0
    80002cfc:	fff3839b          	addiw	t2,t2,-1
    80002d00:	01c39393          	slli	t2,t2,0x1c
    80002d04:	fff38393          	addi	t2,t2,-1 # fffffffffffeffff <_end+0xffffffff7ffeacbf>
    80002d08:	1a7290e3          	bne	t0,t2,800036a8 <fail>

0000000080002d0c <test_313>:
    80002d0c:	13900193          	li	gp,313
    80002d10:	0005b283          	ld	t0,0(a1)
    80002d14:	00858593          	addi	a1,a1,8
    80002d18:	0010039b          	addiw	t2,zero,1
    80002d1c:	02039393          	slli	t2,t2,0x20
    80002d20:	00138393          	addi	t2,t2,1
    80002d24:	01039393          	slli	t2,t2,0x10
    80002d28:	187290e3          	bne	t0,t2,800036a8 <fail>

0000000080002d2c <test_314>:
    80002d2c:	13a00193          	li	gp,314
    80002d30:	0005b283          	ld	t0,0(a1)
    80002d34:	00858593          	addi	a1,a1,8
    80002d38:	000043b7          	lui	t2,0x4
    80002d3c:	0013839b          	addiw	t2,t2,1
    80002d40:	01239393          	slli	t2,t2,0x12
    80002d44:	ff838393          	addi	t2,t2,-8 # 3ff8 <_start-0x7fffc008>
    80002d48:	167290e3          	bne	t0,t2,800036a8 <fail>

0000000080002d4c <test_315>:
    80002d4c:	13b00193          	li	gp,315
    80002d50:	0005b283          	ld	t0,0(a1)
    80002d54:	00858593          	addi	a1,a1,8
    80002d58:	000103b7          	lui	t2,0x10
    80002d5c:	0073839b          	addiw	t2,t2,7
    80002d60:	01039393          	slli	t2,t2,0x10
    80002d64:	147292e3          	bne	t0,t2,800036a8 <fail>

0000000080002d68 <test_316>:
    80002d68:	13c00193          	li	gp,316
    80002d6c:	0005b283          	ld	t0,0(a1)
    80002d70:	00858593          	addi	a1,a1,8
    80002d74:	ffff03b7          	lui	t2,0xffff0
    80002d78:	fff3839b          	addiw	t2,t2,-1
    80002d7c:	01c39393          	slli	t2,t2,0x1c
    80002d80:	fff38393          	addi	t2,t2,-1 # fffffffffffeffff <_end+0xffffffff7ffeacbf>
    80002d84:	127292e3          	bne	t0,t2,800036a8 <fail>

0000000080002d88 <test_317>:
    80002d88:	13d00193          	li	gp,317
    80002d8c:	0005b283          	ld	t0,0(a1)
    80002d90:	00858593          	addi	a1,a1,8
    80002d94:	0010039b          	addiw	t2,zero,1
    80002d98:	02039393          	slli	t2,t2,0x20
    80002d9c:	00138393          	addi	t2,t2,1
    80002da0:	01039393          	slli	t2,t2,0x10
    80002da4:	107292e3          	bne	t0,t2,800036a8 <fail>

0000000080002da8 <test_318>:
    80002da8:	13e00193          	li	gp,318
    80002dac:	0005b283          	ld	t0,0(a1)
    80002db0:	00858593          	addi	a1,a1,8
    80002db4:	000043b7          	lui	t2,0x4
    80002db8:	0013839b          	addiw	t2,t2,1
    80002dbc:	01239393          	slli	t2,t2,0x12
    80002dc0:	ff838393          	addi	t2,t2,-8 # 3ff8 <_start-0x7fffc008>
    80002dc4:	0e7292e3          	bne	t0,t2,800036a8 <fail>

0000000080002dc8 <test_319>:
    80002dc8:	13f00193          	li	gp,319
    80002dcc:	0005b283          	ld	t0,0(a1)
    80002dd0:	00858593          	addi	a1,a1,8
    80002dd4:	000103b7          	lui	t2,0x10
    80002dd8:	0073839b          	addiw	t2,t2,7
    80002ddc:	01039393          	slli	t2,t2,0x10
    80002de0:	0c7294e3          	bne	t0,t2,800036a8 <fail>

0000000080002de4 <test_320>:
    80002de4:	14000193          	li	gp,320
    80002de8:	0005b283          	ld	t0,0(a1)
    80002dec:	00858593          	addi	a1,a1,8
    80002df0:	ffff03b7          	lui	t2,0xffff0
    80002df4:	fff3839b          	addiw	t2,t2,-1
    80002df8:	01c39393          	slli	t2,t2,0x1c
    80002dfc:	fff38393          	addi	t2,t2,-1 # fffffffffffeffff <_end+0xffffffff7ffeacbf>
    80002e00:	0a7294e3          	bne	t0,t2,800036a8 <fail>

0000000080002e04 <test_321>:
    80002e04:	14100193          	li	gp,321
    80002e08:	0005b283          	ld	t0,0(a1)
    80002e0c:	00858593          	addi	a1,a1,8
    80002e10:	0010039b          	addiw	t2,zero,1
    80002e14:	02039393          	slli	t2,t2,0x20
    80002e18:	00138393          	addi	t2,t2,1
    80002e1c:	01039393          	slli	t2,t2,0x10
    80002e20:	087294e3          	bne	t0,t2,800036a8 <fail>
    80002e24:	fff00293          	li	t0,-1
    80002e28:	0ca2f357          	vsetvli	t1,t0,e16,m4,ta,ma
    80002e2c:	00002617          	auipc	a2,0x2
    80002e30:	3e460613          	addi	a2,a2,996 # 80005210 <tdat>
    80002e34:	02065807          	vle16.v	v16,(a2)
    80002e38:	0cb2f357          	vsetvli	t1,t0,e16,m8,ta,ma
    80002e3c:	02065407          	vle16.v	v8,(a2)
    80002e40:	00002617          	auipc	a2,0x2
    80002e44:	3d860613          	addi	a2,a2,984 # 80005218 <tdat+0x8>
    80002e48:	0ca2f357          	vsetvli	t1,t0,e16,m4,ta,ma
    80002e4c:	02065c07          	vle16.v	v24,(a2)
    80002e50:	fff00293          	li	t0,-1
    80002e54:	0c02f357          	vsetvli	t1,t0,e8,m1,ta,ma
    80002e58:	00002697          	auipc	a3,0x2
    80002e5c:	4c068693          	addi	a3,a3,1216 # 80005318 <mask>
    80002e60:	02068007          	vle8.v	v0,(a3)
    80002e64:	04000293          	li	t0,64
    80002e68:	0ca2f357          	vsetvli	t1,t0,e16,m4,ta,ma
    80002e6c:	c10c0457          	vwredsumu.vs	v8,v16,v24,v0.t
    80002e70:	fff00293          	li	t0,-1
    80002e74:	0cb2f357          	vsetvli	t1,t0,e16,m8,ta,ma
    80002e78:	00002597          	auipc	a1,0x2
    80002e7c:	18858593          	addi	a1,a1,392 # 80005000 <begin_signature>
    80002e80:	0205d427          	vse16.v	v8,(a1)

0000000080002e84 <test_322>:
    80002e84:	14200193          	li	gp,322
    80002e88:	0005b283          	ld	t0,0(a1)
    80002e8c:	00858593          	addi	a1,a1,8
    80002e90:	000403b7          	lui	t2,0x40
    80002e94:	04b3839b          	addiw	t2,t2,75
    80002e98:	00e39393          	slli	t2,t2,0xe
    80002e9c:	fe038393          	addi	t2,t2,-32 # 3ffe0 <_start-0x7ffc0020>
    80002ea0:	007294e3          	bne	t0,t2,800036a8 <fail>

0000000080002ea4 <test_323>:
    80002ea4:	14300193          	li	gp,323
    80002ea8:	0005b283          	ld	t0,0(a1)
    80002eac:	00858593          	addi	a1,a1,8
    80002eb0:	000103b7          	lui	t2,0x10
    80002eb4:	0073839b          	addiw	t2,t2,7
    80002eb8:	01039393          	slli	t2,t2,0x10
    80002ebc:	7e729663          	bne	t0,t2,800036a8 <fail>

0000000080002ec0 <test_324>:
    80002ec0:	14400193          	li	gp,324
    80002ec4:	0005b283          	ld	t0,0(a1)
    80002ec8:	00858593          	addi	a1,a1,8
    80002ecc:	ffff03b7          	lui	t2,0xffff0
    80002ed0:	fff3839b          	addiw	t2,t2,-1
    80002ed4:	01c39393          	slli	t2,t2,0x1c
    80002ed8:	fff38393          	addi	t2,t2,-1 # fffffffffffeffff <_end+0xffffffff7ffeacbf>
    80002edc:	7c729663          	bne	t0,t2,800036a8 <fail>

0000000080002ee0 <test_325>:
    80002ee0:	14500193          	li	gp,325
    80002ee4:	0005b283          	ld	t0,0(a1)
    80002ee8:	00858593          	addi	a1,a1,8
    80002eec:	0010039b          	addiw	t2,zero,1
    80002ef0:	02039393          	slli	t2,t2,0x20
    80002ef4:	00138393          	addi	t2,t2,1
    80002ef8:	01039393          	slli	t2,t2,0x10
    80002efc:	7a729663          	bne	t0,t2,800036a8 <fail>

0000000080002f00 <test_326>:
    80002f00:	14600193          	li	gp,326
    80002f04:	0005b283          	ld	t0,0(a1)
    80002f08:	00858593          	addi	a1,a1,8
    80002f0c:	000043b7          	lui	t2,0x4
    80002f10:	0013839b          	addiw	t2,t2,1
    80002f14:	01239393          	slli	t2,t2,0x12
    80002f18:	ff838393          	addi	t2,t2,-8 # 3ff8 <_start-0x7fffc008>
    80002f1c:	78729663          	bne	t0,t2,800036a8 <fail>

0000000080002f20 <test_327>:
    80002f20:	14700193          	li	gp,327
    80002f24:	0005b283          	ld	t0,0(a1)
    80002f28:	00858593          	addi	a1,a1,8
    80002f2c:	000103b7          	lui	t2,0x10
    80002f30:	0073839b          	addiw	t2,t2,7
    80002f34:	01039393          	slli	t2,t2,0x10
    80002f38:	76729863          	bne	t0,t2,800036a8 <fail>

0000000080002f3c <test_328>:
    80002f3c:	14800193          	li	gp,328
    80002f40:	0005b283          	ld	t0,0(a1)
    80002f44:	00858593          	addi	a1,a1,8
    80002f48:	ffff03b7          	lui	t2,0xffff0
    80002f4c:	fff3839b          	addiw	t2,t2,-1
    80002f50:	01c39393          	slli	t2,t2,0x1c
    80002f54:	fff38393          	addi	t2,t2,-1 # fffffffffffeffff <_end+0xffffffff7ffeacbf>
    80002f58:	74729863          	bne	t0,t2,800036a8 <fail>

0000000080002f5c <test_329>:
    80002f5c:	14900193          	li	gp,329
    80002f60:	0005b283          	ld	t0,0(a1)
    80002f64:	00858593          	addi	a1,a1,8
    80002f68:	0010039b          	addiw	t2,zero,1
    80002f6c:	02039393          	slli	t2,t2,0x20
    80002f70:	00138393          	addi	t2,t2,1
    80002f74:	01039393          	slli	t2,t2,0x10
    80002f78:	72729863          	bne	t0,t2,800036a8 <fail>

0000000080002f7c <test_330>:
    80002f7c:	14a00193          	li	gp,330
    80002f80:	0005b283          	ld	t0,0(a1)
    80002f84:	00858593          	addi	a1,a1,8
    80002f88:	000043b7          	lui	t2,0x4
    80002f8c:	0013839b          	addiw	t2,t2,1
    80002f90:	01239393          	slli	t2,t2,0x12
    80002f94:	ff838393          	addi	t2,t2,-8 # 3ff8 <_start-0x7fffc008>
    80002f98:	70729863          	bne	t0,t2,800036a8 <fail>

0000000080002f9c <test_331>:
    80002f9c:	14b00193          	li	gp,331
    80002fa0:	0005b283          	ld	t0,0(a1)
    80002fa4:	00858593          	addi	a1,a1,8
    80002fa8:	000103b7          	lui	t2,0x10
    80002fac:	0073839b          	addiw	t2,t2,7
    80002fb0:	01039393          	slli	t2,t2,0x10
    80002fb4:	6e729a63          	bne	t0,t2,800036a8 <fail>

0000000080002fb8 <test_332>:
    80002fb8:	14c00193          	li	gp,332
    80002fbc:	0005b283          	ld	t0,0(a1)
    80002fc0:	00858593          	addi	a1,a1,8
    80002fc4:	ffff03b7          	lui	t2,0xffff0
    80002fc8:	fff3839b          	addiw	t2,t2,-1
    80002fcc:	01c39393          	slli	t2,t2,0x1c
    80002fd0:	fff38393          	addi	t2,t2,-1 # fffffffffffeffff <_end+0xffffffff7ffeacbf>
    80002fd4:	6c729a63          	bne	t0,t2,800036a8 <fail>

0000000080002fd8 <test_333>:
    80002fd8:	14d00193          	li	gp,333
    80002fdc:	0005b283          	ld	t0,0(a1)
    80002fe0:	00858593          	addi	a1,a1,8
    80002fe4:	0010039b          	addiw	t2,zero,1
    80002fe8:	02039393          	slli	t2,t2,0x20
    80002fec:	00138393          	addi	t2,t2,1
    80002ff0:	01039393          	slli	t2,t2,0x10
    80002ff4:	6a729a63          	bne	t0,t2,800036a8 <fail>

0000000080002ff8 <test_334>:
    80002ff8:	14e00193          	li	gp,334
    80002ffc:	0005b283          	ld	t0,0(a1)
    80003000:	00858593          	addi	a1,a1,8
    80003004:	000043b7          	lui	t2,0x4
    80003008:	0013839b          	addiw	t2,t2,1
    8000300c:	01239393          	slli	t2,t2,0x12
    80003010:	ff838393          	addi	t2,t2,-8 # 3ff8 <_start-0x7fffc008>
    80003014:	68729a63          	bne	t0,t2,800036a8 <fail>

0000000080003018 <test_335>:
    80003018:	14f00193          	li	gp,335
    8000301c:	0005b283          	ld	t0,0(a1)
    80003020:	00858593          	addi	a1,a1,8
    80003024:	000103b7          	lui	t2,0x10
    80003028:	0073839b          	addiw	t2,t2,7
    8000302c:	01039393          	slli	t2,t2,0x10
    80003030:	66729c63          	bne	t0,t2,800036a8 <fail>

0000000080003034 <test_336>:
    80003034:	15000193          	li	gp,336
    80003038:	0005b283          	ld	t0,0(a1)
    8000303c:	00858593          	addi	a1,a1,8
    80003040:	ffff03b7          	lui	t2,0xffff0
    80003044:	fff3839b          	addiw	t2,t2,-1
    80003048:	01c39393          	slli	t2,t2,0x1c
    8000304c:	fff38393          	addi	t2,t2,-1 # fffffffffffeffff <_end+0xffffffff7ffeacbf>
    80003050:	64729c63          	bne	t0,t2,800036a8 <fail>

0000000080003054 <test_337>:
    80003054:	15100193          	li	gp,337
    80003058:	0005b283          	ld	t0,0(a1)
    8000305c:	00858593          	addi	a1,a1,8
    80003060:	0010039b          	addiw	t2,zero,1
    80003064:	02039393          	slli	t2,t2,0x20
    80003068:	00138393          	addi	t2,t2,1
    8000306c:	01039393          	slli	t2,t2,0x10
    80003070:	62729c63          	bne	t0,t2,800036a8 <fail>

0000000080003074 <test_338>:
    80003074:	15200193          	li	gp,338
    80003078:	0005b283          	ld	t0,0(a1)
    8000307c:	00858593          	addi	a1,a1,8
    80003080:	000043b7          	lui	t2,0x4
    80003084:	0013839b          	addiw	t2,t2,1
    80003088:	01239393          	slli	t2,t2,0x12
    8000308c:	ff838393          	addi	t2,t2,-8 # 3ff8 <_start-0x7fffc008>
    80003090:	60729c63          	bne	t0,t2,800036a8 <fail>

0000000080003094 <test_339>:
    80003094:	15300193          	li	gp,339
    80003098:	0005b283          	ld	t0,0(a1)
    8000309c:	00858593          	addi	a1,a1,8
    800030a0:	000103b7          	lui	t2,0x10
    800030a4:	0073839b          	addiw	t2,t2,7
    800030a8:	01039393          	slli	t2,t2,0x10
    800030ac:	5e729e63          	bne	t0,t2,800036a8 <fail>

00000000800030b0 <test_340>:
    800030b0:	15400193          	li	gp,340
    800030b4:	0005b283          	ld	t0,0(a1)
    800030b8:	00858593          	addi	a1,a1,8
    800030bc:	ffff03b7          	lui	t2,0xffff0
    800030c0:	fff3839b          	addiw	t2,t2,-1
    800030c4:	01c39393          	slli	t2,t2,0x1c
    800030c8:	fff38393          	addi	t2,t2,-1 # fffffffffffeffff <_end+0xffffffff7ffeacbf>
    800030cc:	5c729e63          	bne	t0,t2,800036a8 <fail>

00000000800030d0 <test_341>:
    800030d0:	15500193          	li	gp,341
    800030d4:	0005b283          	ld	t0,0(a1)
    800030d8:	00858593          	addi	a1,a1,8
    800030dc:	0010039b          	addiw	t2,zero,1
    800030e0:	02039393          	slli	t2,t2,0x20
    800030e4:	00138393          	addi	t2,t2,1
    800030e8:	01039393          	slli	t2,t2,0x10
    800030ec:	5a729e63          	bne	t0,t2,800036a8 <fail>

00000000800030f0 <test_342>:
    800030f0:	15600193          	li	gp,342
    800030f4:	0005b283          	ld	t0,0(a1)
    800030f8:	00858593          	addi	a1,a1,8
    800030fc:	000043b7          	lui	t2,0x4
    80003100:	0013839b          	addiw	t2,t2,1
    80003104:	01239393          	slli	t2,t2,0x12
    80003108:	ff838393          	addi	t2,t2,-8 # 3ff8 <_start-0x7fffc008>
    8000310c:	58729e63          	bne	t0,t2,800036a8 <fail>

0000000080003110 <test_343>:
    80003110:	15700193          	li	gp,343
    80003114:	0005b283          	ld	t0,0(a1)
    80003118:	00858593          	addi	a1,a1,8
    8000311c:	000103b7          	lui	t2,0x10
    80003120:	0073839b          	addiw	t2,t2,7
    80003124:	01039393          	slli	t2,t2,0x10
    80003128:	58729063          	bne	t0,t2,800036a8 <fail>

000000008000312c <test_344>:
    8000312c:	15800193          	li	gp,344
    80003130:	0005b283          	ld	t0,0(a1)
    80003134:	00858593          	addi	a1,a1,8
    80003138:	ffff03b7          	lui	t2,0xffff0
    8000313c:	fff3839b          	addiw	t2,t2,-1
    80003140:	01c39393          	slli	t2,t2,0x1c
    80003144:	fff38393          	addi	t2,t2,-1 # fffffffffffeffff <_end+0xffffffff7ffeacbf>
    80003148:	56729063          	bne	t0,t2,800036a8 <fail>

000000008000314c <test_345>:
    8000314c:	15900193          	li	gp,345
    80003150:	0005b283          	ld	t0,0(a1)
    80003154:	00858593          	addi	a1,a1,8
    80003158:	0010039b          	addiw	t2,zero,1
    8000315c:	02039393          	slli	t2,t2,0x20
    80003160:	00138393          	addi	t2,t2,1
    80003164:	01039393          	slli	t2,t2,0x10
    80003168:	54729063          	bne	t0,t2,800036a8 <fail>

000000008000316c <test_346>:
    8000316c:	15a00193          	li	gp,346
    80003170:	0005b283          	ld	t0,0(a1)
    80003174:	00858593          	addi	a1,a1,8
    80003178:	000043b7          	lui	t2,0x4
    8000317c:	0013839b          	addiw	t2,t2,1
    80003180:	01239393          	slli	t2,t2,0x12
    80003184:	ff838393          	addi	t2,t2,-8 # 3ff8 <_start-0x7fffc008>
    80003188:	52729063          	bne	t0,t2,800036a8 <fail>

000000008000318c <test_347>:
    8000318c:	15b00193          	li	gp,347
    80003190:	0005b283          	ld	t0,0(a1)
    80003194:	00858593          	addi	a1,a1,8
    80003198:	000103b7          	lui	t2,0x10
    8000319c:	0073839b          	addiw	t2,t2,7
    800031a0:	01039393          	slli	t2,t2,0x10
    800031a4:	50729263          	bne	t0,t2,800036a8 <fail>

00000000800031a8 <test_348>:
    800031a8:	15c00193          	li	gp,348
    800031ac:	0005b283          	ld	t0,0(a1)
    800031b0:	00858593          	addi	a1,a1,8
    800031b4:	ffff03b7          	lui	t2,0xffff0
    800031b8:	fff3839b          	addiw	t2,t2,-1
    800031bc:	01c39393          	slli	t2,t2,0x1c
    800031c0:	fff38393          	addi	t2,t2,-1 # fffffffffffeffff <_end+0xffffffff7ffeacbf>
    800031c4:	4e729263          	bne	t0,t2,800036a8 <fail>

00000000800031c8 <test_349>:
    800031c8:	15d00193          	li	gp,349
    800031cc:	0005b283          	ld	t0,0(a1)
    800031d0:	00858593          	addi	a1,a1,8
    800031d4:	0010039b          	addiw	t2,zero,1
    800031d8:	02039393          	slli	t2,t2,0x20
    800031dc:	00138393          	addi	t2,t2,1
    800031e0:	01039393          	slli	t2,t2,0x10
    800031e4:	4c729263          	bne	t0,t2,800036a8 <fail>

00000000800031e8 <test_350>:
    800031e8:	15e00193          	li	gp,350
    800031ec:	0005b283          	ld	t0,0(a1)
    800031f0:	00858593          	addi	a1,a1,8
    800031f4:	000043b7          	lui	t2,0x4
    800031f8:	0013839b          	addiw	t2,t2,1
    800031fc:	01239393          	slli	t2,t2,0x12
    80003200:	ff838393          	addi	t2,t2,-8 # 3ff8 <_start-0x7fffc008>
    80003204:	4a729263          	bne	t0,t2,800036a8 <fail>

0000000080003208 <test_351>:
    80003208:	15f00193          	li	gp,351
    8000320c:	0005b283          	ld	t0,0(a1)
    80003210:	00858593          	addi	a1,a1,8
    80003214:	000103b7          	lui	t2,0x10
    80003218:	0073839b          	addiw	t2,t2,7
    8000321c:	01039393          	slli	t2,t2,0x10
    80003220:	48729463          	bne	t0,t2,800036a8 <fail>

0000000080003224 <test_352>:
    80003224:	16000193          	li	gp,352
    80003228:	0005b283          	ld	t0,0(a1)
    8000322c:	00858593          	addi	a1,a1,8
    80003230:	ffff03b7          	lui	t2,0xffff0
    80003234:	fff3839b          	addiw	t2,t2,-1
    80003238:	01c39393          	slli	t2,t2,0x1c
    8000323c:	fff38393          	addi	t2,t2,-1 # fffffffffffeffff <_end+0xffffffff7ffeacbf>
    80003240:	46729463          	bne	t0,t2,800036a8 <fail>

0000000080003244 <test_353>:
    80003244:	16100193          	li	gp,353
    80003248:	0005b283          	ld	t0,0(a1)
    8000324c:	00858593          	addi	a1,a1,8
    80003250:	0010039b          	addiw	t2,zero,1
    80003254:	02039393          	slli	t2,t2,0x20
    80003258:	00138393          	addi	t2,t2,1
    8000325c:	01039393          	slli	t2,t2,0x10
    80003260:	44729463          	bne	t0,t2,800036a8 <fail>
    80003264:	fff00293          	li	t0,-1
    80003268:	0ca2f357          	vsetvli	t1,t0,e16,m4,ta,ma
    8000326c:	00002617          	auipc	a2,0x2
    80003270:	fa460613          	addi	a2,a2,-92 # 80005210 <tdat>
    80003274:	02065807          	vle16.v	v16,(a2)
    80003278:	0cb2f357          	vsetvli	t1,t0,e16,m8,ta,ma
    8000327c:	02065407          	vle16.v	v8,(a2)
    80003280:	00002617          	auipc	a2,0x2
    80003284:	f9860613          	addi	a2,a2,-104 # 80005218 <tdat+0x8>
    80003288:	0ca2f357          	vsetvli	t1,t0,e16,m4,ta,ma
    8000328c:	02065c07          	vle16.v	v24,(a2)
    80003290:	fff00293          	li	t0,-1
    80003294:	0c02f357          	vsetvli	t1,t0,e8,m1,ta,ma
    80003298:	00002697          	auipc	a3,0x2
    8000329c:	08068693          	addi	a3,a3,128 # 80005318 <mask>
    800032a0:	02068007          	vle8.v	v0,(a3)
    800032a4:	04000293          	li	t0,64
    800032a8:	0ca2f357          	vsetvli	t1,t0,e16,m4,ta,ma
    800032ac:	c10c0457          	vwredsumu.vs	v8,v16,v24,v0.t
    800032b0:	fff00293          	li	t0,-1
    800032b4:	0cb2f357          	vsetvli	t1,t0,e16,m8,ta,ma
    800032b8:	00002597          	auipc	a1,0x2
    800032bc:	d4858593          	addi	a1,a1,-696 # 80005000 <begin_signature>
    800032c0:	0205d427          	vse16.v	v8,(a1)

00000000800032c4 <test_354>:
    800032c4:	16200193          	li	gp,354
    800032c8:	0005b283          	ld	t0,0(a1)
    800032cc:	00858593          	addi	a1,a1,8
    800032d0:	000403b7          	lui	t2,0x40
    800032d4:	04b3839b          	addiw	t2,t2,75
    800032d8:	00e39393          	slli	t2,t2,0xe
    800032dc:	fe038393          	addi	t2,t2,-32 # 3ffe0 <_start-0x7ffc0020>
    800032e0:	3c729463          	bne	t0,t2,800036a8 <fail>

00000000800032e4 <test_355>:
    800032e4:	16300193          	li	gp,355
    800032e8:	0005b283          	ld	t0,0(a1)
    800032ec:	00858593          	addi	a1,a1,8
    800032f0:	000103b7          	lui	t2,0x10
    800032f4:	0073839b          	addiw	t2,t2,7
    800032f8:	01039393          	slli	t2,t2,0x10
    800032fc:	3a729663          	bne	t0,t2,800036a8 <fail>

0000000080003300 <test_356>:
    80003300:	16400193          	li	gp,356
    80003304:	0005b283          	ld	t0,0(a1)
    80003308:	00858593          	addi	a1,a1,8
    8000330c:	ffff03b7          	lui	t2,0xffff0
    80003310:	fff3839b          	addiw	t2,t2,-1
    80003314:	01c39393          	slli	t2,t2,0x1c
    80003318:	fff38393          	addi	t2,t2,-1 # fffffffffffeffff <_end+0xffffffff7ffeacbf>
    8000331c:	38729663          	bne	t0,t2,800036a8 <fail>

0000000080003320 <test_357>:
    80003320:	16500193          	li	gp,357
    80003324:	0005b283          	ld	t0,0(a1)
    80003328:	00858593          	addi	a1,a1,8
    8000332c:	0010039b          	addiw	t2,zero,1
    80003330:	02039393          	slli	t2,t2,0x20
    80003334:	00138393          	addi	t2,t2,1
    80003338:	01039393          	slli	t2,t2,0x10
    8000333c:	36729663          	bne	t0,t2,800036a8 <fail>

0000000080003340 <test_358>:
    80003340:	16600193          	li	gp,358
    80003344:	0005b283          	ld	t0,0(a1)
    80003348:	00858593          	addi	a1,a1,8
    8000334c:	000043b7          	lui	t2,0x4
    80003350:	0013839b          	addiw	t2,t2,1
    80003354:	01239393          	slli	t2,t2,0x12
    80003358:	ff838393          	addi	t2,t2,-8 # 3ff8 <_start-0x7fffc008>
    8000335c:	34729663          	bne	t0,t2,800036a8 <fail>

0000000080003360 <test_359>:
    80003360:	16700193          	li	gp,359
    80003364:	0005b283          	ld	t0,0(a1)
    80003368:	00858593          	addi	a1,a1,8
    8000336c:	000103b7          	lui	t2,0x10
    80003370:	0073839b          	addiw	t2,t2,7
    80003374:	01039393          	slli	t2,t2,0x10
    80003378:	32729863          	bne	t0,t2,800036a8 <fail>

000000008000337c <test_360>:
    8000337c:	16800193          	li	gp,360
    80003380:	0005b283          	ld	t0,0(a1)
    80003384:	00858593          	addi	a1,a1,8
    80003388:	ffff03b7          	lui	t2,0xffff0
    8000338c:	fff3839b          	addiw	t2,t2,-1
    80003390:	01c39393          	slli	t2,t2,0x1c
    80003394:	fff38393          	addi	t2,t2,-1 # fffffffffffeffff <_end+0xffffffff7ffeacbf>
    80003398:	30729863          	bne	t0,t2,800036a8 <fail>

000000008000339c <test_361>:
    8000339c:	16900193          	li	gp,361
    800033a0:	0005b283          	ld	t0,0(a1)
    800033a4:	00858593          	addi	a1,a1,8
    800033a8:	0010039b          	addiw	t2,zero,1
    800033ac:	02039393          	slli	t2,t2,0x20
    800033b0:	00138393          	addi	t2,t2,1
    800033b4:	01039393          	slli	t2,t2,0x10
    800033b8:	2e729863          	bne	t0,t2,800036a8 <fail>

00000000800033bc <test_362>:
    800033bc:	16a00193          	li	gp,362
    800033c0:	0005b283          	ld	t0,0(a1)
    800033c4:	00858593          	addi	a1,a1,8
    800033c8:	000043b7          	lui	t2,0x4
    800033cc:	0013839b          	addiw	t2,t2,1
    800033d0:	01239393          	slli	t2,t2,0x12
    800033d4:	ff838393          	addi	t2,t2,-8 # 3ff8 <_start-0x7fffc008>
    800033d8:	2c729863          	bne	t0,t2,800036a8 <fail>

00000000800033dc <test_363>:
    800033dc:	16b00193          	li	gp,363
    800033e0:	0005b283          	ld	t0,0(a1)
    800033e4:	00858593          	addi	a1,a1,8
    800033e8:	000103b7          	lui	t2,0x10
    800033ec:	0073839b          	addiw	t2,t2,7
    800033f0:	01039393          	slli	t2,t2,0x10
    800033f4:	2a729a63          	bne	t0,t2,800036a8 <fail>

00000000800033f8 <test_364>:
    800033f8:	16c00193          	li	gp,364
    800033fc:	0005b283          	ld	t0,0(a1)
    80003400:	00858593          	addi	a1,a1,8
    80003404:	ffff03b7          	lui	t2,0xffff0
    80003408:	fff3839b          	addiw	t2,t2,-1
    8000340c:	01c39393          	slli	t2,t2,0x1c
    80003410:	fff38393          	addi	t2,t2,-1 # fffffffffffeffff <_end+0xffffffff7ffeacbf>
    80003414:	28729a63          	bne	t0,t2,800036a8 <fail>

0000000080003418 <test_365>:
    80003418:	16d00193          	li	gp,365
    8000341c:	0005b283          	ld	t0,0(a1)
    80003420:	00858593          	addi	a1,a1,8
    80003424:	0010039b          	addiw	t2,zero,1
    80003428:	02039393          	slli	t2,t2,0x20
    8000342c:	00138393          	addi	t2,t2,1
    80003430:	01039393          	slli	t2,t2,0x10
    80003434:	26729a63          	bne	t0,t2,800036a8 <fail>

0000000080003438 <test_366>:
    80003438:	16e00193          	li	gp,366
    8000343c:	0005b283          	ld	t0,0(a1)
    80003440:	00858593          	addi	a1,a1,8
    80003444:	000043b7          	lui	t2,0x4
    80003448:	0013839b          	addiw	t2,t2,1
    8000344c:	01239393          	slli	t2,t2,0x12
    80003450:	ff838393          	addi	t2,t2,-8 # 3ff8 <_start-0x7fffc008>
    80003454:	24729a63          	bne	t0,t2,800036a8 <fail>

0000000080003458 <test_367>:
    80003458:	16f00193          	li	gp,367
    8000345c:	0005b283          	ld	t0,0(a1)
    80003460:	00858593          	addi	a1,a1,8
    80003464:	000103b7          	lui	t2,0x10
    80003468:	0073839b          	addiw	t2,t2,7
    8000346c:	01039393          	slli	t2,t2,0x10
    80003470:	22729c63          	bne	t0,t2,800036a8 <fail>

0000000080003474 <test_368>:
    80003474:	17000193          	li	gp,368
    80003478:	0005b283          	ld	t0,0(a1)
    8000347c:	00858593          	addi	a1,a1,8
    80003480:	ffff03b7          	lui	t2,0xffff0
    80003484:	fff3839b          	addiw	t2,t2,-1
    80003488:	01c39393          	slli	t2,t2,0x1c
    8000348c:	fff38393          	addi	t2,t2,-1 # fffffffffffeffff <_end+0xffffffff7ffeacbf>
    80003490:	20729c63          	bne	t0,t2,800036a8 <fail>

0000000080003494 <test_369>:
    80003494:	17100193          	li	gp,369
    80003498:	0005b283          	ld	t0,0(a1)
    8000349c:	00858593          	addi	a1,a1,8
    800034a0:	0010039b          	addiw	t2,zero,1
    800034a4:	02039393          	slli	t2,t2,0x20
    800034a8:	00138393          	addi	t2,t2,1
    800034ac:	01039393          	slli	t2,t2,0x10
    800034b0:	1e729c63          	bne	t0,t2,800036a8 <fail>

00000000800034b4 <test_370>:
    800034b4:	17200193          	li	gp,370
    800034b8:	0005b283          	ld	t0,0(a1)
    800034bc:	00858593          	addi	a1,a1,8
    800034c0:	000043b7          	lui	t2,0x4
    800034c4:	0013839b          	addiw	t2,t2,1
    800034c8:	01239393          	slli	t2,t2,0x12
    800034cc:	ff838393          	addi	t2,t2,-8 # 3ff8 <_start-0x7fffc008>
    800034d0:	1c729c63          	bne	t0,t2,800036a8 <fail>

00000000800034d4 <test_371>:
    800034d4:	17300193          	li	gp,371
    800034d8:	0005b283          	ld	t0,0(a1)
    800034dc:	00858593          	addi	a1,a1,8
    800034e0:	000103b7          	lui	t2,0x10
    800034e4:	0073839b          	addiw	t2,t2,7
    800034e8:	01039393          	slli	t2,t2,0x10
    800034ec:	1a729e63          	bne	t0,t2,800036a8 <fail>

00000000800034f0 <test_372>:
    800034f0:	17400193          	li	gp,372
    800034f4:	0005b283          	ld	t0,0(a1)
    800034f8:	00858593          	addi	a1,a1,8
    800034fc:	ffff03b7          	lui	t2,0xffff0
    80003500:	fff3839b          	addiw	t2,t2,-1
    80003504:	01c39393          	slli	t2,t2,0x1c
    80003508:	fff38393          	addi	t2,t2,-1 # fffffffffffeffff <_end+0xffffffff7ffeacbf>
    8000350c:	18729e63          	bne	t0,t2,800036a8 <fail>

0000000080003510 <test_373>:
    80003510:	17500193          	li	gp,373
    80003514:	0005b283          	ld	t0,0(a1)
    80003518:	00858593          	addi	a1,a1,8
    8000351c:	0010039b          	addiw	t2,zero,1
    80003520:	02039393          	slli	t2,t2,0x20
    80003524:	00138393          	addi	t2,t2,1
    80003528:	01039393          	slli	t2,t2,0x10
    8000352c:	16729e63          	bne	t0,t2,800036a8 <fail>

0000000080003530 <test_374>:
    80003530:	17600193          	li	gp,374
    80003534:	0005b283          	ld	t0,0(a1)
    80003538:	00858593          	addi	a1,a1,8
    8000353c:	000043b7          	lui	t2,0x4
    80003540:	0013839b          	addiw	t2,t2,1
    80003544:	01239393          	slli	t2,t2,0x12
    80003548:	ff838393          	addi	t2,t2,-8 # 3ff8 <_start-0x7fffc008>
    8000354c:	14729e63          	bne	t0,t2,800036a8 <fail>

0000000080003550 <test_375>:
    80003550:	17700193          	li	gp,375
    80003554:	0005b283          	ld	t0,0(a1)
    80003558:	00858593          	addi	a1,a1,8
    8000355c:	000103b7          	lui	t2,0x10
    80003560:	0073839b          	addiw	t2,t2,7
    80003564:	01039393          	slli	t2,t2,0x10
    80003568:	14729063          	bne	t0,t2,800036a8 <fail>

000000008000356c <test_376>:
    8000356c:	17800193          	li	gp,376
    80003570:	0005b283          	ld	t0,0(a1)
    80003574:	00858593          	addi	a1,a1,8
    80003578:	ffff03b7          	lui	t2,0xffff0
    8000357c:	fff3839b          	addiw	t2,t2,-1
    80003580:	01c39393          	slli	t2,t2,0x1c
    80003584:	fff38393          	addi	t2,t2,-1 # fffffffffffeffff <_end+0xffffffff7ffeacbf>
    80003588:	12729063          	bne	t0,t2,800036a8 <fail>

000000008000358c <test_377>:
    8000358c:	17900193          	li	gp,377
    80003590:	0005b283          	ld	t0,0(a1)
    80003594:	00858593          	addi	a1,a1,8
    80003598:	0010039b          	addiw	t2,zero,1
    8000359c:	02039393          	slli	t2,t2,0x20
    800035a0:	00138393          	addi	t2,t2,1
    800035a4:	01039393          	slli	t2,t2,0x10
    800035a8:	10729063          	bne	t0,t2,800036a8 <fail>

00000000800035ac <test_378>:
    800035ac:	17a00193          	li	gp,378
    800035b0:	0005b283          	ld	t0,0(a1)
    800035b4:	00858593          	addi	a1,a1,8
    800035b8:	000043b7          	lui	t2,0x4
    800035bc:	0013839b          	addiw	t2,t2,1
    800035c0:	01239393          	slli	t2,t2,0x12
    800035c4:	ff838393          	addi	t2,t2,-8 # 3ff8 <_start-0x7fffc008>
    800035c8:	0e729063          	bne	t0,t2,800036a8 <fail>

00000000800035cc <test_379>:
    800035cc:	17b00193          	li	gp,379
    800035d0:	0005b283          	ld	t0,0(a1)
    800035d4:	00858593          	addi	a1,a1,8
    800035d8:	000103b7          	lui	t2,0x10
    800035dc:	0073839b          	addiw	t2,t2,7
    800035e0:	01039393          	slli	t2,t2,0x10
    800035e4:	0c729263          	bne	t0,t2,800036a8 <fail>

00000000800035e8 <test_380>:
    800035e8:	17c00193          	li	gp,380
    800035ec:	0005b283          	ld	t0,0(a1)
    800035f0:	00858593          	addi	a1,a1,8
    800035f4:	ffff03b7          	lui	t2,0xffff0
    800035f8:	fff3839b          	addiw	t2,t2,-1
    800035fc:	01c39393          	slli	t2,t2,0x1c
    80003600:	fff38393          	addi	t2,t2,-1 # fffffffffffeffff <_end+0xffffffff7ffeacbf>
    80003604:	0a729263          	bne	t0,t2,800036a8 <fail>

0000000080003608 <test_381>:
    80003608:	17d00193          	li	gp,381
    8000360c:	0005b283          	ld	t0,0(a1)
    80003610:	00858593          	addi	a1,a1,8
    80003614:	0010039b          	addiw	t2,zero,1
    80003618:	02039393          	slli	t2,t2,0x20
    8000361c:	00138393          	addi	t2,t2,1
    80003620:	01039393          	slli	t2,t2,0x10
    80003624:	08729263          	bne	t0,t2,800036a8 <fail>

0000000080003628 <test_382>:
    80003628:	17e00193          	li	gp,382
    8000362c:	0005b283          	ld	t0,0(a1)
    80003630:	00858593          	addi	a1,a1,8
    80003634:	000043b7          	lui	t2,0x4
    80003638:	0013839b          	addiw	t2,t2,1
    8000363c:	01239393          	slli	t2,t2,0x12
    80003640:	ff838393          	addi	t2,t2,-8 # 3ff8 <_start-0x7fffc008>
    80003644:	06729263          	bne	t0,t2,800036a8 <fail>

0000000080003648 <test_383>:
    80003648:	17f00193          	li	gp,383
    8000364c:	0005b283          	ld	t0,0(a1)
    80003650:	00858593          	addi	a1,a1,8
    80003654:	000103b7          	lui	t2,0x10
    80003658:	0073839b          	addiw	t2,t2,7
    8000365c:	01039393          	slli	t2,t2,0x10
    80003660:	04729463          	bne	t0,t2,800036a8 <fail>

0000000080003664 <test_384>:
    80003664:	18000193          	li	gp,384
    80003668:	0005b283          	ld	t0,0(a1)
    8000366c:	00858593          	addi	a1,a1,8
    80003670:	ffff03b7          	lui	t2,0xffff0
    80003674:	fff3839b          	addiw	t2,t2,-1
    80003678:	01c39393          	slli	t2,t2,0x1c
    8000367c:	fff38393          	addi	t2,t2,-1 # fffffffffffeffff <_end+0xffffffff7ffeacbf>
    80003680:	02729463          	bne	t0,t2,800036a8 <fail>

0000000080003684 <test_385>:
    80003684:	18100193          	li	gp,385
    80003688:	0005b283          	ld	t0,0(a1)
    8000368c:	00858593          	addi	a1,a1,8
    80003690:	0010039b          	addiw	t2,zero,1
    80003694:	02039393          	slli	t2,t2,0x20
    80003698:	00138393          	addi	t2,t2,1
    8000369c:	01039393          	slli	t2,t2,0x10
    800036a0:	00729463          	bne	t0,t2,800036a8 <fail>
    800036a4:	00301a63          	bne	zero,gp,800036b8 <pass>

00000000800036a8 <fail>:
    800036a8:	0ff0000f          	fence
    800036ac:	00018513          	mv	a0,gp
    800036b0:	05d00893          	li	a7,93
    800036b4:	00000073          	ecall

00000000800036b8 <pass>:
    800036b8:	0ff0000f          	fence
    800036bc:	00000513          	li	a0,0
    800036c0:	05d00893          	li	a7,93
    800036c4:	00000073          	ecall
    800036c8:	0000                	unimp
    800036ca:	0000                	unimp
    800036cc:	0000                	unimp
    800036ce:	0000                	unimp
    800036d0:	0000                	unimp
    800036d2:	0000                	unimp
    800036d4:	0000                	unimp
    800036d6:	0000                	unimp
    800036d8:	0000                	unimp
    800036da:	0000                	unimp
    800036dc:	0000                	unimp
    800036de:	0000                	unimp
    800036e0:	0000                	unimp
    800036e2:	0000                	unimp
    800036e4:	0000                	unimp
    800036e6:	0000                	unimp
    800036e8:	0000                	unimp
    800036ea:	0000                	unimp
    800036ec:	0000                	unimp
    800036ee:	0000                	unimp
    800036f0:	0000                	unimp
    800036f2:	0000                	unimp
    800036f4:	0000                	unimp
    800036f6:	0000                	unimp
    800036f8:	0000                	unimp
    800036fa:	0000                	unimp
    800036fc:	0000                	unimp
    800036fe:	0000                	unimp
    80003700:	0000                	unimp
    80003702:	0000                	unimp
