
rv64uv-ps-vwredsumu.vs_LMUL2SEW32:     file format elf64-littleriscv


Disassembly of section .text.init:

0000000080000000 <_start>:
    80000000:	00000297          	auipc	t0,0x0
    80000004:	00c28293          	addi	t0,t0,12 # 8000000c <_start+0xc>
    80000008:	00028067          	jr	t0
    8000000c:	fff00293          	li	t0,-1
    80000010:	0d12f357          	vsetvli	t1,t0,e32,m2,ta,ma
    80000014:	00003617          	auipc	a2,0x3
    80000018:	0fc60613          	addi	a2,a2,252 # 80003110 <tdat>
    8000001c:	02066407          	vle32.v	v8,(a2)
    80000020:	0d22f357          	vsetvli	t1,t0,e32,m4,ta,ma
    80000024:	02066207          	vle32.v	v4,(a2)
    80000028:	00003617          	auipc	a2,0x3
    8000002c:	0f060613          	addi	a2,a2,240 # 80003118 <tdat+0x8>
    80000030:	0d12f357          	vsetvli	t1,t0,e32,m2,ta,ma
    80000034:	02066607          	vle32.v	v12,(a2)
    80000038:	00800293          	li	t0,8
    8000003c:	0d12f357          	vsetvli	t1,t0,e32,m2,ta,ma
    80000040:	c2860257          	vwredsumu.vs	v4,v8,v12
    80000044:	fff00293          	li	t0,-1
    80000048:	0d22f357          	vsetvli	t1,t0,e32,m4,ta,ma
    8000004c:	00003597          	auipc	a1,0x3
    80000050:	fb458593          	addi	a1,a1,-76 # 80003000 <begin_signature>
    80000054:	0205e227          	vse32.v	v4,(a1)

0000000080000058 <test_2>:
    80000058:	00200193          	li	gp,2
    8000005c:	0005b283          	ld	t0,0(a1)
    80000060:	00858593          	addi	a1,a1,8
    80000064:	0010039b          	addiw	t2,zero,1
    80000068:	02039393          	slli	t2,t2,0x20
    8000006c:	00538393          	addi	t2,t2,5
    80000070:	00728463          	beq	t0,t2,80000078 <test_3>
    80000074:	6d80106f          	j	8000174c <fail>

0000000080000078 <test_3>:
    80000078:	00300193          	li	gp,3
    8000007c:	0005b283          	ld	t0,0(a1)
    80000080:	00858593          	addi	a1,a1,8
    80000084:	00100393          	li	t2,1
    80000088:	00728463          	beq	t0,t2,80000090 <test_4>
    8000008c:	6c00106f          	j	8000174c <fail>

0000000080000090 <test_4>:
    80000090:	00400193          	li	gp,4
    80000094:	0005b283          	ld	t0,0(a1)
    80000098:	00858593          	addi	a1,a1,8
    8000009c:	0010039b          	addiw	t2,zero,1
    800000a0:	02239393          	slli	t2,t2,0x22
    800000a4:	ff838393          	addi	t2,t2,-8
    800000a8:	00728463          	beq	t0,t2,800000b0 <test_5>
    800000ac:	6a00106f          	j	8000174c <fail>

00000000800000b0 <test_5>:
    800000b0:	00500193          	li	gp,5
    800000b4:	0005b283          	ld	t0,0(a1)
    800000b8:	00858593          	addi	a1,a1,8
    800000bc:	0070039b          	addiw	t2,zero,7
    800000c0:	02039393          	slli	t2,t2,0x20
    800000c4:	00728463          	beq	t0,t2,800000cc <test_6>
    800000c8:	6840106f          	j	8000174c <fail>

00000000800000cc <test_6>:
    800000cc:	00600193          	li	gp,6
    800000d0:	0005b283          	ld	t0,0(a1)
    800000d4:	00858593          	addi	a1,a1,8
    800000d8:	f00003b7          	lui	t2,0xf0000
    800000dc:	fff3839b          	addiw	t2,t2,-1
    800000e0:	00728463          	beq	t0,t2,800000e8 <test_7>
    800000e4:	6680106f          	j	8000174c <fail>

00000000800000e8 <test_7>:
    800000e8:	00700193          	li	gp,7
    800000ec:	0005b283          	ld	t0,0(a1)
    800000f0:	00858593          	addi	a1,a1,8
    800000f4:	0010039b          	addiw	t2,zero,1
    800000f8:	02039393          	slli	t2,t2,0x20
    800000fc:	00728463          	beq	t0,t2,80000104 <test_8>
    80000100:	64c0106f          	j	8000174c <fail>

0000000080000104 <test_8>:
    80000104:	00800193          	li	gp,8
    80000108:	0005b283          	ld	t0,0(a1)
    8000010c:	00858593          	addi	a1,a1,8
    80000110:	fff0039b          	addiw	t2,zero,-1
    80000114:	03c39393          	slli	t2,t2,0x3c
    80000118:	fff38393          	addi	t2,t2,-1 # ffffffffefffffff <_end+0xffffffff6fffce3f>
    8000011c:	00728463          	beq	t0,t2,80000124 <test_9>
    80000120:	62c0106f          	j	8000174c <fail>

0000000080000124 <test_9>:
    80000124:	00900193          	li	gp,9
    80000128:	0005b283          	ld	t0,0(a1)
    8000012c:	00858593          	addi	a1,a1,8
    80000130:	0010039b          	addiw	t2,zero,1
    80000134:	02039393          	slli	t2,t2,0x20
    80000138:	00728463          	beq	t0,t2,80000140 <test_10>
    8000013c:	6100106f          	j	8000174c <fail>

0000000080000140 <test_10>:
    80000140:	00a00193          	li	gp,10
    80000144:	0005b283          	ld	t0,0(a1)
    80000148:	00858593          	addi	a1,a1,8
    8000014c:	00100393          	li	t2,1
    80000150:	00728463          	beq	t0,t2,80000158 <test_11>
    80000154:	5f80106f          	j	8000174c <fail>

0000000080000158 <test_11>:
    80000158:	00b00193          	li	gp,11
    8000015c:	0005b283          	ld	t0,0(a1)
    80000160:	00858593          	addi	a1,a1,8
    80000164:	00100393          	li	t2,1
    80000168:	00728463          	beq	t0,t2,80000170 <test_12>
    8000016c:	5e00106f          	j	8000174c <fail>

0000000080000170 <test_12>:
    80000170:	00c00193          	li	gp,12
    80000174:	0005b283          	ld	t0,0(a1)
    80000178:	00858593          	addi	a1,a1,8
    8000017c:	0010039b          	addiw	t2,zero,1
    80000180:	02239393          	slli	t2,t2,0x22
    80000184:	ff838393          	addi	t2,t2,-8
    80000188:	00728463          	beq	t0,t2,80000190 <test_13>
    8000018c:	5c00106f          	j	8000174c <fail>

0000000080000190 <test_13>:
    80000190:	00d00193          	li	gp,13
    80000194:	0005b283          	ld	t0,0(a1)
    80000198:	00858593          	addi	a1,a1,8
    8000019c:	0070039b          	addiw	t2,zero,7
    800001a0:	02039393          	slli	t2,t2,0x20
    800001a4:	00728463          	beq	t0,t2,800001ac <test_14>
    800001a8:	5a40106f          	j	8000174c <fail>

00000000800001ac <test_14>:
    800001ac:	00e00193          	li	gp,14
    800001b0:	0005b283          	ld	t0,0(a1)
    800001b4:	00858593          	addi	a1,a1,8
    800001b8:	f00003b7          	lui	t2,0xf0000
    800001bc:	fff3839b          	addiw	t2,t2,-1
    800001c0:	00728463          	beq	t0,t2,800001c8 <test_15>
    800001c4:	5880106f          	j	8000174c <fail>

00000000800001c8 <test_15>:
    800001c8:	00f00193          	li	gp,15
    800001cc:	0005b283          	ld	t0,0(a1)
    800001d0:	00858593          	addi	a1,a1,8
    800001d4:	0010039b          	addiw	t2,zero,1
    800001d8:	02039393          	slli	t2,t2,0x20
    800001dc:	00728463          	beq	t0,t2,800001e4 <test_16>
    800001e0:	56c0106f          	j	8000174c <fail>

00000000800001e4 <test_16>:
    800001e4:	01000193          	li	gp,16
    800001e8:	0005b283          	ld	t0,0(a1)
    800001ec:	00858593          	addi	a1,a1,8
    800001f0:	fff0039b          	addiw	t2,zero,-1
    800001f4:	03c39393          	slli	t2,t2,0x3c
    800001f8:	fff38393          	addi	t2,t2,-1 # ffffffffefffffff <_end+0xffffffff6fffce3f>
    800001fc:	00728463          	beq	t0,t2,80000204 <test_17>
    80000200:	54c0106f          	j	8000174c <fail>

0000000080000204 <test_17>:
    80000204:	01100193          	li	gp,17
    80000208:	0005b283          	ld	t0,0(a1)
    8000020c:	00858593          	addi	a1,a1,8
    80000210:	0010039b          	addiw	t2,zero,1
    80000214:	02039393          	slli	t2,t2,0x20
    80000218:	00728463          	beq	t0,t2,80000220 <test_17+0x1c>
    8000021c:	5300106f          	j	8000174c <fail>
    80000220:	fff00293          	li	t0,-1
    80000224:	0d12f357          	vsetvli	t1,t0,e32,m2,ta,ma
    80000228:	00003617          	auipc	a2,0x3
    8000022c:	ee860613          	addi	a2,a2,-280 # 80003110 <tdat>
    80000230:	02066407          	vle32.v	v8,(a2)
    80000234:	0d22f357          	vsetvli	t1,t0,e32,m4,ta,ma
    80000238:	02066207          	vle32.v	v4,(a2)
    8000023c:	00003617          	auipc	a2,0x3
    80000240:	edc60613          	addi	a2,a2,-292 # 80003118 <tdat+0x8>
    80000244:	0d12f357          	vsetvli	t1,t0,e32,m2,ta,ma
    80000248:	02066607          	vle32.v	v12,(a2)
    8000024c:	00800293          	li	t0,8
    80000250:	0912f357          	vsetvli	t1,t0,e32,m2,tu,ma
    80000254:	c2860257          	vwredsumu.vs	v4,v8,v12
    80000258:	fff00293          	li	t0,-1
    8000025c:	0d22f357          	vsetvli	t1,t0,e32,m4,ta,ma
    80000260:	00003597          	auipc	a1,0x3
    80000264:	da058593          	addi	a1,a1,-608 # 80003000 <begin_signature>
    80000268:	0205e227          	vse32.v	v4,(a1)

000000008000026c <test_18>:
    8000026c:	01200193          	li	gp,18
    80000270:	0005b283          	ld	t0,0(a1)
    80000274:	00858593          	addi	a1,a1,8
    80000278:	0010039b          	addiw	t2,zero,1
    8000027c:	02039393          	slli	t2,t2,0x20
    80000280:	00538393          	addi	t2,t2,5
    80000284:	00728463          	beq	t0,t2,8000028c <test_19>
    80000288:	4c40106f          	j	8000174c <fail>

000000008000028c <test_19>:
    8000028c:	01300193          	li	gp,19
    80000290:	0005b283          	ld	t0,0(a1)
    80000294:	00858593          	addi	a1,a1,8
    80000298:	00100393          	li	t2,1
    8000029c:	00728463          	beq	t0,t2,800002a4 <test_20>
    800002a0:	4ac0106f          	j	8000174c <fail>

00000000800002a4 <test_20>:
    800002a4:	01400193          	li	gp,20
    800002a8:	0005b283          	ld	t0,0(a1)
    800002ac:	00858593          	addi	a1,a1,8
    800002b0:	0010039b          	addiw	t2,zero,1
    800002b4:	02239393          	slli	t2,t2,0x22
    800002b8:	ff838393          	addi	t2,t2,-8
    800002bc:	00728463          	beq	t0,t2,800002c4 <test_21>
    800002c0:	48c0106f          	j	8000174c <fail>

00000000800002c4 <test_21>:
    800002c4:	01500193          	li	gp,21
    800002c8:	0005b283          	ld	t0,0(a1)
    800002cc:	00858593          	addi	a1,a1,8
    800002d0:	0070039b          	addiw	t2,zero,7
    800002d4:	02039393          	slli	t2,t2,0x20
    800002d8:	00728463          	beq	t0,t2,800002e0 <test_22>
    800002dc:	4700106f          	j	8000174c <fail>

00000000800002e0 <test_22>:
    800002e0:	01600193          	li	gp,22
    800002e4:	0005b283          	ld	t0,0(a1)
    800002e8:	00858593          	addi	a1,a1,8
    800002ec:	f00003b7          	lui	t2,0xf0000
    800002f0:	fff3839b          	addiw	t2,t2,-1
    800002f4:	00728463          	beq	t0,t2,800002fc <test_23>
    800002f8:	4540106f          	j	8000174c <fail>

00000000800002fc <test_23>:
    800002fc:	01700193          	li	gp,23
    80000300:	0005b283          	ld	t0,0(a1)
    80000304:	00858593          	addi	a1,a1,8
    80000308:	0010039b          	addiw	t2,zero,1
    8000030c:	02039393          	slli	t2,t2,0x20
    80000310:	00728463          	beq	t0,t2,80000318 <test_24>
    80000314:	4380106f          	j	8000174c <fail>

0000000080000318 <test_24>:
    80000318:	01800193          	li	gp,24
    8000031c:	0005b283          	ld	t0,0(a1)
    80000320:	00858593          	addi	a1,a1,8
    80000324:	fff0039b          	addiw	t2,zero,-1
    80000328:	03c39393          	slli	t2,t2,0x3c
    8000032c:	fff38393          	addi	t2,t2,-1 # ffffffffefffffff <_end+0xffffffff6fffce3f>
    80000330:	00728463          	beq	t0,t2,80000338 <test_25>
    80000334:	4180106f          	j	8000174c <fail>

0000000080000338 <test_25>:
    80000338:	01900193          	li	gp,25
    8000033c:	0005b283          	ld	t0,0(a1)
    80000340:	00858593          	addi	a1,a1,8
    80000344:	0010039b          	addiw	t2,zero,1
    80000348:	02039393          	slli	t2,t2,0x20
    8000034c:	00728463          	beq	t0,t2,80000354 <test_26>
    80000350:	3fc0106f          	j	8000174c <fail>

0000000080000354 <test_26>:
    80000354:	01a00193          	li	gp,26
    80000358:	0005b283          	ld	t0,0(a1)
    8000035c:	00858593          	addi	a1,a1,8
    80000360:	00100393          	li	t2,1
    80000364:	00728463          	beq	t0,t2,8000036c <test_27>
    80000368:	3e40106f          	j	8000174c <fail>

000000008000036c <test_27>:
    8000036c:	01b00193          	li	gp,27
    80000370:	0005b283          	ld	t0,0(a1)
    80000374:	00858593          	addi	a1,a1,8
    80000378:	00100393          	li	t2,1
    8000037c:	00728463          	beq	t0,t2,80000384 <test_28>
    80000380:	3cc0106f          	j	8000174c <fail>

0000000080000384 <test_28>:
    80000384:	01c00193          	li	gp,28
    80000388:	0005b283          	ld	t0,0(a1)
    8000038c:	00858593          	addi	a1,a1,8
    80000390:	0010039b          	addiw	t2,zero,1
    80000394:	02239393          	slli	t2,t2,0x22
    80000398:	ff838393          	addi	t2,t2,-8
    8000039c:	00728463          	beq	t0,t2,800003a4 <test_29>
    800003a0:	3ac0106f          	j	8000174c <fail>

00000000800003a4 <test_29>:
    800003a4:	01d00193          	li	gp,29
    800003a8:	0005b283          	ld	t0,0(a1)
    800003ac:	00858593          	addi	a1,a1,8
    800003b0:	0070039b          	addiw	t2,zero,7
    800003b4:	02039393          	slli	t2,t2,0x20
    800003b8:	00728463          	beq	t0,t2,800003c0 <test_30>
    800003bc:	3900106f          	j	8000174c <fail>

00000000800003c0 <test_30>:
    800003c0:	01e00193          	li	gp,30
    800003c4:	0005b283          	ld	t0,0(a1)
    800003c8:	00858593          	addi	a1,a1,8
    800003cc:	f00003b7          	lui	t2,0xf0000
    800003d0:	fff3839b          	addiw	t2,t2,-1
    800003d4:	00728463          	beq	t0,t2,800003dc <test_31>
    800003d8:	3740106f          	j	8000174c <fail>

00000000800003dc <test_31>:
    800003dc:	01f00193          	li	gp,31
    800003e0:	0005b283          	ld	t0,0(a1)
    800003e4:	00858593          	addi	a1,a1,8
    800003e8:	0010039b          	addiw	t2,zero,1
    800003ec:	02039393          	slli	t2,t2,0x20
    800003f0:	00728463          	beq	t0,t2,800003f8 <test_32>
    800003f4:	3580106f          	j	8000174c <fail>

00000000800003f8 <test_32>:
    800003f8:	02000193          	li	gp,32
    800003fc:	0005b283          	ld	t0,0(a1)
    80000400:	00858593          	addi	a1,a1,8
    80000404:	fff0039b          	addiw	t2,zero,-1
    80000408:	03c39393          	slli	t2,t2,0x3c
    8000040c:	fff38393          	addi	t2,t2,-1 # ffffffffefffffff <_end+0xffffffff6fffce3f>
    80000410:	00728463          	beq	t0,t2,80000418 <test_33>
    80000414:	3380106f          	j	8000174c <fail>

0000000080000418 <test_33>:
    80000418:	02100193          	li	gp,33
    8000041c:	0005b283          	ld	t0,0(a1)
    80000420:	00858593          	addi	a1,a1,8
    80000424:	0010039b          	addiw	t2,zero,1
    80000428:	02039393          	slli	t2,t2,0x20
    8000042c:	00728463          	beq	t0,t2,80000434 <test_33+0x1c>
    80000430:	31c0106f          	j	8000174c <fail>
    80000434:	fff00293          	li	t0,-1
    80000438:	0d12f357          	vsetvli	t1,t0,e32,m2,ta,ma
    8000043c:	00003617          	auipc	a2,0x3
    80000440:	cd460613          	addi	a2,a2,-812 # 80003110 <tdat>
    80000444:	02066407          	vle32.v	v8,(a2)
    80000448:	0d22f357          	vsetvli	t1,t0,e32,m4,ta,ma
    8000044c:	02066207          	vle32.v	v4,(a2)
    80000450:	00003617          	auipc	a2,0x3
    80000454:	cc860613          	addi	a2,a2,-824 # 80003118 <tdat+0x8>
    80000458:	0d12f357          	vsetvli	t1,t0,e32,m2,ta,ma
    8000045c:	02066607          	vle32.v	v12,(a2)
    80000460:	fff00293          	li	t0,-1
    80000464:	0c02f357          	vsetvli	t1,t0,e8,m1,ta,ma
    80000468:	00003697          	auipc	a3,0x3
    8000046c:	d3068693          	addi	a3,a3,-720 # 80003198 <mask>
    80000470:	02068007          	vle8.v	v0,(a3)
    80000474:	00800293          	li	t0,8
    80000478:	0d12f357          	vsetvli	t1,t0,e32,m2,ta,ma
    8000047c:	c0860257          	vwredsumu.vs	v4,v8,v12,v0.t
    80000480:	fff00293          	li	t0,-1
    80000484:	0d22f357          	vsetvli	t1,t0,e32,m4,ta,ma
    80000488:	00003597          	auipc	a1,0x3
    8000048c:	b7858593          	addi	a1,a1,-1160 # 80003000 <begin_signature>
    80000490:	0205e227          	vse32.v	v4,(a1)

0000000080000494 <test_34>:
    80000494:	02200193          	li	gp,34
    80000498:	0005b283          	ld	t0,0(a1)
    8000049c:	00858593          	addi	a1,a1,8
    800004a0:	0010039b          	addiw	t2,zero,1
    800004a4:	02039393          	slli	t2,t2,0x20
    800004a8:	ffb38393          	addi	t2,t2,-5
    800004ac:	00728463          	beq	t0,t2,800004b4 <test_35>
    800004b0:	29c0106f          	j	8000174c <fail>

00000000800004b4 <test_35>:
    800004b4:	02300193          	li	gp,35
    800004b8:	0005b283          	ld	t0,0(a1)
    800004bc:	00858593          	addi	a1,a1,8
    800004c0:	00100393          	li	t2,1
    800004c4:	00728463          	beq	t0,t2,800004cc <test_36>
    800004c8:	2840106f          	j	8000174c <fail>

00000000800004cc <test_36>:
    800004cc:	02400193          	li	gp,36
    800004d0:	0005b283          	ld	t0,0(a1)
    800004d4:	00858593          	addi	a1,a1,8
    800004d8:	0010039b          	addiw	t2,zero,1
    800004dc:	02239393          	slli	t2,t2,0x22
    800004e0:	ff838393          	addi	t2,t2,-8
    800004e4:	00728463          	beq	t0,t2,800004ec <test_37>
    800004e8:	2640106f          	j	8000174c <fail>

00000000800004ec <test_37>:
    800004ec:	02500193          	li	gp,37
    800004f0:	0005b283          	ld	t0,0(a1)
    800004f4:	00858593          	addi	a1,a1,8
    800004f8:	0070039b          	addiw	t2,zero,7
    800004fc:	02039393          	slli	t2,t2,0x20
    80000500:	00728463          	beq	t0,t2,80000508 <test_38>
    80000504:	2480106f          	j	8000174c <fail>

0000000080000508 <test_38>:
    80000508:	02600193          	li	gp,38
    8000050c:	0005b283          	ld	t0,0(a1)
    80000510:	00858593          	addi	a1,a1,8
    80000514:	f00003b7          	lui	t2,0xf0000
    80000518:	fff3839b          	addiw	t2,t2,-1
    8000051c:	00728463          	beq	t0,t2,80000524 <test_39>
    80000520:	22c0106f          	j	8000174c <fail>

0000000080000524 <test_39>:
    80000524:	02700193          	li	gp,39
    80000528:	0005b283          	ld	t0,0(a1)
    8000052c:	00858593          	addi	a1,a1,8
    80000530:	0010039b          	addiw	t2,zero,1
    80000534:	02039393          	slli	t2,t2,0x20
    80000538:	00728463          	beq	t0,t2,80000540 <test_40>
    8000053c:	2100106f          	j	8000174c <fail>

0000000080000540 <test_40>:
    80000540:	02800193          	li	gp,40
    80000544:	0005b283          	ld	t0,0(a1)
    80000548:	00858593          	addi	a1,a1,8
    8000054c:	fff0039b          	addiw	t2,zero,-1
    80000550:	03c39393          	slli	t2,t2,0x3c
    80000554:	fff38393          	addi	t2,t2,-1 # ffffffffefffffff <_end+0xffffffff6fffce3f>
    80000558:	00728463          	beq	t0,t2,80000560 <test_41>
    8000055c:	1f00106f          	j	8000174c <fail>

0000000080000560 <test_41>:
    80000560:	02900193          	li	gp,41
    80000564:	0005b283          	ld	t0,0(a1)
    80000568:	00858593          	addi	a1,a1,8
    8000056c:	0010039b          	addiw	t2,zero,1
    80000570:	02039393          	slli	t2,t2,0x20
    80000574:	00728463          	beq	t0,t2,8000057c <test_42>
    80000578:	1d40106f          	j	8000174c <fail>

000000008000057c <test_42>:
    8000057c:	02a00193          	li	gp,42
    80000580:	0005b283          	ld	t0,0(a1)
    80000584:	00858593          	addi	a1,a1,8
    80000588:	00100393          	li	t2,1
    8000058c:	00728463          	beq	t0,t2,80000594 <test_43>
    80000590:	1bc0106f          	j	8000174c <fail>

0000000080000594 <test_43>:
    80000594:	02b00193          	li	gp,43
    80000598:	0005b283          	ld	t0,0(a1)
    8000059c:	00858593          	addi	a1,a1,8
    800005a0:	00100393          	li	t2,1
    800005a4:	00728463          	beq	t0,t2,800005ac <test_44>
    800005a8:	1a40106f          	j	8000174c <fail>

00000000800005ac <test_44>:
    800005ac:	02c00193          	li	gp,44
    800005b0:	0005b283          	ld	t0,0(a1)
    800005b4:	00858593          	addi	a1,a1,8
    800005b8:	0010039b          	addiw	t2,zero,1
    800005bc:	02239393          	slli	t2,t2,0x22
    800005c0:	ff838393          	addi	t2,t2,-8
    800005c4:	00728463          	beq	t0,t2,800005cc <test_45>
    800005c8:	1840106f          	j	8000174c <fail>

00000000800005cc <test_45>:
    800005cc:	02d00193          	li	gp,45
    800005d0:	0005b283          	ld	t0,0(a1)
    800005d4:	00858593          	addi	a1,a1,8
    800005d8:	0070039b          	addiw	t2,zero,7
    800005dc:	02039393          	slli	t2,t2,0x20
    800005e0:	00728463          	beq	t0,t2,800005e8 <test_46>
    800005e4:	1680106f          	j	8000174c <fail>

00000000800005e8 <test_46>:
    800005e8:	02e00193          	li	gp,46
    800005ec:	0005b283          	ld	t0,0(a1)
    800005f0:	00858593          	addi	a1,a1,8
    800005f4:	f00003b7          	lui	t2,0xf0000
    800005f8:	fff3839b          	addiw	t2,t2,-1
    800005fc:	00728463          	beq	t0,t2,80000604 <test_47>
    80000600:	14c0106f          	j	8000174c <fail>

0000000080000604 <test_47>:
    80000604:	02f00193          	li	gp,47
    80000608:	0005b283          	ld	t0,0(a1)
    8000060c:	00858593          	addi	a1,a1,8
    80000610:	0010039b          	addiw	t2,zero,1
    80000614:	02039393          	slli	t2,t2,0x20
    80000618:	00728463          	beq	t0,t2,80000620 <test_48>
    8000061c:	1300106f          	j	8000174c <fail>

0000000080000620 <test_48>:
    80000620:	03000193          	li	gp,48
    80000624:	0005b283          	ld	t0,0(a1)
    80000628:	00858593          	addi	a1,a1,8
    8000062c:	fff0039b          	addiw	t2,zero,-1
    80000630:	03c39393          	slli	t2,t2,0x3c
    80000634:	fff38393          	addi	t2,t2,-1 # ffffffffefffffff <_end+0xffffffff6fffce3f>
    80000638:	00728463          	beq	t0,t2,80000640 <test_49>
    8000063c:	1100106f          	j	8000174c <fail>

0000000080000640 <test_49>:
    80000640:	03100193          	li	gp,49
    80000644:	0005b283          	ld	t0,0(a1)
    80000648:	00858593          	addi	a1,a1,8
    8000064c:	0010039b          	addiw	t2,zero,1
    80000650:	02039393          	slli	t2,t2,0x20
    80000654:	00728463          	beq	t0,t2,8000065c <test_49+0x1c>
    80000658:	0f40106f          	j	8000174c <fail>
    8000065c:	fff00293          	li	t0,-1
    80000660:	0d12f357          	vsetvli	t1,t0,e32,m2,ta,ma
    80000664:	00003617          	auipc	a2,0x3
    80000668:	aac60613          	addi	a2,a2,-1364 # 80003110 <tdat>
    8000066c:	02066407          	vle32.v	v8,(a2)
    80000670:	0d22f357          	vsetvli	t1,t0,e32,m4,ta,ma
    80000674:	02066207          	vle32.v	v4,(a2)
    80000678:	00003617          	auipc	a2,0x3
    8000067c:	aa060613          	addi	a2,a2,-1376 # 80003118 <tdat+0x8>
    80000680:	0d12f357          	vsetvli	t1,t0,e32,m2,ta,ma
    80000684:	02066607          	vle32.v	v12,(a2)
    80000688:	fff00293          	li	t0,-1
    8000068c:	0c02f357          	vsetvli	t1,t0,e8,m1,ta,ma
    80000690:	00003697          	auipc	a3,0x3
    80000694:	b0868693          	addi	a3,a3,-1272 # 80003198 <mask>
    80000698:	02068007          	vle8.v	v0,(a3)
    8000069c:	00800293          	li	t0,8
    800006a0:	0d12f357          	vsetvli	t1,t0,e32,m2,ta,ma
    800006a4:	c0860257          	vwredsumu.vs	v4,v8,v12,v0.t
    800006a8:	fff00293          	li	t0,-1
    800006ac:	0d22f357          	vsetvli	t1,t0,e32,m4,ta,ma
    800006b0:	00003597          	auipc	a1,0x3
    800006b4:	95058593          	addi	a1,a1,-1712 # 80003000 <begin_signature>
    800006b8:	0205e227          	vse32.v	v4,(a1)

00000000800006bc <test_50>:
    800006bc:	03200193          	li	gp,50
    800006c0:	0005b283          	ld	t0,0(a1)
    800006c4:	00858593          	addi	a1,a1,8
    800006c8:	0010039b          	addiw	t2,zero,1
    800006cc:	02039393          	slli	t2,t2,0x20
    800006d0:	ffb38393          	addi	t2,t2,-5
    800006d4:	00728463          	beq	t0,t2,800006dc <test_51>
    800006d8:	0740106f          	j	8000174c <fail>

00000000800006dc <test_51>:
    800006dc:	03300193          	li	gp,51
    800006e0:	0005b283          	ld	t0,0(a1)
    800006e4:	00858593          	addi	a1,a1,8
    800006e8:	00100393          	li	t2,1
    800006ec:	00728463          	beq	t0,t2,800006f4 <test_52>
    800006f0:	05c0106f          	j	8000174c <fail>

00000000800006f4 <test_52>:
    800006f4:	03400193          	li	gp,52
    800006f8:	0005b283          	ld	t0,0(a1)
    800006fc:	00858593          	addi	a1,a1,8
    80000700:	0010039b          	addiw	t2,zero,1
    80000704:	02239393          	slli	t2,t2,0x22
    80000708:	ff838393          	addi	t2,t2,-8
    8000070c:	00728463          	beq	t0,t2,80000714 <test_53>
    80000710:	03c0106f          	j	8000174c <fail>

0000000080000714 <test_53>:
    80000714:	03500193          	li	gp,53
    80000718:	0005b283          	ld	t0,0(a1)
    8000071c:	00858593          	addi	a1,a1,8
    80000720:	0070039b          	addiw	t2,zero,7
    80000724:	02039393          	slli	t2,t2,0x20
    80000728:	00728463          	beq	t0,t2,80000730 <test_54>
    8000072c:	0200106f          	j	8000174c <fail>

0000000080000730 <test_54>:
    80000730:	03600193          	li	gp,54
    80000734:	0005b283          	ld	t0,0(a1)
    80000738:	00858593          	addi	a1,a1,8
    8000073c:	f00003b7          	lui	t2,0xf0000
    80000740:	fff3839b          	addiw	t2,t2,-1
    80000744:	00728463          	beq	t0,t2,8000074c <test_55>
    80000748:	0040106f          	j	8000174c <fail>

000000008000074c <test_55>:
    8000074c:	03700193          	li	gp,55
    80000750:	0005b283          	ld	t0,0(a1)
    80000754:	00858593          	addi	a1,a1,8
    80000758:	0010039b          	addiw	t2,zero,1
    8000075c:	02039393          	slli	t2,t2,0x20
    80000760:	7e7296e3          	bne	t0,t2,8000174c <fail>

0000000080000764 <test_56>:
    80000764:	03800193          	li	gp,56
    80000768:	0005b283          	ld	t0,0(a1)
    8000076c:	00858593          	addi	a1,a1,8
    80000770:	fff0039b          	addiw	t2,zero,-1
    80000774:	03c39393          	slli	t2,t2,0x3c
    80000778:	fff38393          	addi	t2,t2,-1 # ffffffffefffffff <_end+0xffffffff6fffce3f>
    8000077c:	7c7298e3          	bne	t0,t2,8000174c <fail>

0000000080000780 <test_57>:
    80000780:	03900193          	li	gp,57
    80000784:	0005b283          	ld	t0,0(a1)
    80000788:	00858593          	addi	a1,a1,8
    8000078c:	0010039b          	addiw	t2,zero,1
    80000790:	02039393          	slli	t2,t2,0x20
    80000794:	7a729ce3          	bne	t0,t2,8000174c <fail>

0000000080000798 <test_58>:
    80000798:	03a00193          	li	gp,58
    8000079c:	0005b283          	ld	t0,0(a1)
    800007a0:	00858593          	addi	a1,a1,8
    800007a4:	00100393          	li	t2,1
    800007a8:	7a7292e3          	bne	t0,t2,8000174c <fail>

00000000800007ac <test_59>:
    800007ac:	03b00193          	li	gp,59
    800007b0:	0005b283          	ld	t0,0(a1)
    800007b4:	00858593          	addi	a1,a1,8
    800007b8:	00100393          	li	t2,1
    800007bc:	787298e3          	bne	t0,t2,8000174c <fail>

00000000800007c0 <test_60>:
    800007c0:	03c00193          	li	gp,60
    800007c4:	0005b283          	ld	t0,0(a1)
    800007c8:	00858593          	addi	a1,a1,8
    800007cc:	0010039b          	addiw	t2,zero,1
    800007d0:	02239393          	slli	t2,t2,0x22
    800007d4:	ff838393          	addi	t2,t2,-8
    800007d8:	76729ae3          	bne	t0,t2,8000174c <fail>

00000000800007dc <test_61>:
    800007dc:	03d00193          	li	gp,61
    800007e0:	0005b283          	ld	t0,0(a1)
    800007e4:	00858593          	addi	a1,a1,8
    800007e8:	0070039b          	addiw	t2,zero,7
    800007ec:	02039393          	slli	t2,t2,0x20
    800007f0:	74729ee3          	bne	t0,t2,8000174c <fail>

00000000800007f4 <test_62>:
    800007f4:	03e00193          	li	gp,62
    800007f8:	0005b283          	ld	t0,0(a1)
    800007fc:	00858593          	addi	a1,a1,8
    80000800:	f00003b7          	lui	t2,0xf0000
    80000804:	fff3839b          	addiw	t2,t2,-1
    80000808:	747292e3          	bne	t0,t2,8000174c <fail>

000000008000080c <test_63>:
    8000080c:	03f00193          	li	gp,63
    80000810:	0005b283          	ld	t0,0(a1)
    80000814:	00858593          	addi	a1,a1,8
    80000818:	0010039b          	addiw	t2,zero,1
    8000081c:	02039393          	slli	t2,t2,0x20
    80000820:	727296e3          	bne	t0,t2,8000174c <fail>

0000000080000824 <test_64>:
    80000824:	04000193          	li	gp,64
    80000828:	0005b283          	ld	t0,0(a1)
    8000082c:	00858593          	addi	a1,a1,8
    80000830:	fff0039b          	addiw	t2,zero,-1
    80000834:	03c39393          	slli	t2,t2,0x3c
    80000838:	fff38393          	addi	t2,t2,-1 # ffffffffefffffff <_end+0xffffffff6fffce3f>
    8000083c:	707298e3          	bne	t0,t2,8000174c <fail>

0000000080000840 <test_65>:
    80000840:	04100193          	li	gp,65
    80000844:	0005b283          	ld	t0,0(a1)
    80000848:	00858593          	addi	a1,a1,8
    8000084c:	0010039b          	addiw	t2,zero,1
    80000850:	02039393          	slli	t2,t2,0x20
    80000854:	6e729ce3          	bne	t0,t2,8000174c <fail>
    80000858:	fff00293          	li	t0,-1
    8000085c:	0d12f357          	vsetvli	t1,t0,e32,m2,ta,ma
    80000860:	00003617          	auipc	a2,0x3
    80000864:	8b060613          	addi	a2,a2,-1872 # 80003110 <tdat>
    80000868:	02066407          	vle32.v	v8,(a2)
    8000086c:	0d22f357          	vsetvli	t1,t0,e32,m4,ta,ma
    80000870:	02066207          	vle32.v	v4,(a2)
    80000874:	00003617          	auipc	a2,0x3
    80000878:	8a460613          	addi	a2,a2,-1884 # 80003118 <tdat+0x8>
    8000087c:	0d12f357          	vsetvli	t1,t0,e32,m2,ta,ma
    80000880:	02066607          	vle32.v	v12,(a2)
    80000884:	00f00293          	li	t0,15
    80000888:	0d12f357          	vsetvli	t1,t0,e32,m2,ta,ma
    8000088c:	c2860257          	vwredsumu.vs	v4,v8,v12
    80000890:	fff00293          	li	t0,-1
    80000894:	0d22f357          	vsetvli	t1,t0,e32,m4,ta,ma
    80000898:	00002597          	auipc	a1,0x2
    8000089c:	76858593          	addi	a1,a1,1896 # 80003000 <begin_signature>
    800008a0:	0205e227          	vse32.v	v4,(a1)

00000000800008a4 <test_66>:
    800008a4:	04200193          	li	gp,66
    800008a8:	0005b283          	ld	t0,0(a1)
    800008ac:	00858593          	addi	a1,a1,8
    800008b0:	0270039b          	addiw	t2,zero,39
    800008b4:	01d39393          	slli	t2,t2,0x1d
    800008b8:	00238393          	addi	t2,t2,2
    800008bc:	687298e3          	bne	t0,t2,8000174c <fail>

00000000800008c0 <test_67>:
    800008c0:	04300193          	li	gp,67
    800008c4:	0005b283          	ld	t0,0(a1)
    800008c8:	00858593          	addi	a1,a1,8
    800008cc:	00100393          	li	t2,1
    800008d0:	66729ee3          	bne	t0,t2,8000174c <fail>

00000000800008d4 <test_68>:
    800008d4:	04400193          	li	gp,68
    800008d8:	0005b283          	ld	t0,0(a1)
    800008dc:	00858593          	addi	a1,a1,8
    800008e0:	0010039b          	addiw	t2,zero,1
    800008e4:	02239393          	slli	t2,t2,0x22
    800008e8:	ff838393          	addi	t2,t2,-8
    800008ec:	667290e3          	bne	t0,t2,8000174c <fail>

00000000800008f0 <test_69>:
    800008f0:	04500193          	li	gp,69
    800008f4:	0005b283          	ld	t0,0(a1)
    800008f8:	00858593          	addi	a1,a1,8
    800008fc:	0070039b          	addiw	t2,zero,7
    80000900:	02039393          	slli	t2,t2,0x20
    80000904:	647294e3          	bne	t0,t2,8000174c <fail>

0000000080000908 <test_70>:
    80000908:	04600193          	li	gp,70
    8000090c:	0005b283          	ld	t0,0(a1)
    80000910:	00858593          	addi	a1,a1,8
    80000914:	f00003b7          	lui	t2,0xf0000
    80000918:	fff3839b          	addiw	t2,t2,-1
    8000091c:	627298e3          	bne	t0,t2,8000174c <fail>

0000000080000920 <test_71>:
    80000920:	04700193          	li	gp,71
    80000924:	0005b283          	ld	t0,0(a1)
    80000928:	00858593          	addi	a1,a1,8
    8000092c:	0010039b          	addiw	t2,zero,1
    80000930:	02039393          	slli	t2,t2,0x20
    80000934:	60729ce3          	bne	t0,t2,8000174c <fail>

0000000080000938 <test_72>:
    80000938:	04800193          	li	gp,72
    8000093c:	0005b283          	ld	t0,0(a1)
    80000940:	00858593          	addi	a1,a1,8
    80000944:	fff0039b          	addiw	t2,zero,-1
    80000948:	03c39393          	slli	t2,t2,0x3c
    8000094c:	fff38393          	addi	t2,t2,-1 # ffffffffefffffff <_end+0xffffffff6fffce3f>
    80000950:	5e729ee3          	bne	t0,t2,8000174c <fail>

0000000080000954 <test_73>:
    80000954:	04900193          	li	gp,73
    80000958:	0005b283          	ld	t0,0(a1)
    8000095c:	00858593          	addi	a1,a1,8
    80000960:	0010039b          	addiw	t2,zero,1
    80000964:	02039393          	slli	t2,t2,0x20
    80000968:	5e7292e3          	bne	t0,t2,8000174c <fail>

000000008000096c <test_74>:
    8000096c:	04a00193          	li	gp,74
    80000970:	0005b283          	ld	t0,0(a1)
    80000974:	00858593          	addi	a1,a1,8
    80000978:	00100393          	li	t2,1
    8000097c:	5c7298e3          	bne	t0,t2,8000174c <fail>

0000000080000980 <test_75>:
    80000980:	04b00193          	li	gp,75
    80000984:	0005b283          	ld	t0,0(a1)
    80000988:	00858593          	addi	a1,a1,8
    8000098c:	00100393          	li	t2,1
    80000990:	5a729ee3          	bne	t0,t2,8000174c <fail>

0000000080000994 <test_76>:
    80000994:	04c00193          	li	gp,76
    80000998:	0005b283          	ld	t0,0(a1)
    8000099c:	00858593          	addi	a1,a1,8
    800009a0:	0010039b          	addiw	t2,zero,1
    800009a4:	02239393          	slli	t2,t2,0x22
    800009a8:	ff838393          	addi	t2,t2,-8
    800009ac:	5a7290e3          	bne	t0,t2,8000174c <fail>

00000000800009b0 <test_77>:
    800009b0:	04d00193          	li	gp,77
    800009b4:	0005b283          	ld	t0,0(a1)
    800009b8:	00858593          	addi	a1,a1,8
    800009bc:	0070039b          	addiw	t2,zero,7
    800009c0:	02039393          	slli	t2,t2,0x20
    800009c4:	587294e3          	bne	t0,t2,8000174c <fail>

00000000800009c8 <test_78>:
    800009c8:	04e00193          	li	gp,78
    800009cc:	0005b283          	ld	t0,0(a1)
    800009d0:	00858593          	addi	a1,a1,8
    800009d4:	f00003b7          	lui	t2,0xf0000
    800009d8:	fff3839b          	addiw	t2,t2,-1
    800009dc:	567298e3          	bne	t0,t2,8000174c <fail>

00000000800009e0 <test_79>:
    800009e0:	04f00193          	li	gp,79
    800009e4:	0005b283          	ld	t0,0(a1)
    800009e8:	00858593          	addi	a1,a1,8
    800009ec:	0010039b          	addiw	t2,zero,1
    800009f0:	02039393          	slli	t2,t2,0x20
    800009f4:	54729ce3          	bne	t0,t2,8000174c <fail>

00000000800009f8 <test_80>:
    800009f8:	05000193          	li	gp,80
    800009fc:	0005b283          	ld	t0,0(a1)
    80000a00:	00858593          	addi	a1,a1,8
    80000a04:	fff0039b          	addiw	t2,zero,-1
    80000a08:	03c39393          	slli	t2,t2,0x3c
    80000a0c:	fff38393          	addi	t2,t2,-1 # ffffffffefffffff <_end+0xffffffff6fffce3f>
    80000a10:	52729ee3          	bne	t0,t2,8000174c <fail>

0000000080000a14 <test_81>:
    80000a14:	05100193          	li	gp,81
    80000a18:	0005b283          	ld	t0,0(a1)
    80000a1c:	00858593          	addi	a1,a1,8
    80000a20:	0010039b          	addiw	t2,zero,1
    80000a24:	02039393          	slli	t2,t2,0x20
    80000a28:	527292e3          	bne	t0,t2,8000174c <fail>
    80000a2c:	fff00293          	li	t0,-1
    80000a30:	0d12f357          	vsetvli	t1,t0,e32,m2,ta,ma
    80000a34:	00002617          	auipc	a2,0x2
    80000a38:	6dc60613          	addi	a2,a2,1756 # 80003110 <tdat>
    80000a3c:	02066407          	vle32.v	v8,(a2)
    80000a40:	0d22f357          	vsetvli	t1,t0,e32,m4,ta,ma
    80000a44:	02066207          	vle32.v	v4,(a2)
    80000a48:	00002617          	auipc	a2,0x2
    80000a4c:	6d060613          	addi	a2,a2,1744 # 80003118 <tdat+0x8>
    80000a50:	0d12f357          	vsetvli	t1,t0,e32,m2,ta,ma
    80000a54:	02066607          	vle32.v	v12,(a2)
    80000a58:	00f00293          	li	t0,15
    80000a5c:	0912f357          	vsetvli	t1,t0,e32,m2,tu,ma
    80000a60:	c2860257          	vwredsumu.vs	v4,v8,v12
    80000a64:	fff00293          	li	t0,-1
    80000a68:	0d22f357          	vsetvli	t1,t0,e32,m4,ta,ma
    80000a6c:	00002597          	auipc	a1,0x2
    80000a70:	59458593          	addi	a1,a1,1428 # 80003000 <begin_signature>
    80000a74:	0205e227          	vse32.v	v4,(a1)

0000000080000a78 <test_82>:
    80000a78:	05200193          	li	gp,82
    80000a7c:	0005b283          	ld	t0,0(a1)
    80000a80:	00858593          	addi	a1,a1,8
    80000a84:	0270039b          	addiw	t2,zero,39
    80000a88:	01d39393          	slli	t2,t2,0x1d
    80000a8c:	00238393          	addi	t2,t2,2
    80000a90:	4a729ee3          	bne	t0,t2,8000174c <fail>

0000000080000a94 <test_83>:
    80000a94:	05300193          	li	gp,83
    80000a98:	0005b283          	ld	t0,0(a1)
    80000a9c:	00858593          	addi	a1,a1,8
    80000aa0:	00100393          	li	t2,1
    80000aa4:	4a7294e3          	bne	t0,t2,8000174c <fail>

0000000080000aa8 <test_84>:
    80000aa8:	05400193          	li	gp,84
    80000aac:	0005b283          	ld	t0,0(a1)
    80000ab0:	00858593          	addi	a1,a1,8
    80000ab4:	0010039b          	addiw	t2,zero,1
    80000ab8:	02239393          	slli	t2,t2,0x22
    80000abc:	ff838393          	addi	t2,t2,-8
    80000ac0:	487296e3          	bne	t0,t2,8000174c <fail>

0000000080000ac4 <test_85>:
    80000ac4:	05500193          	li	gp,85
    80000ac8:	0005b283          	ld	t0,0(a1)
    80000acc:	00858593          	addi	a1,a1,8
    80000ad0:	0070039b          	addiw	t2,zero,7
    80000ad4:	02039393          	slli	t2,t2,0x20
    80000ad8:	46729ae3          	bne	t0,t2,8000174c <fail>

0000000080000adc <test_86>:
    80000adc:	05600193          	li	gp,86
    80000ae0:	0005b283          	ld	t0,0(a1)
    80000ae4:	00858593          	addi	a1,a1,8
    80000ae8:	f00003b7          	lui	t2,0xf0000
    80000aec:	fff3839b          	addiw	t2,t2,-1
    80000af0:	44729ee3          	bne	t0,t2,8000174c <fail>

0000000080000af4 <test_87>:
    80000af4:	05700193          	li	gp,87
    80000af8:	0005b283          	ld	t0,0(a1)
    80000afc:	00858593          	addi	a1,a1,8
    80000b00:	0010039b          	addiw	t2,zero,1
    80000b04:	02039393          	slli	t2,t2,0x20
    80000b08:	447292e3          	bne	t0,t2,8000174c <fail>

0000000080000b0c <test_88>:
    80000b0c:	05800193          	li	gp,88
    80000b10:	0005b283          	ld	t0,0(a1)
    80000b14:	00858593          	addi	a1,a1,8
    80000b18:	fff0039b          	addiw	t2,zero,-1
    80000b1c:	03c39393          	slli	t2,t2,0x3c
    80000b20:	fff38393          	addi	t2,t2,-1 # ffffffffefffffff <_end+0xffffffff6fffce3f>
    80000b24:	427294e3          	bne	t0,t2,8000174c <fail>

0000000080000b28 <test_89>:
    80000b28:	05900193          	li	gp,89
    80000b2c:	0005b283          	ld	t0,0(a1)
    80000b30:	00858593          	addi	a1,a1,8
    80000b34:	0010039b          	addiw	t2,zero,1
    80000b38:	02039393          	slli	t2,t2,0x20
    80000b3c:	407298e3          	bne	t0,t2,8000174c <fail>

0000000080000b40 <test_90>:
    80000b40:	05a00193          	li	gp,90
    80000b44:	0005b283          	ld	t0,0(a1)
    80000b48:	00858593          	addi	a1,a1,8
    80000b4c:	00100393          	li	t2,1
    80000b50:	3e729ee3          	bne	t0,t2,8000174c <fail>

0000000080000b54 <test_91>:
    80000b54:	05b00193          	li	gp,91
    80000b58:	0005b283          	ld	t0,0(a1)
    80000b5c:	00858593          	addi	a1,a1,8
    80000b60:	00100393          	li	t2,1
    80000b64:	3e7294e3          	bne	t0,t2,8000174c <fail>

0000000080000b68 <test_92>:
    80000b68:	05c00193          	li	gp,92
    80000b6c:	0005b283          	ld	t0,0(a1)
    80000b70:	00858593          	addi	a1,a1,8
    80000b74:	0010039b          	addiw	t2,zero,1
    80000b78:	02239393          	slli	t2,t2,0x22
    80000b7c:	ff838393          	addi	t2,t2,-8
    80000b80:	3c7296e3          	bne	t0,t2,8000174c <fail>

0000000080000b84 <test_93>:
    80000b84:	05d00193          	li	gp,93
    80000b88:	0005b283          	ld	t0,0(a1)
    80000b8c:	00858593          	addi	a1,a1,8
    80000b90:	0070039b          	addiw	t2,zero,7
    80000b94:	02039393          	slli	t2,t2,0x20
    80000b98:	3a729ae3          	bne	t0,t2,8000174c <fail>

0000000080000b9c <test_94>:
    80000b9c:	05e00193          	li	gp,94
    80000ba0:	0005b283          	ld	t0,0(a1)
    80000ba4:	00858593          	addi	a1,a1,8
    80000ba8:	f00003b7          	lui	t2,0xf0000
    80000bac:	fff3839b          	addiw	t2,t2,-1
    80000bb0:	38729ee3          	bne	t0,t2,8000174c <fail>

0000000080000bb4 <test_95>:
    80000bb4:	05f00193          	li	gp,95
    80000bb8:	0005b283          	ld	t0,0(a1)
    80000bbc:	00858593          	addi	a1,a1,8
    80000bc0:	0010039b          	addiw	t2,zero,1
    80000bc4:	02039393          	slli	t2,t2,0x20
    80000bc8:	387292e3          	bne	t0,t2,8000174c <fail>

0000000080000bcc <test_96>:
    80000bcc:	06000193          	li	gp,96
    80000bd0:	0005b283          	ld	t0,0(a1)
    80000bd4:	00858593          	addi	a1,a1,8
    80000bd8:	fff0039b          	addiw	t2,zero,-1
    80000bdc:	03c39393          	slli	t2,t2,0x3c
    80000be0:	fff38393          	addi	t2,t2,-1 # ffffffffefffffff <_end+0xffffffff6fffce3f>
    80000be4:	367294e3          	bne	t0,t2,8000174c <fail>

0000000080000be8 <test_97>:
    80000be8:	06100193          	li	gp,97
    80000bec:	0005b283          	ld	t0,0(a1)
    80000bf0:	00858593          	addi	a1,a1,8
    80000bf4:	0010039b          	addiw	t2,zero,1
    80000bf8:	02039393          	slli	t2,t2,0x20
    80000bfc:	347298e3          	bne	t0,t2,8000174c <fail>
    80000c00:	fff00293          	li	t0,-1
    80000c04:	0d12f357          	vsetvli	t1,t0,e32,m2,ta,ma
    80000c08:	00002617          	auipc	a2,0x2
    80000c0c:	50860613          	addi	a2,a2,1288 # 80003110 <tdat>
    80000c10:	02066407          	vle32.v	v8,(a2)
    80000c14:	0d22f357          	vsetvli	t1,t0,e32,m4,ta,ma
    80000c18:	02066207          	vle32.v	v4,(a2)
    80000c1c:	00002617          	auipc	a2,0x2
    80000c20:	4fc60613          	addi	a2,a2,1276 # 80003118 <tdat+0x8>
    80000c24:	0d12f357          	vsetvli	t1,t0,e32,m2,ta,ma
    80000c28:	02066607          	vle32.v	v12,(a2)
    80000c2c:	fff00293          	li	t0,-1
    80000c30:	0c02f357          	vsetvli	t1,t0,e8,m1,ta,ma
    80000c34:	00002697          	auipc	a3,0x2
    80000c38:	56468693          	addi	a3,a3,1380 # 80003198 <mask>
    80000c3c:	02068007          	vle8.v	v0,(a3)
    80000c40:	00f00293          	li	t0,15
    80000c44:	0d12f357          	vsetvli	t1,t0,e32,m2,ta,ma
    80000c48:	c0860257          	vwredsumu.vs	v4,v8,v12,v0.t
    80000c4c:	fff00293          	li	t0,-1
    80000c50:	0d22f357          	vsetvli	t1,t0,e32,m4,ta,ma
    80000c54:	00002597          	auipc	a1,0x2
    80000c58:	3ac58593          	addi	a1,a1,940 # 80003000 <begin_signature>
    80000c5c:	0205e227          	vse32.v	v4,(a1)

0000000080000c60 <test_98>:
    80000c60:	06200193          	li	gp,98
    80000c64:	0005b283          	ld	t0,0(a1)
    80000c68:	00858593          	addi	a1,a1,8
    80000c6c:	02f0039b          	addiw	t2,zero,47
    80000c70:	01c39393          	slli	t2,t2,0x1c
    80000c74:	ff938393          	addi	t2,t2,-7
    80000c78:	2c729ae3          	bne	t0,t2,8000174c <fail>

0000000080000c7c <test_99>:
    80000c7c:	06300193          	li	gp,99
    80000c80:	0005b283          	ld	t0,0(a1)
    80000c84:	00858593          	addi	a1,a1,8
    80000c88:	00100393          	li	t2,1
    80000c8c:	2c7290e3          	bne	t0,t2,8000174c <fail>

0000000080000c90 <test_100>:
    80000c90:	06400193          	li	gp,100
    80000c94:	0005b283          	ld	t0,0(a1)
    80000c98:	00858593          	addi	a1,a1,8
    80000c9c:	0010039b          	addiw	t2,zero,1
    80000ca0:	02239393          	slli	t2,t2,0x22
    80000ca4:	ff838393          	addi	t2,t2,-8
    80000ca8:	2a7292e3          	bne	t0,t2,8000174c <fail>

0000000080000cac <test_101>:
    80000cac:	06500193          	li	gp,101
    80000cb0:	0005b283          	ld	t0,0(a1)
    80000cb4:	00858593          	addi	a1,a1,8
    80000cb8:	0070039b          	addiw	t2,zero,7
    80000cbc:	02039393          	slli	t2,t2,0x20
    80000cc0:	287296e3          	bne	t0,t2,8000174c <fail>

0000000080000cc4 <test_102>:
    80000cc4:	06600193          	li	gp,102
    80000cc8:	0005b283          	ld	t0,0(a1)
    80000ccc:	00858593          	addi	a1,a1,8
    80000cd0:	f00003b7          	lui	t2,0xf0000
    80000cd4:	fff3839b          	addiw	t2,t2,-1
    80000cd8:	26729ae3          	bne	t0,t2,8000174c <fail>

0000000080000cdc <test_103>:
    80000cdc:	06700193          	li	gp,103
    80000ce0:	0005b283          	ld	t0,0(a1)
    80000ce4:	00858593          	addi	a1,a1,8
    80000ce8:	0010039b          	addiw	t2,zero,1
    80000cec:	02039393          	slli	t2,t2,0x20
    80000cf0:	24729ee3          	bne	t0,t2,8000174c <fail>

0000000080000cf4 <test_104>:
    80000cf4:	06800193          	li	gp,104
    80000cf8:	0005b283          	ld	t0,0(a1)
    80000cfc:	00858593          	addi	a1,a1,8
    80000d00:	fff0039b          	addiw	t2,zero,-1
    80000d04:	03c39393          	slli	t2,t2,0x3c
    80000d08:	fff38393          	addi	t2,t2,-1 # ffffffffefffffff <_end+0xffffffff6fffce3f>
    80000d0c:	247290e3          	bne	t0,t2,8000174c <fail>

0000000080000d10 <test_105>:
    80000d10:	06900193          	li	gp,105
    80000d14:	0005b283          	ld	t0,0(a1)
    80000d18:	00858593          	addi	a1,a1,8
    80000d1c:	0010039b          	addiw	t2,zero,1
    80000d20:	02039393          	slli	t2,t2,0x20
    80000d24:	227294e3          	bne	t0,t2,8000174c <fail>

0000000080000d28 <test_106>:
    80000d28:	06a00193          	li	gp,106
    80000d2c:	0005b283          	ld	t0,0(a1)
    80000d30:	00858593          	addi	a1,a1,8
    80000d34:	00100393          	li	t2,1
    80000d38:	20729ae3          	bne	t0,t2,8000174c <fail>

0000000080000d3c <test_107>:
    80000d3c:	06b00193          	li	gp,107
    80000d40:	0005b283          	ld	t0,0(a1)
    80000d44:	00858593          	addi	a1,a1,8
    80000d48:	00100393          	li	t2,1
    80000d4c:	207290e3          	bne	t0,t2,8000174c <fail>

0000000080000d50 <test_108>:
    80000d50:	06c00193          	li	gp,108
    80000d54:	0005b283          	ld	t0,0(a1)
    80000d58:	00858593          	addi	a1,a1,8
    80000d5c:	0010039b          	addiw	t2,zero,1
    80000d60:	02239393          	slli	t2,t2,0x22
    80000d64:	ff838393          	addi	t2,t2,-8
    80000d68:	1e7292e3          	bne	t0,t2,8000174c <fail>

0000000080000d6c <test_109>:
    80000d6c:	06d00193          	li	gp,109
    80000d70:	0005b283          	ld	t0,0(a1)
    80000d74:	00858593          	addi	a1,a1,8
    80000d78:	0070039b          	addiw	t2,zero,7
    80000d7c:	02039393          	slli	t2,t2,0x20
    80000d80:	1c7296e3          	bne	t0,t2,8000174c <fail>

0000000080000d84 <test_110>:
    80000d84:	06e00193          	li	gp,110
    80000d88:	0005b283          	ld	t0,0(a1)
    80000d8c:	00858593          	addi	a1,a1,8
    80000d90:	f00003b7          	lui	t2,0xf0000
    80000d94:	fff3839b          	addiw	t2,t2,-1
    80000d98:	1a729ae3          	bne	t0,t2,8000174c <fail>

0000000080000d9c <test_111>:
    80000d9c:	06f00193          	li	gp,111
    80000da0:	0005b283          	ld	t0,0(a1)
    80000da4:	00858593          	addi	a1,a1,8
    80000da8:	0010039b          	addiw	t2,zero,1
    80000dac:	02039393          	slli	t2,t2,0x20
    80000db0:	18729ee3          	bne	t0,t2,8000174c <fail>

0000000080000db4 <test_112>:
    80000db4:	07000193          	li	gp,112
    80000db8:	0005b283          	ld	t0,0(a1)
    80000dbc:	00858593          	addi	a1,a1,8
    80000dc0:	fff0039b          	addiw	t2,zero,-1
    80000dc4:	03c39393          	slli	t2,t2,0x3c
    80000dc8:	fff38393          	addi	t2,t2,-1 # ffffffffefffffff <_end+0xffffffff6fffce3f>
    80000dcc:	187290e3          	bne	t0,t2,8000174c <fail>

0000000080000dd0 <test_113>:
    80000dd0:	07100193          	li	gp,113
    80000dd4:	0005b283          	ld	t0,0(a1)
    80000dd8:	00858593          	addi	a1,a1,8
    80000ddc:	0010039b          	addiw	t2,zero,1
    80000de0:	02039393          	slli	t2,t2,0x20
    80000de4:	167294e3          	bne	t0,t2,8000174c <fail>
    80000de8:	fff00293          	li	t0,-1
    80000dec:	0d12f357          	vsetvli	t1,t0,e32,m2,ta,ma
    80000df0:	00002617          	auipc	a2,0x2
    80000df4:	32060613          	addi	a2,a2,800 # 80003110 <tdat>
    80000df8:	02066407          	vle32.v	v8,(a2)
    80000dfc:	0d22f357          	vsetvli	t1,t0,e32,m4,ta,ma
    80000e00:	02066207          	vle32.v	v4,(a2)
    80000e04:	00002617          	auipc	a2,0x2
    80000e08:	31460613          	addi	a2,a2,788 # 80003118 <tdat+0x8>
    80000e0c:	0d12f357          	vsetvli	t1,t0,e32,m2,ta,ma
    80000e10:	02066607          	vle32.v	v12,(a2)
    80000e14:	fff00293          	li	t0,-1
    80000e18:	0c02f357          	vsetvli	t1,t0,e8,m1,ta,ma
    80000e1c:	00002697          	auipc	a3,0x2
    80000e20:	37c68693          	addi	a3,a3,892 # 80003198 <mask>
    80000e24:	02068007          	vle8.v	v0,(a3)
    80000e28:	00f00293          	li	t0,15
    80000e2c:	0d12f357          	vsetvli	t1,t0,e32,m2,ta,ma
    80000e30:	c0860257          	vwredsumu.vs	v4,v8,v12,v0.t
    80000e34:	fff00293          	li	t0,-1
    80000e38:	0d22f357          	vsetvli	t1,t0,e32,m4,ta,ma
    80000e3c:	00002597          	auipc	a1,0x2
    80000e40:	1c458593          	addi	a1,a1,452 # 80003000 <begin_signature>
    80000e44:	0205e227          	vse32.v	v4,(a1)

0000000080000e48 <test_114>:
    80000e48:	07200193          	li	gp,114
    80000e4c:	0005b283          	ld	t0,0(a1)
    80000e50:	00858593          	addi	a1,a1,8
    80000e54:	02f0039b          	addiw	t2,zero,47
    80000e58:	01c39393          	slli	t2,t2,0x1c
    80000e5c:	ff938393          	addi	t2,t2,-7
    80000e60:	0e7296e3          	bne	t0,t2,8000174c <fail>

0000000080000e64 <test_115>:
    80000e64:	07300193          	li	gp,115
    80000e68:	0005b283          	ld	t0,0(a1)
    80000e6c:	00858593          	addi	a1,a1,8
    80000e70:	00100393          	li	t2,1
    80000e74:	0c729ce3          	bne	t0,t2,8000174c <fail>

0000000080000e78 <test_116>:
    80000e78:	07400193          	li	gp,116
    80000e7c:	0005b283          	ld	t0,0(a1)
    80000e80:	00858593          	addi	a1,a1,8
    80000e84:	0010039b          	addiw	t2,zero,1
    80000e88:	02239393          	slli	t2,t2,0x22
    80000e8c:	ff838393          	addi	t2,t2,-8
    80000e90:	0a729ee3          	bne	t0,t2,8000174c <fail>

0000000080000e94 <test_117>:
    80000e94:	07500193          	li	gp,117
    80000e98:	0005b283          	ld	t0,0(a1)
    80000e9c:	00858593          	addi	a1,a1,8
    80000ea0:	0070039b          	addiw	t2,zero,7
    80000ea4:	02039393          	slli	t2,t2,0x20
    80000ea8:	0a7292e3          	bne	t0,t2,8000174c <fail>

0000000080000eac <test_118>:
    80000eac:	07600193          	li	gp,118
    80000eb0:	0005b283          	ld	t0,0(a1)
    80000eb4:	00858593          	addi	a1,a1,8
    80000eb8:	f00003b7          	lui	t2,0xf0000
    80000ebc:	fff3839b          	addiw	t2,t2,-1
    80000ec0:	087296e3          	bne	t0,t2,8000174c <fail>

0000000080000ec4 <test_119>:
    80000ec4:	07700193          	li	gp,119
    80000ec8:	0005b283          	ld	t0,0(a1)
    80000ecc:	00858593          	addi	a1,a1,8
    80000ed0:	0010039b          	addiw	t2,zero,1
    80000ed4:	02039393          	slli	t2,t2,0x20
    80000ed8:	06729ae3          	bne	t0,t2,8000174c <fail>

0000000080000edc <test_120>:
    80000edc:	07800193          	li	gp,120
    80000ee0:	0005b283          	ld	t0,0(a1)
    80000ee4:	00858593          	addi	a1,a1,8
    80000ee8:	fff0039b          	addiw	t2,zero,-1
    80000eec:	03c39393          	slli	t2,t2,0x3c
    80000ef0:	fff38393          	addi	t2,t2,-1 # ffffffffefffffff <_end+0xffffffff6fffce3f>
    80000ef4:	04729ce3          	bne	t0,t2,8000174c <fail>

0000000080000ef8 <test_121>:
    80000ef8:	07900193          	li	gp,121
    80000efc:	0005b283          	ld	t0,0(a1)
    80000f00:	00858593          	addi	a1,a1,8
    80000f04:	0010039b          	addiw	t2,zero,1
    80000f08:	02039393          	slli	t2,t2,0x20
    80000f0c:	047290e3          	bne	t0,t2,8000174c <fail>

0000000080000f10 <test_122>:
    80000f10:	07a00193          	li	gp,122
    80000f14:	0005b283          	ld	t0,0(a1)
    80000f18:	00858593          	addi	a1,a1,8
    80000f1c:	00100393          	li	t2,1
    80000f20:	027296e3          	bne	t0,t2,8000174c <fail>

0000000080000f24 <test_123>:
    80000f24:	07b00193          	li	gp,123
    80000f28:	0005b283          	ld	t0,0(a1)
    80000f2c:	00858593          	addi	a1,a1,8
    80000f30:	00100393          	li	t2,1
    80000f34:	00729ce3          	bne	t0,t2,8000174c <fail>

0000000080000f38 <test_124>:
    80000f38:	07c00193          	li	gp,124
    80000f3c:	0005b283          	ld	t0,0(a1)
    80000f40:	00858593          	addi	a1,a1,8
    80000f44:	0010039b          	addiw	t2,zero,1
    80000f48:	02239393          	slli	t2,t2,0x22
    80000f4c:	ff838393          	addi	t2,t2,-8
    80000f50:	7e729e63          	bne	t0,t2,8000174c <fail>

0000000080000f54 <test_125>:
    80000f54:	07d00193          	li	gp,125
    80000f58:	0005b283          	ld	t0,0(a1)
    80000f5c:	00858593          	addi	a1,a1,8
    80000f60:	0070039b          	addiw	t2,zero,7
    80000f64:	02039393          	slli	t2,t2,0x20
    80000f68:	7e729263          	bne	t0,t2,8000174c <fail>

0000000080000f6c <test_126>:
    80000f6c:	07e00193          	li	gp,126
    80000f70:	0005b283          	ld	t0,0(a1)
    80000f74:	00858593          	addi	a1,a1,8
    80000f78:	f00003b7          	lui	t2,0xf0000
    80000f7c:	fff3839b          	addiw	t2,t2,-1
    80000f80:	7c729663          	bne	t0,t2,8000174c <fail>

0000000080000f84 <test_127>:
    80000f84:	07f00193          	li	gp,127
    80000f88:	0005b283          	ld	t0,0(a1)
    80000f8c:	00858593          	addi	a1,a1,8
    80000f90:	0010039b          	addiw	t2,zero,1
    80000f94:	02039393          	slli	t2,t2,0x20
    80000f98:	7a729a63          	bne	t0,t2,8000174c <fail>

0000000080000f9c <test_128>:
    80000f9c:	08000193          	li	gp,128
    80000fa0:	0005b283          	ld	t0,0(a1)
    80000fa4:	00858593          	addi	a1,a1,8
    80000fa8:	fff0039b          	addiw	t2,zero,-1
    80000fac:	03c39393          	slli	t2,t2,0x3c
    80000fb0:	fff38393          	addi	t2,t2,-1 # ffffffffefffffff <_end+0xffffffff6fffce3f>
    80000fb4:	78729c63          	bne	t0,t2,8000174c <fail>

0000000080000fb8 <test_129>:
    80000fb8:	08100193          	li	gp,129
    80000fbc:	0005b283          	ld	t0,0(a1)
    80000fc0:	00858593          	addi	a1,a1,8
    80000fc4:	0010039b          	addiw	t2,zero,1
    80000fc8:	02039393          	slli	t2,t2,0x20
    80000fcc:	78729063          	bne	t0,t2,8000174c <fail>
    80000fd0:	fff00293          	li	t0,-1
    80000fd4:	0d12f357          	vsetvli	t1,t0,e32,m2,ta,ma
    80000fd8:	00002617          	auipc	a2,0x2
    80000fdc:	13860613          	addi	a2,a2,312 # 80003110 <tdat>
    80000fe0:	02066407          	vle32.v	v8,(a2)
    80000fe4:	0d22f357          	vsetvli	t1,t0,e32,m4,ta,ma
    80000fe8:	02066207          	vle32.v	v4,(a2)
    80000fec:	00002617          	auipc	a2,0x2
    80000ff0:	12c60613          	addi	a2,a2,300 # 80003118 <tdat+0x8>
    80000ff4:	0d12f357          	vsetvli	t1,t0,e32,m2,ta,ma
    80000ff8:	02066607          	vle32.v	v12,(a2)
    80000ffc:	01000293          	li	t0,16
    80001000:	0d12f357          	vsetvli	t1,t0,e32,m2,ta,ma
    80001004:	c2860257          	vwredsumu.vs	v4,v8,v12
    80001008:	fff00293          	li	t0,-1
    8000100c:	0d22f357          	vsetvli	t1,t0,e32,m4,ta,ma
    80001010:	00002597          	auipc	a1,0x2
    80001014:	ff058593          	addi	a1,a1,-16 # 80003000 <begin_signature>
    80001018:	0205e227          	vse32.v	v4,(a1)

000000008000101c <test_130>:
    8000101c:	08200193          	li	gp,130
    80001020:	0005b283          	ld	t0,0(a1)
    80001024:	00858593          	addi	a1,a1,8
    80001028:	0270039b          	addiw	t2,zero,39
    8000102c:	01d39393          	slli	t2,t2,0x1d
    80001030:	00338393          	addi	t2,t2,3
    80001034:	70729c63          	bne	t0,t2,8000174c <fail>

0000000080001038 <test_131>:
    80001038:	08300193          	li	gp,131
    8000103c:	0005b283          	ld	t0,0(a1)
    80001040:	00858593          	addi	a1,a1,8
    80001044:	00100393          	li	t2,1
    80001048:	70729263          	bne	t0,t2,8000174c <fail>

000000008000104c <test_132>:
    8000104c:	08400193          	li	gp,132
    80001050:	0005b283          	ld	t0,0(a1)
    80001054:	00858593          	addi	a1,a1,8
    80001058:	0010039b          	addiw	t2,zero,1
    8000105c:	02239393          	slli	t2,t2,0x22
    80001060:	ff838393          	addi	t2,t2,-8
    80001064:	6e729463          	bne	t0,t2,8000174c <fail>

0000000080001068 <test_133>:
    80001068:	08500193          	li	gp,133
    8000106c:	0005b283          	ld	t0,0(a1)
    80001070:	00858593          	addi	a1,a1,8
    80001074:	0070039b          	addiw	t2,zero,7
    80001078:	02039393          	slli	t2,t2,0x20
    8000107c:	6c729863          	bne	t0,t2,8000174c <fail>

0000000080001080 <test_134>:
    80001080:	08600193          	li	gp,134
    80001084:	0005b283          	ld	t0,0(a1)
    80001088:	00858593          	addi	a1,a1,8
    8000108c:	f00003b7          	lui	t2,0xf0000
    80001090:	fff3839b          	addiw	t2,t2,-1
    80001094:	6a729c63          	bne	t0,t2,8000174c <fail>

0000000080001098 <test_135>:
    80001098:	08700193          	li	gp,135
    8000109c:	0005b283          	ld	t0,0(a1)
    800010a0:	00858593          	addi	a1,a1,8
    800010a4:	0010039b          	addiw	t2,zero,1
    800010a8:	02039393          	slli	t2,t2,0x20
    800010ac:	6a729063          	bne	t0,t2,8000174c <fail>

00000000800010b0 <test_136>:
    800010b0:	08800193          	li	gp,136
    800010b4:	0005b283          	ld	t0,0(a1)
    800010b8:	00858593          	addi	a1,a1,8
    800010bc:	fff0039b          	addiw	t2,zero,-1
    800010c0:	03c39393          	slli	t2,t2,0x3c
    800010c4:	fff38393          	addi	t2,t2,-1 # ffffffffefffffff <_end+0xffffffff6fffce3f>
    800010c8:	68729263          	bne	t0,t2,8000174c <fail>

00000000800010cc <test_137>:
    800010cc:	08900193          	li	gp,137
    800010d0:	0005b283          	ld	t0,0(a1)
    800010d4:	00858593          	addi	a1,a1,8
    800010d8:	0010039b          	addiw	t2,zero,1
    800010dc:	02039393          	slli	t2,t2,0x20
    800010e0:	66729663          	bne	t0,t2,8000174c <fail>

00000000800010e4 <test_138>:
    800010e4:	08a00193          	li	gp,138
    800010e8:	0005b283          	ld	t0,0(a1)
    800010ec:	00858593          	addi	a1,a1,8
    800010f0:	00100393          	li	t2,1
    800010f4:	64729c63          	bne	t0,t2,8000174c <fail>

00000000800010f8 <test_139>:
    800010f8:	08b00193          	li	gp,139
    800010fc:	0005b283          	ld	t0,0(a1)
    80001100:	00858593          	addi	a1,a1,8
    80001104:	00100393          	li	t2,1
    80001108:	64729263          	bne	t0,t2,8000174c <fail>

000000008000110c <test_140>:
    8000110c:	08c00193          	li	gp,140
    80001110:	0005b283          	ld	t0,0(a1)
    80001114:	00858593          	addi	a1,a1,8
    80001118:	0010039b          	addiw	t2,zero,1
    8000111c:	02239393          	slli	t2,t2,0x22
    80001120:	ff838393          	addi	t2,t2,-8
    80001124:	62729463          	bne	t0,t2,8000174c <fail>

0000000080001128 <test_141>:
    80001128:	08d00193          	li	gp,141
    8000112c:	0005b283          	ld	t0,0(a1)
    80001130:	00858593          	addi	a1,a1,8
    80001134:	0070039b          	addiw	t2,zero,7
    80001138:	02039393          	slli	t2,t2,0x20
    8000113c:	60729863          	bne	t0,t2,8000174c <fail>

0000000080001140 <test_142>:
    80001140:	08e00193          	li	gp,142
    80001144:	0005b283          	ld	t0,0(a1)
    80001148:	00858593          	addi	a1,a1,8
    8000114c:	f00003b7          	lui	t2,0xf0000
    80001150:	fff3839b          	addiw	t2,t2,-1
    80001154:	5e729c63          	bne	t0,t2,8000174c <fail>

0000000080001158 <test_143>:
    80001158:	08f00193          	li	gp,143
    8000115c:	0005b283          	ld	t0,0(a1)
    80001160:	00858593          	addi	a1,a1,8
    80001164:	0010039b          	addiw	t2,zero,1
    80001168:	02039393          	slli	t2,t2,0x20
    8000116c:	5e729063          	bne	t0,t2,8000174c <fail>

0000000080001170 <test_144>:
    80001170:	09000193          	li	gp,144
    80001174:	0005b283          	ld	t0,0(a1)
    80001178:	00858593          	addi	a1,a1,8
    8000117c:	fff0039b          	addiw	t2,zero,-1
    80001180:	03c39393          	slli	t2,t2,0x3c
    80001184:	fff38393          	addi	t2,t2,-1 # ffffffffefffffff <_end+0xffffffff6fffce3f>
    80001188:	5c729263          	bne	t0,t2,8000174c <fail>

000000008000118c <test_145>:
    8000118c:	09100193          	li	gp,145
    80001190:	0005b283          	ld	t0,0(a1)
    80001194:	00858593          	addi	a1,a1,8
    80001198:	0010039b          	addiw	t2,zero,1
    8000119c:	02039393          	slli	t2,t2,0x20
    800011a0:	5a729663          	bne	t0,t2,8000174c <fail>
    800011a4:	fff00293          	li	t0,-1
    800011a8:	0d12f357          	vsetvli	t1,t0,e32,m2,ta,ma
    800011ac:	00002617          	auipc	a2,0x2
    800011b0:	f6460613          	addi	a2,a2,-156 # 80003110 <tdat>
    800011b4:	02066407          	vle32.v	v8,(a2)
    800011b8:	0d22f357          	vsetvli	t1,t0,e32,m4,ta,ma
    800011bc:	02066207          	vle32.v	v4,(a2)
    800011c0:	00002617          	auipc	a2,0x2
    800011c4:	f5860613          	addi	a2,a2,-168 # 80003118 <tdat+0x8>
    800011c8:	0d12f357          	vsetvli	t1,t0,e32,m2,ta,ma
    800011cc:	02066607          	vle32.v	v12,(a2)
    800011d0:	01000293          	li	t0,16
    800011d4:	0912f357          	vsetvli	t1,t0,e32,m2,tu,ma
    800011d8:	c2860257          	vwredsumu.vs	v4,v8,v12
    800011dc:	fff00293          	li	t0,-1
    800011e0:	0d22f357          	vsetvli	t1,t0,e32,m4,ta,ma
    800011e4:	00002597          	auipc	a1,0x2
    800011e8:	e1c58593          	addi	a1,a1,-484 # 80003000 <begin_signature>
    800011ec:	0205e227          	vse32.v	v4,(a1)

00000000800011f0 <test_146>:
    800011f0:	09200193          	li	gp,146
    800011f4:	0005b283          	ld	t0,0(a1)
    800011f8:	00858593          	addi	a1,a1,8
    800011fc:	0270039b          	addiw	t2,zero,39
    80001200:	01d39393          	slli	t2,t2,0x1d
    80001204:	00338393          	addi	t2,t2,3
    80001208:	54729263          	bne	t0,t2,8000174c <fail>

000000008000120c <test_147>:
    8000120c:	09300193          	li	gp,147
    80001210:	0005b283          	ld	t0,0(a1)
    80001214:	00858593          	addi	a1,a1,8
    80001218:	00100393          	li	t2,1
    8000121c:	52729863          	bne	t0,t2,8000174c <fail>

0000000080001220 <test_148>:
    80001220:	09400193          	li	gp,148
    80001224:	0005b283          	ld	t0,0(a1)
    80001228:	00858593          	addi	a1,a1,8
    8000122c:	0010039b          	addiw	t2,zero,1
    80001230:	02239393          	slli	t2,t2,0x22
    80001234:	ff838393          	addi	t2,t2,-8
    80001238:	50729a63          	bne	t0,t2,8000174c <fail>

000000008000123c <test_149>:
    8000123c:	09500193          	li	gp,149
    80001240:	0005b283          	ld	t0,0(a1)
    80001244:	00858593          	addi	a1,a1,8
    80001248:	0070039b          	addiw	t2,zero,7
    8000124c:	02039393          	slli	t2,t2,0x20
    80001250:	4e729e63          	bne	t0,t2,8000174c <fail>

0000000080001254 <test_150>:
    80001254:	09600193          	li	gp,150
    80001258:	0005b283          	ld	t0,0(a1)
    8000125c:	00858593          	addi	a1,a1,8
    80001260:	f00003b7          	lui	t2,0xf0000
    80001264:	fff3839b          	addiw	t2,t2,-1
    80001268:	4e729263          	bne	t0,t2,8000174c <fail>

000000008000126c <test_151>:
    8000126c:	09700193          	li	gp,151
    80001270:	0005b283          	ld	t0,0(a1)
    80001274:	00858593          	addi	a1,a1,8
    80001278:	0010039b          	addiw	t2,zero,1
    8000127c:	02039393          	slli	t2,t2,0x20
    80001280:	4c729663          	bne	t0,t2,8000174c <fail>

0000000080001284 <test_152>:
    80001284:	09800193          	li	gp,152
    80001288:	0005b283          	ld	t0,0(a1)
    8000128c:	00858593          	addi	a1,a1,8
    80001290:	fff0039b          	addiw	t2,zero,-1
    80001294:	03c39393          	slli	t2,t2,0x3c
    80001298:	fff38393          	addi	t2,t2,-1 # ffffffffefffffff <_end+0xffffffff6fffce3f>
    8000129c:	4a729863          	bne	t0,t2,8000174c <fail>

00000000800012a0 <test_153>:
    800012a0:	09900193          	li	gp,153
    800012a4:	0005b283          	ld	t0,0(a1)
    800012a8:	00858593          	addi	a1,a1,8
    800012ac:	0010039b          	addiw	t2,zero,1
    800012b0:	02039393          	slli	t2,t2,0x20
    800012b4:	48729c63          	bne	t0,t2,8000174c <fail>

00000000800012b8 <test_154>:
    800012b8:	09a00193          	li	gp,154
    800012bc:	0005b283          	ld	t0,0(a1)
    800012c0:	00858593          	addi	a1,a1,8
    800012c4:	00100393          	li	t2,1
    800012c8:	48729263          	bne	t0,t2,8000174c <fail>

00000000800012cc <test_155>:
    800012cc:	09b00193          	li	gp,155
    800012d0:	0005b283          	ld	t0,0(a1)
    800012d4:	00858593          	addi	a1,a1,8
    800012d8:	00100393          	li	t2,1
    800012dc:	46729863          	bne	t0,t2,8000174c <fail>

00000000800012e0 <test_156>:
    800012e0:	09c00193          	li	gp,156
    800012e4:	0005b283          	ld	t0,0(a1)
    800012e8:	00858593          	addi	a1,a1,8
    800012ec:	0010039b          	addiw	t2,zero,1
    800012f0:	02239393          	slli	t2,t2,0x22
    800012f4:	ff838393          	addi	t2,t2,-8
    800012f8:	44729a63          	bne	t0,t2,8000174c <fail>

00000000800012fc <test_157>:
    800012fc:	09d00193          	li	gp,157
    80001300:	0005b283          	ld	t0,0(a1)
    80001304:	00858593          	addi	a1,a1,8
    80001308:	0070039b          	addiw	t2,zero,7
    8000130c:	02039393          	slli	t2,t2,0x20
    80001310:	42729e63          	bne	t0,t2,8000174c <fail>

0000000080001314 <test_158>:
    80001314:	09e00193          	li	gp,158
    80001318:	0005b283          	ld	t0,0(a1)
    8000131c:	00858593          	addi	a1,a1,8
    80001320:	f00003b7          	lui	t2,0xf0000
    80001324:	fff3839b          	addiw	t2,t2,-1
    80001328:	42729263          	bne	t0,t2,8000174c <fail>

000000008000132c <test_159>:
    8000132c:	09f00193          	li	gp,159
    80001330:	0005b283          	ld	t0,0(a1)
    80001334:	00858593          	addi	a1,a1,8
    80001338:	0010039b          	addiw	t2,zero,1
    8000133c:	02039393          	slli	t2,t2,0x20
    80001340:	40729663          	bne	t0,t2,8000174c <fail>

0000000080001344 <test_160>:
    80001344:	0a000193          	li	gp,160
    80001348:	0005b283          	ld	t0,0(a1)
    8000134c:	00858593          	addi	a1,a1,8
    80001350:	fff0039b          	addiw	t2,zero,-1
    80001354:	03c39393          	slli	t2,t2,0x3c
    80001358:	fff38393          	addi	t2,t2,-1 # ffffffffefffffff <_end+0xffffffff6fffce3f>
    8000135c:	3e729863          	bne	t0,t2,8000174c <fail>

0000000080001360 <test_161>:
    80001360:	0a100193          	li	gp,161
    80001364:	0005b283          	ld	t0,0(a1)
    80001368:	00858593          	addi	a1,a1,8
    8000136c:	0010039b          	addiw	t2,zero,1
    80001370:	02039393          	slli	t2,t2,0x20
    80001374:	3c729c63          	bne	t0,t2,8000174c <fail>
    80001378:	fff00293          	li	t0,-1
    8000137c:	0d12f357          	vsetvli	t1,t0,e32,m2,ta,ma
    80001380:	00002617          	auipc	a2,0x2
    80001384:	d9060613          	addi	a2,a2,-624 # 80003110 <tdat>
    80001388:	02066407          	vle32.v	v8,(a2)
    8000138c:	0d22f357          	vsetvli	t1,t0,e32,m4,ta,ma
    80001390:	02066207          	vle32.v	v4,(a2)
    80001394:	00002617          	auipc	a2,0x2
    80001398:	d8460613          	addi	a2,a2,-636 # 80003118 <tdat+0x8>
    8000139c:	0d12f357          	vsetvli	t1,t0,e32,m2,ta,ma
    800013a0:	02066607          	vle32.v	v12,(a2)
    800013a4:	fff00293          	li	t0,-1
    800013a8:	0c02f357          	vsetvli	t1,t0,e8,m1,ta,ma
    800013ac:	00002697          	auipc	a3,0x2
    800013b0:	dec68693          	addi	a3,a3,-532 # 80003198 <mask>
    800013b4:	02068007          	vle8.v	v0,(a3)
    800013b8:	01000293          	li	t0,16
    800013bc:	0d12f357          	vsetvli	t1,t0,e32,m2,ta,ma
    800013c0:	c0860257          	vwredsumu.vs	v4,v8,v12,v0.t
    800013c4:	fff00293          	li	t0,-1
    800013c8:	0d22f357          	vsetvli	t1,t0,e32,m4,ta,ma
    800013cc:	00002597          	auipc	a1,0x2
    800013d0:	c3458593          	addi	a1,a1,-972 # 80003000 <begin_signature>
    800013d4:	0205e227          	vse32.v	v4,(a1)

00000000800013d8 <test_162>:
    800013d8:	0a200193          	li	gp,162
    800013dc:	0005b283          	ld	t0,0(a1)
    800013e0:	00858593          	addi	a1,a1,8
    800013e4:	02f0039b          	addiw	t2,zero,47
    800013e8:	01c39393          	slli	t2,t2,0x1c
    800013ec:	ff938393          	addi	t2,t2,-7
    800013f0:	34729e63          	bne	t0,t2,8000174c <fail>

00000000800013f4 <test_163>:
    800013f4:	0a300193          	li	gp,163
    800013f8:	0005b283          	ld	t0,0(a1)
    800013fc:	00858593          	addi	a1,a1,8
    80001400:	00100393          	li	t2,1
    80001404:	34729463          	bne	t0,t2,8000174c <fail>

0000000080001408 <test_164>:
    80001408:	0a400193          	li	gp,164
    8000140c:	0005b283          	ld	t0,0(a1)
    80001410:	00858593          	addi	a1,a1,8
    80001414:	0010039b          	addiw	t2,zero,1
    80001418:	02239393          	slli	t2,t2,0x22
    8000141c:	ff838393          	addi	t2,t2,-8
    80001420:	32729663          	bne	t0,t2,8000174c <fail>

0000000080001424 <test_165>:
    80001424:	0a500193          	li	gp,165
    80001428:	0005b283          	ld	t0,0(a1)
    8000142c:	00858593          	addi	a1,a1,8
    80001430:	0070039b          	addiw	t2,zero,7
    80001434:	02039393          	slli	t2,t2,0x20
    80001438:	30729a63          	bne	t0,t2,8000174c <fail>

000000008000143c <test_166>:
    8000143c:	0a600193          	li	gp,166
    80001440:	0005b283          	ld	t0,0(a1)
    80001444:	00858593          	addi	a1,a1,8
    80001448:	f00003b7          	lui	t2,0xf0000
    8000144c:	fff3839b          	addiw	t2,t2,-1
    80001450:	2e729e63          	bne	t0,t2,8000174c <fail>

0000000080001454 <test_167>:
    80001454:	0a700193          	li	gp,167
    80001458:	0005b283          	ld	t0,0(a1)
    8000145c:	00858593          	addi	a1,a1,8
    80001460:	0010039b          	addiw	t2,zero,1
    80001464:	02039393          	slli	t2,t2,0x20
    80001468:	2e729263          	bne	t0,t2,8000174c <fail>

000000008000146c <test_168>:
    8000146c:	0a800193          	li	gp,168
    80001470:	0005b283          	ld	t0,0(a1)
    80001474:	00858593          	addi	a1,a1,8
    80001478:	fff0039b          	addiw	t2,zero,-1
    8000147c:	03c39393          	slli	t2,t2,0x3c
    80001480:	fff38393          	addi	t2,t2,-1 # ffffffffefffffff <_end+0xffffffff6fffce3f>
    80001484:	2c729463          	bne	t0,t2,8000174c <fail>

0000000080001488 <test_169>:
    80001488:	0a900193          	li	gp,169
    8000148c:	0005b283          	ld	t0,0(a1)
    80001490:	00858593          	addi	a1,a1,8
    80001494:	0010039b          	addiw	t2,zero,1
    80001498:	02039393          	slli	t2,t2,0x20
    8000149c:	2a729863          	bne	t0,t2,8000174c <fail>

00000000800014a0 <test_170>:
    800014a0:	0aa00193          	li	gp,170
    800014a4:	0005b283          	ld	t0,0(a1)
    800014a8:	00858593          	addi	a1,a1,8
    800014ac:	00100393          	li	t2,1
    800014b0:	28729e63          	bne	t0,t2,8000174c <fail>

00000000800014b4 <test_171>:
    800014b4:	0ab00193          	li	gp,171
    800014b8:	0005b283          	ld	t0,0(a1)
    800014bc:	00858593          	addi	a1,a1,8
    800014c0:	00100393          	li	t2,1
    800014c4:	28729463          	bne	t0,t2,8000174c <fail>

00000000800014c8 <test_172>:
    800014c8:	0ac00193          	li	gp,172
    800014cc:	0005b283          	ld	t0,0(a1)
    800014d0:	00858593          	addi	a1,a1,8
    800014d4:	0010039b          	addiw	t2,zero,1
    800014d8:	02239393          	slli	t2,t2,0x22
    800014dc:	ff838393          	addi	t2,t2,-8
    800014e0:	26729663          	bne	t0,t2,8000174c <fail>

00000000800014e4 <test_173>:
    800014e4:	0ad00193          	li	gp,173
    800014e8:	0005b283          	ld	t0,0(a1)
    800014ec:	00858593          	addi	a1,a1,8
    800014f0:	0070039b          	addiw	t2,zero,7
    800014f4:	02039393          	slli	t2,t2,0x20
    800014f8:	24729a63          	bne	t0,t2,8000174c <fail>

00000000800014fc <test_174>:
    800014fc:	0ae00193          	li	gp,174
    80001500:	0005b283          	ld	t0,0(a1)
    80001504:	00858593          	addi	a1,a1,8
    80001508:	f00003b7          	lui	t2,0xf0000
    8000150c:	fff3839b          	addiw	t2,t2,-1
    80001510:	22729e63          	bne	t0,t2,8000174c <fail>

0000000080001514 <test_175>:
    80001514:	0af00193          	li	gp,175
    80001518:	0005b283          	ld	t0,0(a1)
    8000151c:	00858593          	addi	a1,a1,8
    80001520:	0010039b          	addiw	t2,zero,1
    80001524:	02039393          	slli	t2,t2,0x20
    80001528:	22729263          	bne	t0,t2,8000174c <fail>

000000008000152c <test_176>:
    8000152c:	0b000193          	li	gp,176
    80001530:	0005b283          	ld	t0,0(a1)
    80001534:	00858593          	addi	a1,a1,8
    80001538:	fff0039b          	addiw	t2,zero,-1
    8000153c:	03c39393          	slli	t2,t2,0x3c
    80001540:	fff38393          	addi	t2,t2,-1 # ffffffffefffffff <_end+0xffffffff6fffce3f>
    80001544:	20729463          	bne	t0,t2,8000174c <fail>

0000000080001548 <test_177>:
    80001548:	0b100193          	li	gp,177
    8000154c:	0005b283          	ld	t0,0(a1)
    80001550:	00858593          	addi	a1,a1,8
    80001554:	0010039b          	addiw	t2,zero,1
    80001558:	02039393          	slli	t2,t2,0x20
    8000155c:	1e729863          	bne	t0,t2,8000174c <fail>
    80001560:	fff00293          	li	t0,-1
    80001564:	0d12f357          	vsetvli	t1,t0,e32,m2,ta,ma
    80001568:	00002617          	auipc	a2,0x2
    8000156c:	ba860613          	addi	a2,a2,-1112 # 80003110 <tdat>
    80001570:	02066407          	vle32.v	v8,(a2)
    80001574:	0d22f357          	vsetvli	t1,t0,e32,m4,ta,ma
    80001578:	02066207          	vle32.v	v4,(a2)
    8000157c:	00002617          	auipc	a2,0x2
    80001580:	b9c60613          	addi	a2,a2,-1124 # 80003118 <tdat+0x8>
    80001584:	0d12f357          	vsetvli	t1,t0,e32,m2,ta,ma
    80001588:	02066607          	vle32.v	v12,(a2)
    8000158c:	fff00293          	li	t0,-1
    80001590:	0c02f357          	vsetvli	t1,t0,e8,m1,ta,ma
    80001594:	00002697          	auipc	a3,0x2
    80001598:	c0468693          	addi	a3,a3,-1020 # 80003198 <mask>
    8000159c:	02068007          	vle8.v	v0,(a3)
    800015a0:	01000293          	li	t0,16
    800015a4:	0d12f357          	vsetvli	t1,t0,e32,m2,ta,ma
    800015a8:	c0860257          	vwredsumu.vs	v4,v8,v12,v0.t
    800015ac:	fff00293          	li	t0,-1
    800015b0:	0d22f357          	vsetvli	t1,t0,e32,m4,ta,ma
    800015b4:	00002597          	auipc	a1,0x2
    800015b8:	a4c58593          	addi	a1,a1,-1460 # 80003000 <begin_signature>
    800015bc:	0205e227          	vse32.v	v4,(a1)

00000000800015c0 <test_178>:
    800015c0:	0b200193          	li	gp,178
    800015c4:	0005b283          	ld	t0,0(a1)
    800015c8:	00858593          	addi	a1,a1,8
    800015cc:	02f0039b          	addiw	t2,zero,47
    800015d0:	01c39393          	slli	t2,t2,0x1c
    800015d4:	ff938393          	addi	t2,t2,-7
    800015d8:	16729a63          	bne	t0,t2,8000174c <fail>

00000000800015dc <test_179>:
    800015dc:	0b300193          	li	gp,179
    800015e0:	0005b283          	ld	t0,0(a1)
    800015e4:	00858593          	addi	a1,a1,8
    800015e8:	00100393          	li	t2,1
    800015ec:	16729063          	bne	t0,t2,8000174c <fail>

00000000800015f0 <test_180>:
    800015f0:	0b400193          	li	gp,180
    800015f4:	0005b283          	ld	t0,0(a1)
    800015f8:	00858593          	addi	a1,a1,8
    800015fc:	0010039b          	addiw	t2,zero,1
    80001600:	02239393          	slli	t2,t2,0x22
    80001604:	ff838393          	addi	t2,t2,-8
    80001608:	14729263          	bne	t0,t2,8000174c <fail>

000000008000160c <test_181>:
    8000160c:	0b500193          	li	gp,181
    80001610:	0005b283          	ld	t0,0(a1)
    80001614:	00858593          	addi	a1,a1,8
    80001618:	0070039b          	addiw	t2,zero,7
    8000161c:	02039393          	slli	t2,t2,0x20
    80001620:	12729663          	bne	t0,t2,8000174c <fail>

0000000080001624 <test_182>:
    80001624:	0b600193          	li	gp,182
    80001628:	0005b283          	ld	t0,0(a1)
    8000162c:	00858593          	addi	a1,a1,8
    80001630:	f00003b7          	lui	t2,0xf0000
    80001634:	fff3839b          	addiw	t2,t2,-1
    80001638:	10729a63          	bne	t0,t2,8000174c <fail>

000000008000163c <test_183>:
    8000163c:	0b700193          	li	gp,183
    80001640:	0005b283          	ld	t0,0(a1)
    80001644:	00858593          	addi	a1,a1,8
    80001648:	0010039b          	addiw	t2,zero,1
    8000164c:	02039393          	slli	t2,t2,0x20
    80001650:	0e729e63          	bne	t0,t2,8000174c <fail>

0000000080001654 <test_184>:
    80001654:	0b800193          	li	gp,184
    80001658:	0005b283          	ld	t0,0(a1)
    8000165c:	00858593          	addi	a1,a1,8
    80001660:	fff0039b          	addiw	t2,zero,-1
    80001664:	03c39393          	slli	t2,t2,0x3c
    80001668:	fff38393          	addi	t2,t2,-1 # ffffffffefffffff <_end+0xffffffff6fffce3f>
    8000166c:	0e729063          	bne	t0,t2,8000174c <fail>

0000000080001670 <test_185>:
    80001670:	0b900193          	li	gp,185
    80001674:	0005b283          	ld	t0,0(a1)
    80001678:	00858593          	addi	a1,a1,8
    8000167c:	0010039b          	addiw	t2,zero,1
    80001680:	02039393          	slli	t2,t2,0x20
    80001684:	0c729463          	bne	t0,t2,8000174c <fail>

0000000080001688 <test_186>:
    80001688:	0ba00193          	li	gp,186
    8000168c:	0005b283          	ld	t0,0(a1)
    80001690:	00858593          	addi	a1,a1,8
    80001694:	00100393          	li	t2,1
    80001698:	0a729a63          	bne	t0,t2,8000174c <fail>

000000008000169c <test_187>:
    8000169c:	0bb00193          	li	gp,187
    800016a0:	0005b283          	ld	t0,0(a1)
    800016a4:	00858593          	addi	a1,a1,8
    800016a8:	00100393          	li	t2,1
    800016ac:	0a729063          	bne	t0,t2,8000174c <fail>

00000000800016b0 <test_188>:
    800016b0:	0bc00193          	li	gp,188
    800016b4:	0005b283          	ld	t0,0(a1)
    800016b8:	00858593          	addi	a1,a1,8
    800016bc:	0010039b          	addiw	t2,zero,1
    800016c0:	02239393          	slli	t2,t2,0x22
    800016c4:	ff838393          	addi	t2,t2,-8
    800016c8:	08729263          	bne	t0,t2,8000174c <fail>

00000000800016cc <test_189>:
    800016cc:	0bd00193          	li	gp,189
    800016d0:	0005b283          	ld	t0,0(a1)
    800016d4:	00858593          	addi	a1,a1,8
    800016d8:	0070039b          	addiw	t2,zero,7
    800016dc:	02039393          	slli	t2,t2,0x20
    800016e0:	06729663          	bne	t0,t2,8000174c <fail>

00000000800016e4 <test_190>:
    800016e4:	0be00193          	li	gp,190
    800016e8:	0005b283          	ld	t0,0(a1)
    800016ec:	00858593          	addi	a1,a1,8
    800016f0:	f00003b7          	lui	t2,0xf0000
    800016f4:	fff3839b          	addiw	t2,t2,-1
    800016f8:	04729a63          	bne	t0,t2,8000174c <fail>

00000000800016fc <test_191>:
    800016fc:	0bf00193          	li	gp,191
    80001700:	0005b283          	ld	t0,0(a1)
    80001704:	00858593          	addi	a1,a1,8
    80001708:	0010039b          	addiw	t2,zero,1
    8000170c:	02039393          	slli	t2,t2,0x20
    80001710:	02729e63          	bne	t0,t2,8000174c <fail>

0000000080001714 <test_192>:
    80001714:	0c000193          	li	gp,192
    80001718:	0005b283          	ld	t0,0(a1)
    8000171c:	00858593          	addi	a1,a1,8
    80001720:	fff0039b          	addiw	t2,zero,-1
    80001724:	03c39393          	slli	t2,t2,0x3c
    80001728:	fff38393          	addi	t2,t2,-1 # ffffffffefffffff <_end+0xffffffff6fffce3f>
    8000172c:	02729063          	bne	t0,t2,8000174c <fail>

0000000080001730 <test_193>:
    80001730:	0c100193          	li	gp,193
    80001734:	0005b283          	ld	t0,0(a1)
    80001738:	00858593          	addi	a1,a1,8
    8000173c:	0010039b          	addiw	t2,zero,1
    80001740:	02039393          	slli	t2,t2,0x20
    80001744:	00729463          	bne	t0,t2,8000174c <fail>
    80001748:	00301a63          	bne	zero,gp,8000175c <pass>

000000008000174c <fail>:
    8000174c:	0ff0000f          	fence
    80001750:	00018513          	mv	a0,gp
    80001754:	05d00893          	li	a7,93
    80001758:	00000073          	ecall

000000008000175c <pass>:
    8000175c:	0ff0000f          	fence
    80001760:	00000513          	li	a0,0
    80001764:	05d00893          	li	a7,93
    80001768:	00000073          	ecall
    8000176c:	0000                	unimp
    8000176e:	0000                	unimp
    80001770:	0000                	unimp
    80001772:	0000                	unimp
    80001774:	0000                	unimp
    80001776:	0000                	unimp
    80001778:	0000                	unimp
    8000177a:	0000                	unimp
    8000177c:	0000                	unimp
    8000177e:	0000                	unimp
    80001780:	0000                	unimp
    80001782:	0000                	unimp
