
rv64uv-ps-vwredsumu.vs_LMUL1SEW32:     file format elf64-littleriscv


Disassembly of section .text.init:

0000000080000000 <_start>:
    80000000:	00000297          	auipc	t0,0x0
    80000004:	00c28293          	addi	t0,t0,12 # 8000000c <_start+0xc>
    80000008:	00028067          	jr	t0
    8000000c:	fff00293          	li	t0,-1
    80000010:	0d02f357          	vsetvli	t1,t0,e32,m1,ta,ma
    80000014:	00002617          	auipc	a2,0x2
    80000018:	07c60613          	addi	a2,a2,124 # 80002090 <tdat>
    8000001c:	02066207          	vle32.v	v4,(a2)
    80000020:	0d12f357          	vsetvli	t1,t0,e32,m2,ta,ma
    80000024:	02066107          	vle32.v	v2,(a2)
    80000028:	00002617          	auipc	a2,0x2
    8000002c:	07060613          	addi	a2,a2,112 # 80002098 <tdat+0x8>
    80000030:	0d02f357          	vsetvli	t1,t0,e32,m1,ta,ma
    80000034:	02066307          	vle32.v	v6,(a2)
    80000038:	00400293          	li	t0,4
    8000003c:	0d02f357          	vsetvli	t1,t0,e32,m1,ta,ma
    80000040:	c2430157          	vwredsumu.vs	v2,v4,v6
    80000044:	fff00293          	li	t0,-1
    80000048:	0d12f357          	vsetvli	t1,t0,e32,m2,ta,ma
    8000004c:	00002597          	auipc	a1,0x2
    80000050:	fb458593          	addi	a1,a1,-76 # 80002000 <begin_signature>
    80000054:	0205e127          	vse32.v	v2,(a1)

0000000080000058 <test_2>:
    80000058:	00200193          	li	gp,2
    8000005c:	0005b283          	ld	t0,0(a1)
    80000060:	00858593          	addi	a1,a1,8
    80000064:	00300393          	li	t2,3
    80000068:	4e7298e3          	bne	t0,t2,80000d58 <fail>

000000008000006c <test_3>:
    8000006c:	00300193          	li	gp,3
    80000070:	0005b283          	ld	t0,0(a1)
    80000074:	00858593          	addi	a1,a1,8
    80000078:	00100393          	li	t2,1
    8000007c:	4c729ee3          	bne	t0,t2,80000d58 <fail>

0000000080000080 <test_4>:
    80000080:	00400193          	li	gp,4
    80000084:	0005b283          	ld	t0,0(a1)
    80000088:	00858593          	addi	a1,a1,8
    8000008c:	0010039b          	addiw	t2,zero,1
    80000090:	02239393          	slli	t2,t2,0x22
    80000094:	ff838393          	addi	t2,t2,-8
    80000098:	4c7290e3          	bne	t0,t2,80000d58 <fail>

000000008000009c <test_5>:
    8000009c:	00500193          	li	gp,5
    800000a0:	0005b283          	ld	t0,0(a1)
    800000a4:	00858593          	addi	a1,a1,8
    800000a8:	0070039b          	addiw	t2,zero,7
    800000ac:	02039393          	slli	t2,t2,0x20
    800000b0:	4a7294e3          	bne	t0,t2,80000d58 <fail>

00000000800000b4 <test_6>:
    800000b4:	00600193          	li	gp,6
    800000b8:	0005b283          	ld	t0,0(a1)
    800000bc:	00858593          	addi	a1,a1,8
    800000c0:	f00003b7          	lui	t2,0xf0000
    800000c4:	fff3839b          	addiw	t2,t2,-1
    800000c8:	487298e3          	bne	t0,t2,80000d58 <fail>

00000000800000cc <test_7>:
    800000cc:	00700193          	li	gp,7
    800000d0:	0005b283          	ld	t0,0(a1)
    800000d4:	00858593          	addi	a1,a1,8
    800000d8:	0010039b          	addiw	t2,zero,1
    800000dc:	02039393          	slli	t2,t2,0x20
    800000e0:	46729ce3          	bne	t0,t2,80000d58 <fail>

00000000800000e4 <test_8>:
    800000e4:	00800193          	li	gp,8
    800000e8:	0005b283          	ld	t0,0(a1)
    800000ec:	00858593          	addi	a1,a1,8
    800000f0:	fff0039b          	addiw	t2,zero,-1
    800000f4:	03c39393          	slli	t2,t2,0x3c
    800000f8:	fff38393          	addi	t2,t2,-1 # ffffffffefffffff <_end+0xffffffff6fffdeff>
    800000fc:	44729ee3          	bne	t0,t2,80000d58 <fail>

0000000080000100 <test_9>:
    80000100:	00900193          	li	gp,9
    80000104:	0005b283          	ld	t0,0(a1)
    80000108:	00858593          	addi	a1,a1,8
    8000010c:	0010039b          	addiw	t2,zero,1
    80000110:	02039393          	slli	t2,t2,0x20
    80000114:	447292e3          	bne	t0,t2,80000d58 <fail>
    80000118:	fff00293          	li	t0,-1
    8000011c:	0d02f357          	vsetvli	t1,t0,e32,m1,ta,ma
    80000120:	00002617          	auipc	a2,0x2
    80000124:	f7060613          	addi	a2,a2,-144 # 80002090 <tdat>
    80000128:	02066207          	vle32.v	v4,(a2)
    8000012c:	0d12f357          	vsetvli	t1,t0,e32,m2,ta,ma
    80000130:	02066107          	vle32.v	v2,(a2)
    80000134:	00002617          	auipc	a2,0x2
    80000138:	f6460613          	addi	a2,a2,-156 # 80002098 <tdat+0x8>
    8000013c:	0d02f357          	vsetvli	t1,t0,e32,m1,ta,ma
    80000140:	02066307          	vle32.v	v6,(a2)
    80000144:	00400293          	li	t0,4
    80000148:	0902f357          	vsetvli	t1,t0,e32,m1,tu,ma
    8000014c:	c2430157          	vwredsumu.vs	v2,v4,v6
    80000150:	fff00293          	li	t0,-1
    80000154:	0d12f357          	vsetvli	t1,t0,e32,m2,ta,ma
    80000158:	00002597          	auipc	a1,0x2
    8000015c:	ea858593          	addi	a1,a1,-344 # 80002000 <begin_signature>
    80000160:	0205e127          	vse32.v	v2,(a1)

0000000080000164 <test_10>:
    80000164:	00a00193          	li	gp,10
    80000168:	0005b283          	ld	t0,0(a1)
    8000016c:	00858593          	addi	a1,a1,8
    80000170:	00300393          	li	t2,3
    80000174:	3e7292e3          	bne	t0,t2,80000d58 <fail>

0000000080000178 <test_11>:
    80000178:	00b00193          	li	gp,11
    8000017c:	0005b283          	ld	t0,0(a1)
    80000180:	00858593          	addi	a1,a1,8
    80000184:	00100393          	li	t2,1
    80000188:	3c7298e3          	bne	t0,t2,80000d58 <fail>

000000008000018c <test_12>:
    8000018c:	00c00193          	li	gp,12
    80000190:	0005b283          	ld	t0,0(a1)
    80000194:	00858593          	addi	a1,a1,8
    80000198:	0010039b          	addiw	t2,zero,1
    8000019c:	02239393          	slli	t2,t2,0x22
    800001a0:	ff838393          	addi	t2,t2,-8
    800001a4:	3a729ae3          	bne	t0,t2,80000d58 <fail>

00000000800001a8 <test_13>:
    800001a8:	00d00193          	li	gp,13
    800001ac:	0005b283          	ld	t0,0(a1)
    800001b0:	00858593          	addi	a1,a1,8
    800001b4:	0070039b          	addiw	t2,zero,7
    800001b8:	02039393          	slli	t2,t2,0x20
    800001bc:	38729ee3          	bne	t0,t2,80000d58 <fail>

00000000800001c0 <test_14>:
    800001c0:	00e00193          	li	gp,14
    800001c4:	0005b283          	ld	t0,0(a1)
    800001c8:	00858593          	addi	a1,a1,8
    800001cc:	f00003b7          	lui	t2,0xf0000
    800001d0:	fff3839b          	addiw	t2,t2,-1
    800001d4:	387292e3          	bne	t0,t2,80000d58 <fail>

00000000800001d8 <test_15>:
    800001d8:	00f00193          	li	gp,15
    800001dc:	0005b283          	ld	t0,0(a1)
    800001e0:	00858593          	addi	a1,a1,8
    800001e4:	0010039b          	addiw	t2,zero,1
    800001e8:	02039393          	slli	t2,t2,0x20
    800001ec:	367296e3          	bne	t0,t2,80000d58 <fail>

00000000800001f0 <test_16>:
    800001f0:	01000193          	li	gp,16
    800001f4:	0005b283          	ld	t0,0(a1)
    800001f8:	00858593          	addi	a1,a1,8
    800001fc:	fff0039b          	addiw	t2,zero,-1
    80000200:	03c39393          	slli	t2,t2,0x3c
    80000204:	fff38393          	addi	t2,t2,-1 # ffffffffefffffff <_end+0xffffffff6fffdeff>
    80000208:	347298e3          	bne	t0,t2,80000d58 <fail>

000000008000020c <test_17>:
    8000020c:	01100193          	li	gp,17
    80000210:	0005b283          	ld	t0,0(a1)
    80000214:	00858593          	addi	a1,a1,8
    80000218:	0010039b          	addiw	t2,zero,1
    8000021c:	02039393          	slli	t2,t2,0x20
    80000220:	32729ce3          	bne	t0,t2,80000d58 <fail>
    80000224:	fff00293          	li	t0,-1
    80000228:	0d02f357          	vsetvli	t1,t0,e32,m1,ta,ma
    8000022c:	00002617          	auipc	a2,0x2
    80000230:	e6460613          	addi	a2,a2,-412 # 80002090 <tdat>
    80000234:	02066207          	vle32.v	v4,(a2)
    80000238:	0d12f357          	vsetvli	t1,t0,e32,m2,ta,ma
    8000023c:	02066107          	vle32.v	v2,(a2)
    80000240:	00002617          	auipc	a2,0x2
    80000244:	e5860613          	addi	a2,a2,-424 # 80002098 <tdat+0x8>
    80000248:	0d02f357          	vsetvli	t1,t0,e32,m1,ta,ma
    8000024c:	02066307          	vle32.v	v6,(a2)
    80000250:	fff00293          	li	t0,-1
    80000254:	0c02f357          	vsetvli	t1,t0,e8,m1,ta,ma
    80000258:	00002697          	auipc	a3,0x2
    8000025c:	e8068693          	addi	a3,a3,-384 # 800020d8 <mask>
    80000260:	02068007          	vle8.v	v0,(a3)
    80000264:	00400293          	li	t0,4
    80000268:	0d02f357          	vsetvli	t1,t0,e32,m1,ta,ma
    8000026c:	c0430157          	vwredsumu.vs	v2,v4,v6,v0.t
    80000270:	fff00293          	li	t0,-1
    80000274:	0d12f357          	vsetvli	t1,t0,e32,m2,ta,ma
    80000278:	00002597          	auipc	a1,0x2
    8000027c:	d8858593          	addi	a1,a1,-632 # 80002000 <begin_signature>
    80000280:	0205e127          	vse32.v	v2,(a1)

0000000080000284 <test_18>:
    80000284:	01200193          	li	gp,18
    80000288:	0005b283          	ld	t0,0(a1)
    8000028c:	00858593          	addi	a1,a1,8
    80000290:	00300393          	li	t2,3
    80000294:	2c7292e3          	bne	t0,t2,80000d58 <fail>

0000000080000298 <test_19>:
    80000298:	01300193          	li	gp,19
    8000029c:	0005b283          	ld	t0,0(a1)
    800002a0:	00858593          	addi	a1,a1,8
    800002a4:	00100393          	li	t2,1
    800002a8:	2a7298e3          	bne	t0,t2,80000d58 <fail>

00000000800002ac <test_20>:
    800002ac:	01400193          	li	gp,20
    800002b0:	0005b283          	ld	t0,0(a1)
    800002b4:	00858593          	addi	a1,a1,8
    800002b8:	0010039b          	addiw	t2,zero,1
    800002bc:	02239393          	slli	t2,t2,0x22
    800002c0:	ff838393          	addi	t2,t2,-8
    800002c4:	28729ae3          	bne	t0,t2,80000d58 <fail>

00000000800002c8 <test_21>:
    800002c8:	01500193          	li	gp,21
    800002cc:	0005b283          	ld	t0,0(a1)
    800002d0:	00858593          	addi	a1,a1,8
    800002d4:	0070039b          	addiw	t2,zero,7
    800002d8:	02039393          	slli	t2,t2,0x20
    800002dc:	26729ee3          	bne	t0,t2,80000d58 <fail>

00000000800002e0 <test_22>:
    800002e0:	01600193          	li	gp,22
    800002e4:	0005b283          	ld	t0,0(a1)
    800002e8:	00858593          	addi	a1,a1,8
    800002ec:	f00003b7          	lui	t2,0xf0000
    800002f0:	fff3839b          	addiw	t2,t2,-1
    800002f4:	267292e3          	bne	t0,t2,80000d58 <fail>

00000000800002f8 <test_23>:
    800002f8:	01700193          	li	gp,23
    800002fc:	0005b283          	ld	t0,0(a1)
    80000300:	00858593          	addi	a1,a1,8
    80000304:	0010039b          	addiw	t2,zero,1
    80000308:	02039393          	slli	t2,t2,0x20
    8000030c:	247296e3          	bne	t0,t2,80000d58 <fail>

0000000080000310 <test_24>:
    80000310:	01800193          	li	gp,24
    80000314:	0005b283          	ld	t0,0(a1)
    80000318:	00858593          	addi	a1,a1,8
    8000031c:	fff0039b          	addiw	t2,zero,-1
    80000320:	03c39393          	slli	t2,t2,0x3c
    80000324:	fff38393          	addi	t2,t2,-1 # ffffffffefffffff <_end+0xffffffff6fffdeff>
    80000328:	227298e3          	bne	t0,t2,80000d58 <fail>

000000008000032c <test_25>:
    8000032c:	01900193          	li	gp,25
    80000330:	0005b283          	ld	t0,0(a1)
    80000334:	00858593          	addi	a1,a1,8
    80000338:	0010039b          	addiw	t2,zero,1
    8000033c:	02039393          	slli	t2,t2,0x20
    80000340:	20729ce3          	bne	t0,t2,80000d58 <fail>
    80000344:	fff00293          	li	t0,-1
    80000348:	0d02f357          	vsetvli	t1,t0,e32,m1,ta,ma
    8000034c:	00002617          	auipc	a2,0x2
    80000350:	d4460613          	addi	a2,a2,-700 # 80002090 <tdat>
    80000354:	02066207          	vle32.v	v4,(a2)
    80000358:	0d12f357          	vsetvli	t1,t0,e32,m2,ta,ma
    8000035c:	02066107          	vle32.v	v2,(a2)
    80000360:	00002617          	auipc	a2,0x2
    80000364:	d3860613          	addi	a2,a2,-712 # 80002098 <tdat+0x8>
    80000368:	0d02f357          	vsetvli	t1,t0,e32,m1,ta,ma
    8000036c:	02066307          	vle32.v	v6,(a2)
    80000370:	fff00293          	li	t0,-1
    80000374:	0c02f357          	vsetvli	t1,t0,e8,m1,ta,ma
    80000378:	00002697          	auipc	a3,0x2
    8000037c:	d6068693          	addi	a3,a3,-672 # 800020d8 <mask>
    80000380:	02068007          	vle8.v	v0,(a3)
    80000384:	00400293          	li	t0,4
    80000388:	0d02f357          	vsetvli	t1,t0,e32,m1,ta,ma
    8000038c:	c0430157          	vwredsumu.vs	v2,v4,v6,v0.t
    80000390:	fff00293          	li	t0,-1
    80000394:	0d12f357          	vsetvli	t1,t0,e32,m2,ta,ma
    80000398:	00002597          	auipc	a1,0x2
    8000039c:	c6858593          	addi	a1,a1,-920 # 80002000 <begin_signature>
    800003a0:	0205e127          	vse32.v	v2,(a1)

00000000800003a4 <test_26>:
    800003a4:	01a00193          	li	gp,26
    800003a8:	0005b283          	ld	t0,0(a1)
    800003ac:	00858593          	addi	a1,a1,8
    800003b0:	00300393          	li	t2,3
    800003b4:	1a7292e3          	bne	t0,t2,80000d58 <fail>

00000000800003b8 <test_27>:
    800003b8:	01b00193          	li	gp,27
    800003bc:	0005b283          	ld	t0,0(a1)
    800003c0:	00858593          	addi	a1,a1,8
    800003c4:	00100393          	li	t2,1
    800003c8:	187298e3          	bne	t0,t2,80000d58 <fail>

00000000800003cc <test_28>:
    800003cc:	01c00193          	li	gp,28
    800003d0:	0005b283          	ld	t0,0(a1)
    800003d4:	00858593          	addi	a1,a1,8
    800003d8:	0010039b          	addiw	t2,zero,1
    800003dc:	02239393          	slli	t2,t2,0x22
    800003e0:	ff838393          	addi	t2,t2,-8
    800003e4:	16729ae3          	bne	t0,t2,80000d58 <fail>

00000000800003e8 <test_29>:
    800003e8:	01d00193          	li	gp,29
    800003ec:	0005b283          	ld	t0,0(a1)
    800003f0:	00858593          	addi	a1,a1,8
    800003f4:	0070039b          	addiw	t2,zero,7
    800003f8:	02039393          	slli	t2,t2,0x20
    800003fc:	14729ee3          	bne	t0,t2,80000d58 <fail>

0000000080000400 <test_30>:
    80000400:	01e00193          	li	gp,30
    80000404:	0005b283          	ld	t0,0(a1)
    80000408:	00858593          	addi	a1,a1,8
    8000040c:	f00003b7          	lui	t2,0xf0000
    80000410:	fff3839b          	addiw	t2,t2,-1
    80000414:	147292e3          	bne	t0,t2,80000d58 <fail>

0000000080000418 <test_31>:
    80000418:	01f00193          	li	gp,31
    8000041c:	0005b283          	ld	t0,0(a1)
    80000420:	00858593          	addi	a1,a1,8
    80000424:	0010039b          	addiw	t2,zero,1
    80000428:	02039393          	slli	t2,t2,0x20
    8000042c:	127296e3          	bne	t0,t2,80000d58 <fail>

0000000080000430 <test_32>:
    80000430:	02000193          	li	gp,32
    80000434:	0005b283          	ld	t0,0(a1)
    80000438:	00858593          	addi	a1,a1,8
    8000043c:	fff0039b          	addiw	t2,zero,-1
    80000440:	03c39393          	slli	t2,t2,0x3c
    80000444:	fff38393          	addi	t2,t2,-1 # ffffffffefffffff <_end+0xffffffff6fffdeff>
    80000448:	107298e3          	bne	t0,t2,80000d58 <fail>

000000008000044c <test_33>:
    8000044c:	02100193          	li	gp,33
    80000450:	0005b283          	ld	t0,0(a1)
    80000454:	00858593          	addi	a1,a1,8
    80000458:	0010039b          	addiw	t2,zero,1
    8000045c:	02039393          	slli	t2,t2,0x20
    80000460:	0e729ce3          	bne	t0,t2,80000d58 <fail>
    80000464:	fff00293          	li	t0,-1
    80000468:	0d02f357          	vsetvli	t1,t0,e32,m1,ta,ma
    8000046c:	00002617          	auipc	a2,0x2
    80000470:	c2460613          	addi	a2,a2,-988 # 80002090 <tdat>
    80000474:	02066207          	vle32.v	v4,(a2)
    80000478:	0d12f357          	vsetvli	t1,t0,e32,m2,ta,ma
    8000047c:	02066107          	vle32.v	v2,(a2)
    80000480:	00002617          	auipc	a2,0x2
    80000484:	c1860613          	addi	a2,a2,-1000 # 80002098 <tdat+0x8>
    80000488:	0d02f357          	vsetvli	t1,t0,e32,m1,ta,ma
    8000048c:	02066307          	vle32.v	v6,(a2)
    80000490:	00700293          	li	t0,7
    80000494:	0d02f357          	vsetvli	t1,t0,e32,m1,ta,ma
    80000498:	c2430157          	vwredsumu.vs	v2,v4,v6
    8000049c:	fff00293          	li	t0,-1
    800004a0:	0d12f357          	vsetvli	t1,t0,e32,m2,ta,ma
    800004a4:	00002597          	auipc	a1,0x2
    800004a8:	b5c58593          	addi	a1,a1,-1188 # 80002000 <begin_signature>
    800004ac:	0205e127          	vse32.v	v2,(a1)

00000000800004b0 <test_34>:
    800004b0:	02200193          	li	gp,34
    800004b4:	0005b283          	ld	t0,0(a1)
    800004b8:	00858593          	addi	a1,a1,8
    800004bc:	0010039b          	addiw	t2,zero,1
    800004c0:	02039393          	slli	t2,t2,0x20
    800004c4:	ffe38393          	addi	t2,t2,-2
    800004c8:	087298e3          	bne	t0,t2,80000d58 <fail>

00000000800004cc <test_35>:
    800004cc:	02300193          	li	gp,35
    800004d0:	0005b283          	ld	t0,0(a1)
    800004d4:	00858593          	addi	a1,a1,8
    800004d8:	00100393          	li	t2,1
    800004dc:	06729ee3          	bne	t0,t2,80000d58 <fail>

00000000800004e0 <test_36>:
    800004e0:	02400193          	li	gp,36
    800004e4:	0005b283          	ld	t0,0(a1)
    800004e8:	00858593          	addi	a1,a1,8
    800004ec:	0010039b          	addiw	t2,zero,1
    800004f0:	02239393          	slli	t2,t2,0x22
    800004f4:	ff838393          	addi	t2,t2,-8
    800004f8:	067290e3          	bne	t0,t2,80000d58 <fail>

00000000800004fc <test_37>:
    800004fc:	02500193          	li	gp,37
    80000500:	0005b283          	ld	t0,0(a1)
    80000504:	00858593          	addi	a1,a1,8
    80000508:	0070039b          	addiw	t2,zero,7
    8000050c:	02039393          	slli	t2,t2,0x20
    80000510:	047294e3          	bne	t0,t2,80000d58 <fail>

0000000080000514 <test_38>:
    80000514:	02600193          	li	gp,38
    80000518:	0005b283          	ld	t0,0(a1)
    8000051c:	00858593          	addi	a1,a1,8
    80000520:	f00003b7          	lui	t2,0xf0000
    80000524:	fff3839b          	addiw	t2,t2,-1
    80000528:	027298e3          	bne	t0,t2,80000d58 <fail>

000000008000052c <test_39>:
    8000052c:	02700193          	li	gp,39
    80000530:	0005b283          	ld	t0,0(a1)
    80000534:	00858593          	addi	a1,a1,8
    80000538:	0010039b          	addiw	t2,zero,1
    8000053c:	02039393          	slli	t2,t2,0x20
    80000540:	00729ce3          	bne	t0,t2,80000d58 <fail>

0000000080000544 <test_40>:
    80000544:	02800193          	li	gp,40
    80000548:	0005b283          	ld	t0,0(a1)
    8000054c:	00858593          	addi	a1,a1,8
    80000550:	fff0039b          	addiw	t2,zero,-1
    80000554:	03c39393          	slli	t2,t2,0x3c
    80000558:	fff38393          	addi	t2,t2,-1 # ffffffffefffffff <_end+0xffffffff6fffdeff>
    8000055c:	7e729e63          	bne	t0,t2,80000d58 <fail>

0000000080000560 <test_41>:
    80000560:	02900193          	li	gp,41
    80000564:	0005b283          	ld	t0,0(a1)
    80000568:	00858593          	addi	a1,a1,8
    8000056c:	0010039b          	addiw	t2,zero,1
    80000570:	02039393          	slli	t2,t2,0x20
    80000574:	7e729263          	bne	t0,t2,80000d58 <fail>
    80000578:	fff00293          	li	t0,-1
    8000057c:	0d02f357          	vsetvli	t1,t0,e32,m1,ta,ma
    80000580:	00002617          	auipc	a2,0x2
    80000584:	b1060613          	addi	a2,a2,-1264 # 80002090 <tdat>
    80000588:	02066207          	vle32.v	v4,(a2)
    8000058c:	0d12f357          	vsetvli	t1,t0,e32,m2,ta,ma
    80000590:	02066107          	vle32.v	v2,(a2)
    80000594:	00002617          	auipc	a2,0x2
    80000598:	b0460613          	addi	a2,a2,-1276 # 80002098 <tdat+0x8>
    8000059c:	0d02f357          	vsetvli	t1,t0,e32,m1,ta,ma
    800005a0:	02066307          	vle32.v	v6,(a2)
    800005a4:	00700293          	li	t0,7
    800005a8:	0902f357          	vsetvli	t1,t0,e32,m1,tu,ma
    800005ac:	c2430157          	vwredsumu.vs	v2,v4,v6
    800005b0:	fff00293          	li	t0,-1
    800005b4:	0d12f357          	vsetvli	t1,t0,e32,m2,ta,ma
    800005b8:	00002597          	auipc	a1,0x2
    800005bc:	a4858593          	addi	a1,a1,-1464 # 80002000 <begin_signature>
    800005c0:	0205e127          	vse32.v	v2,(a1)

00000000800005c4 <test_42>:
    800005c4:	02a00193          	li	gp,42
    800005c8:	0005b283          	ld	t0,0(a1)
    800005cc:	00858593          	addi	a1,a1,8
    800005d0:	0010039b          	addiw	t2,zero,1
    800005d4:	02039393          	slli	t2,t2,0x20
    800005d8:	ffe38393          	addi	t2,t2,-2
    800005dc:	76729e63          	bne	t0,t2,80000d58 <fail>

00000000800005e0 <test_43>:
    800005e0:	02b00193          	li	gp,43
    800005e4:	0005b283          	ld	t0,0(a1)
    800005e8:	00858593          	addi	a1,a1,8
    800005ec:	00100393          	li	t2,1
    800005f0:	76729463          	bne	t0,t2,80000d58 <fail>

00000000800005f4 <test_44>:
    800005f4:	02c00193          	li	gp,44
    800005f8:	0005b283          	ld	t0,0(a1)
    800005fc:	00858593          	addi	a1,a1,8
    80000600:	0010039b          	addiw	t2,zero,1
    80000604:	02239393          	slli	t2,t2,0x22
    80000608:	ff838393          	addi	t2,t2,-8
    8000060c:	74729663          	bne	t0,t2,80000d58 <fail>

0000000080000610 <test_45>:
    80000610:	02d00193          	li	gp,45
    80000614:	0005b283          	ld	t0,0(a1)
    80000618:	00858593          	addi	a1,a1,8
    8000061c:	0070039b          	addiw	t2,zero,7
    80000620:	02039393          	slli	t2,t2,0x20
    80000624:	72729a63          	bne	t0,t2,80000d58 <fail>

0000000080000628 <test_46>:
    80000628:	02e00193          	li	gp,46
    8000062c:	0005b283          	ld	t0,0(a1)
    80000630:	00858593          	addi	a1,a1,8
    80000634:	f00003b7          	lui	t2,0xf0000
    80000638:	fff3839b          	addiw	t2,t2,-1
    8000063c:	70729e63          	bne	t0,t2,80000d58 <fail>

0000000080000640 <test_47>:
    80000640:	02f00193          	li	gp,47
    80000644:	0005b283          	ld	t0,0(a1)
    80000648:	00858593          	addi	a1,a1,8
    8000064c:	0010039b          	addiw	t2,zero,1
    80000650:	02039393          	slli	t2,t2,0x20
    80000654:	70729263          	bne	t0,t2,80000d58 <fail>

0000000080000658 <test_48>:
    80000658:	03000193          	li	gp,48
    8000065c:	0005b283          	ld	t0,0(a1)
    80000660:	00858593          	addi	a1,a1,8
    80000664:	fff0039b          	addiw	t2,zero,-1
    80000668:	03c39393          	slli	t2,t2,0x3c
    8000066c:	fff38393          	addi	t2,t2,-1 # ffffffffefffffff <_end+0xffffffff6fffdeff>
    80000670:	6e729463          	bne	t0,t2,80000d58 <fail>

0000000080000674 <test_49>:
    80000674:	03100193          	li	gp,49
    80000678:	0005b283          	ld	t0,0(a1)
    8000067c:	00858593          	addi	a1,a1,8
    80000680:	0010039b          	addiw	t2,zero,1
    80000684:	02039393          	slli	t2,t2,0x20
    80000688:	6c729863          	bne	t0,t2,80000d58 <fail>
    8000068c:	fff00293          	li	t0,-1
    80000690:	0d02f357          	vsetvli	t1,t0,e32,m1,ta,ma
    80000694:	00002617          	auipc	a2,0x2
    80000698:	9fc60613          	addi	a2,a2,-1540 # 80002090 <tdat>
    8000069c:	02066207          	vle32.v	v4,(a2)
    800006a0:	0d12f357          	vsetvli	t1,t0,e32,m2,ta,ma
    800006a4:	02066107          	vle32.v	v2,(a2)
    800006a8:	00002617          	auipc	a2,0x2
    800006ac:	9f060613          	addi	a2,a2,-1552 # 80002098 <tdat+0x8>
    800006b0:	0d02f357          	vsetvli	t1,t0,e32,m1,ta,ma
    800006b4:	02066307          	vle32.v	v6,(a2)
    800006b8:	fff00293          	li	t0,-1
    800006bc:	0c02f357          	vsetvli	t1,t0,e8,m1,ta,ma
    800006c0:	00002697          	auipc	a3,0x2
    800006c4:	a1868693          	addi	a3,a3,-1512 # 800020d8 <mask>
    800006c8:	02068007          	vle8.v	v0,(a3)
    800006cc:	00700293          	li	t0,7
    800006d0:	0d02f357          	vsetvli	t1,t0,e32,m1,ta,ma
    800006d4:	c0430157          	vwredsumu.vs	v2,v4,v6,v0.t
    800006d8:	fff00293          	li	t0,-1
    800006dc:	0d12f357          	vsetvli	t1,t0,e32,m2,ta,ma
    800006e0:	00002597          	auipc	a1,0x2
    800006e4:	92058593          	addi	a1,a1,-1760 # 80002000 <begin_signature>
    800006e8:	0205e127          	vse32.v	v2,(a1)

00000000800006ec <test_50>:
    800006ec:	03200193          	li	gp,50
    800006f0:	0005b283          	ld	t0,0(a1)
    800006f4:	00858593          	addi	a1,a1,8
    800006f8:	0010039b          	addiw	t2,zero,1
    800006fc:	02039393          	slli	t2,t2,0x20
    80000700:	ffb38393          	addi	t2,t2,-5
    80000704:	64729a63          	bne	t0,t2,80000d58 <fail>

0000000080000708 <test_51>:
    80000708:	03300193          	li	gp,51
    8000070c:	0005b283          	ld	t0,0(a1)
    80000710:	00858593          	addi	a1,a1,8
    80000714:	00100393          	li	t2,1
    80000718:	64729063          	bne	t0,t2,80000d58 <fail>

000000008000071c <test_52>:
    8000071c:	03400193          	li	gp,52
    80000720:	0005b283          	ld	t0,0(a1)
    80000724:	00858593          	addi	a1,a1,8
    80000728:	0010039b          	addiw	t2,zero,1
    8000072c:	02239393          	slli	t2,t2,0x22
    80000730:	ff838393          	addi	t2,t2,-8
    80000734:	62729263          	bne	t0,t2,80000d58 <fail>

0000000080000738 <test_53>:
    80000738:	03500193          	li	gp,53
    8000073c:	0005b283          	ld	t0,0(a1)
    80000740:	00858593          	addi	a1,a1,8
    80000744:	0070039b          	addiw	t2,zero,7
    80000748:	02039393          	slli	t2,t2,0x20
    8000074c:	60729663          	bne	t0,t2,80000d58 <fail>

0000000080000750 <test_54>:
    80000750:	03600193          	li	gp,54
    80000754:	0005b283          	ld	t0,0(a1)
    80000758:	00858593          	addi	a1,a1,8
    8000075c:	f00003b7          	lui	t2,0xf0000
    80000760:	fff3839b          	addiw	t2,t2,-1
    80000764:	5e729a63          	bne	t0,t2,80000d58 <fail>

0000000080000768 <test_55>:
    80000768:	03700193          	li	gp,55
    8000076c:	0005b283          	ld	t0,0(a1)
    80000770:	00858593          	addi	a1,a1,8
    80000774:	0010039b          	addiw	t2,zero,1
    80000778:	02039393          	slli	t2,t2,0x20
    8000077c:	5c729e63          	bne	t0,t2,80000d58 <fail>

0000000080000780 <test_56>:
    80000780:	03800193          	li	gp,56
    80000784:	0005b283          	ld	t0,0(a1)
    80000788:	00858593          	addi	a1,a1,8
    8000078c:	fff0039b          	addiw	t2,zero,-1
    80000790:	03c39393          	slli	t2,t2,0x3c
    80000794:	fff38393          	addi	t2,t2,-1 # ffffffffefffffff <_end+0xffffffff6fffdeff>
    80000798:	5c729063          	bne	t0,t2,80000d58 <fail>

000000008000079c <test_57>:
    8000079c:	03900193          	li	gp,57
    800007a0:	0005b283          	ld	t0,0(a1)
    800007a4:	00858593          	addi	a1,a1,8
    800007a8:	0010039b          	addiw	t2,zero,1
    800007ac:	02039393          	slli	t2,t2,0x20
    800007b0:	5a729463          	bne	t0,t2,80000d58 <fail>
    800007b4:	fff00293          	li	t0,-1
    800007b8:	0d02f357          	vsetvli	t1,t0,e32,m1,ta,ma
    800007bc:	00002617          	auipc	a2,0x2
    800007c0:	8d460613          	addi	a2,a2,-1836 # 80002090 <tdat>
    800007c4:	02066207          	vle32.v	v4,(a2)
    800007c8:	0d12f357          	vsetvli	t1,t0,e32,m2,ta,ma
    800007cc:	02066107          	vle32.v	v2,(a2)
    800007d0:	00002617          	auipc	a2,0x2
    800007d4:	8c860613          	addi	a2,a2,-1848 # 80002098 <tdat+0x8>
    800007d8:	0d02f357          	vsetvli	t1,t0,e32,m1,ta,ma
    800007dc:	02066307          	vle32.v	v6,(a2)
    800007e0:	fff00293          	li	t0,-1
    800007e4:	0c02f357          	vsetvli	t1,t0,e8,m1,ta,ma
    800007e8:	00002697          	auipc	a3,0x2
    800007ec:	8f068693          	addi	a3,a3,-1808 # 800020d8 <mask>
    800007f0:	02068007          	vle8.v	v0,(a3)
    800007f4:	00700293          	li	t0,7
    800007f8:	0d02f357          	vsetvli	t1,t0,e32,m1,ta,ma
    800007fc:	c0430157          	vwredsumu.vs	v2,v4,v6,v0.t
    80000800:	fff00293          	li	t0,-1
    80000804:	0d12f357          	vsetvli	t1,t0,e32,m2,ta,ma
    80000808:	00001597          	auipc	a1,0x1
    8000080c:	7f858593          	addi	a1,a1,2040 # 80002000 <begin_signature>
    80000810:	0205e127          	vse32.v	v2,(a1)

0000000080000814 <test_58>:
    80000814:	03a00193          	li	gp,58
    80000818:	0005b283          	ld	t0,0(a1)
    8000081c:	00858593          	addi	a1,a1,8
    80000820:	0010039b          	addiw	t2,zero,1
    80000824:	02039393          	slli	t2,t2,0x20
    80000828:	ffb38393          	addi	t2,t2,-5
    8000082c:	52729663          	bne	t0,t2,80000d58 <fail>

0000000080000830 <test_59>:
    80000830:	03b00193          	li	gp,59
    80000834:	0005b283          	ld	t0,0(a1)
    80000838:	00858593          	addi	a1,a1,8
    8000083c:	00100393          	li	t2,1
    80000840:	50729c63          	bne	t0,t2,80000d58 <fail>

0000000080000844 <test_60>:
    80000844:	03c00193          	li	gp,60
    80000848:	0005b283          	ld	t0,0(a1)
    8000084c:	00858593          	addi	a1,a1,8
    80000850:	0010039b          	addiw	t2,zero,1
    80000854:	02239393          	slli	t2,t2,0x22
    80000858:	ff838393          	addi	t2,t2,-8
    8000085c:	4e729e63          	bne	t0,t2,80000d58 <fail>

0000000080000860 <test_61>:
    80000860:	03d00193          	li	gp,61
    80000864:	0005b283          	ld	t0,0(a1)
    80000868:	00858593          	addi	a1,a1,8
    8000086c:	0070039b          	addiw	t2,zero,7
    80000870:	02039393          	slli	t2,t2,0x20
    80000874:	4e729263          	bne	t0,t2,80000d58 <fail>

0000000080000878 <test_62>:
    80000878:	03e00193          	li	gp,62
    8000087c:	0005b283          	ld	t0,0(a1)
    80000880:	00858593          	addi	a1,a1,8
    80000884:	f00003b7          	lui	t2,0xf0000
    80000888:	fff3839b          	addiw	t2,t2,-1
    8000088c:	4c729663          	bne	t0,t2,80000d58 <fail>

0000000080000890 <test_63>:
    80000890:	03f00193          	li	gp,63
    80000894:	0005b283          	ld	t0,0(a1)
    80000898:	00858593          	addi	a1,a1,8
    8000089c:	0010039b          	addiw	t2,zero,1
    800008a0:	02039393          	slli	t2,t2,0x20
    800008a4:	4a729a63          	bne	t0,t2,80000d58 <fail>

00000000800008a8 <test_64>:
    800008a8:	04000193          	li	gp,64
    800008ac:	0005b283          	ld	t0,0(a1)
    800008b0:	00858593          	addi	a1,a1,8
    800008b4:	fff0039b          	addiw	t2,zero,-1
    800008b8:	03c39393          	slli	t2,t2,0x3c
    800008bc:	fff38393          	addi	t2,t2,-1 # ffffffffefffffff <_end+0xffffffff6fffdeff>
    800008c0:	48729c63          	bne	t0,t2,80000d58 <fail>

00000000800008c4 <test_65>:
    800008c4:	04100193          	li	gp,65
    800008c8:	0005b283          	ld	t0,0(a1)
    800008cc:	00858593          	addi	a1,a1,8
    800008d0:	0010039b          	addiw	t2,zero,1
    800008d4:	02039393          	slli	t2,t2,0x20
    800008d8:	48729063          	bne	t0,t2,80000d58 <fail>
    800008dc:	fff00293          	li	t0,-1
    800008e0:	0d02f357          	vsetvli	t1,t0,e32,m1,ta,ma
    800008e4:	00001617          	auipc	a2,0x1
    800008e8:	7ac60613          	addi	a2,a2,1964 # 80002090 <tdat>
    800008ec:	02066207          	vle32.v	v4,(a2)
    800008f0:	0d12f357          	vsetvli	t1,t0,e32,m2,ta,ma
    800008f4:	02066107          	vle32.v	v2,(a2)
    800008f8:	00001617          	auipc	a2,0x1
    800008fc:	7a060613          	addi	a2,a2,1952 # 80002098 <tdat+0x8>
    80000900:	0d02f357          	vsetvli	t1,t0,e32,m1,ta,ma
    80000904:	02066307          	vle32.v	v6,(a2)
    80000908:	00800293          	li	t0,8
    8000090c:	0d02f357          	vsetvli	t1,t0,e32,m1,ta,ma
    80000910:	c2430157          	vwredsumu.vs	v2,v4,v6
    80000914:	fff00293          	li	t0,-1
    80000918:	0d12f357          	vsetvli	t1,t0,e32,m2,ta,ma
    8000091c:	00001597          	auipc	a1,0x1
    80000920:	6e458593          	addi	a1,a1,1764 # 80002000 <begin_signature>
    80000924:	0205e127          	vse32.v	v2,(a1)

0000000080000928 <test_66>:
    80000928:	04200193          	li	gp,66
    8000092c:	0005b283          	ld	t0,0(a1)
    80000930:	00858593          	addi	a1,a1,8
    80000934:	0010039b          	addiw	t2,zero,1
    80000938:	02039393          	slli	t2,t2,0x20
    8000093c:	00538393          	addi	t2,t2,5
    80000940:	40729c63          	bne	t0,t2,80000d58 <fail>

0000000080000944 <test_67>:
    80000944:	04300193          	li	gp,67
    80000948:	0005b283          	ld	t0,0(a1)
    8000094c:	00858593          	addi	a1,a1,8
    80000950:	00100393          	li	t2,1
    80000954:	40729263          	bne	t0,t2,80000d58 <fail>

0000000080000958 <test_68>:
    80000958:	04400193          	li	gp,68
    8000095c:	0005b283          	ld	t0,0(a1)
    80000960:	00858593          	addi	a1,a1,8
    80000964:	0010039b          	addiw	t2,zero,1
    80000968:	02239393          	slli	t2,t2,0x22
    8000096c:	ff838393          	addi	t2,t2,-8
    80000970:	3e729463          	bne	t0,t2,80000d58 <fail>

0000000080000974 <test_69>:
    80000974:	04500193          	li	gp,69
    80000978:	0005b283          	ld	t0,0(a1)
    8000097c:	00858593          	addi	a1,a1,8
    80000980:	0070039b          	addiw	t2,zero,7
    80000984:	02039393          	slli	t2,t2,0x20
    80000988:	3c729863          	bne	t0,t2,80000d58 <fail>

000000008000098c <test_70>:
    8000098c:	04600193          	li	gp,70
    80000990:	0005b283          	ld	t0,0(a1)
    80000994:	00858593          	addi	a1,a1,8
    80000998:	f00003b7          	lui	t2,0xf0000
    8000099c:	fff3839b          	addiw	t2,t2,-1
    800009a0:	3a729c63          	bne	t0,t2,80000d58 <fail>

00000000800009a4 <test_71>:
    800009a4:	04700193          	li	gp,71
    800009a8:	0005b283          	ld	t0,0(a1)
    800009ac:	00858593          	addi	a1,a1,8
    800009b0:	0010039b          	addiw	t2,zero,1
    800009b4:	02039393          	slli	t2,t2,0x20
    800009b8:	3a729063          	bne	t0,t2,80000d58 <fail>

00000000800009bc <test_72>:
    800009bc:	04800193          	li	gp,72
    800009c0:	0005b283          	ld	t0,0(a1)
    800009c4:	00858593          	addi	a1,a1,8
    800009c8:	fff0039b          	addiw	t2,zero,-1
    800009cc:	03c39393          	slli	t2,t2,0x3c
    800009d0:	fff38393          	addi	t2,t2,-1 # ffffffffefffffff <_end+0xffffffff6fffdeff>
    800009d4:	38729263          	bne	t0,t2,80000d58 <fail>

00000000800009d8 <test_73>:
    800009d8:	04900193          	li	gp,73
    800009dc:	0005b283          	ld	t0,0(a1)
    800009e0:	00858593          	addi	a1,a1,8
    800009e4:	0010039b          	addiw	t2,zero,1
    800009e8:	02039393          	slli	t2,t2,0x20
    800009ec:	36729663          	bne	t0,t2,80000d58 <fail>
    800009f0:	fff00293          	li	t0,-1
    800009f4:	0d02f357          	vsetvli	t1,t0,e32,m1,ta,ma
    800009f8:	00001617          	auipc	a2,0x1
    800009fc:	69860613          	addi	a2,a2,1688 # 80002090 <tdat>
    80000a00:	02066207          	vle32.v	v4,(a2)
    80000a04:	0d12f357          	vsetvli	t1,t0,e32,m2,ta,ma
    80000a08:	02066107          	vle32.v	v2,(a2)
    80000a0c:	00001617          	auipc	a2,0x1
    80000a10:	68c60613          	addi	a2,a2,1676 # 80002098 <tdat+0x8>
    80000a14:	0d02f357          	vsetvli	t1,t0,e32,m1,ta,ma
    80000a18:	02066307          	vle32.v	v6,(a2)
    80000a1c:	00800293          	li	t0,8
    80000a20:	0902f357          	vsetvli	t1,t0,e32,m1,tu,ma
    80000a24:	c2430157          	vwredsumu.vs	v2,v4,v6
    80000a28:	fff00293          	li	t0,-1
    80000a2c:	0d12f357          	vsetvli	t1,t0,e32,m2,ta,ma
    80000a30:	00001597          	auipc	a1,0x1
    80000a34:	5d058593          	addi	a1,a1,1488 # 80002000 <begin_signature>
    80000a38:	0205e127          	vse32.v	v2,(a1)

0000000080000a3c <test_74>:
    80000a3c:	04a00193          	li	gp,74
    80000a40:	0005b283          	ld	t0,0(a1)
    80000a44:	00858593          	addi	a1,a1,8
    80000a48:	0010039b          	addiw	t2,zero,1
    80000a4c:	02039393          	slli	t2,t2,0x20
    80000a50:	00538393          	addi	t2,t2,5
    80000a54:	30729263          	bne	t0,t2,80000d58 <fail>

0000000080000a58 <test_75>:
    80000a58:	04b00193          	li	gp,75
    80000a5c:	0005b283          	ld	t0,0(a1)
    80000a60:	00858593          	addi	a1,a1,8
    80000a64:	00100393          	li	t2,1
    80000a68:	2e729863          	bne	t0,t2,80000d58 <fail>

0000000080000a6c <test_76>:
    80000a6c:	04c00193          	li	gp,76
    80000a70:	0005b283          	ld	t0,0(a1)
    80000a74:	00858593          	addi	a1,a1,8
    80000a78:	0010039b          	addiw	t2,zero,1
    80000a7c:	02239393          	slli	t2,t2,0x22
    80000a80:	ff838393          	addi	t2,t2,-8
    80000a84:	2c729a63          	bne	t0,t2,80000d58 <fail>

0000000080000a88 <test_77>:
    80000a88:	04d00193          	li	gp,77
    80000a8c:	0005b283          	ld	t0,0(a1)
    80000a90:	00858593          	addi	a1,a1,8
    80000a94:	0070039b          	addiw	t2,zero,7
    80000a98:	02039393          	slli	t2,t2,0x20
    80000a9c:	2a729e63          	bne	t0,t2,80000d58 <fail>

0000000080000aa0 <test_78>:
    80000aa0:	04e00193          	li	gp,78
    80000aa4:	0005b283          	ld	t0,0(a1)
    80000aa8:	00858593          	addi	a1,a1,8
    80000aac:	f00003b7          	lui	t2,0xf0000
    80000ab0:	fff3839b          	addiw	t2,t2,-1
    80000ab4:	2a729263          	bne	t0,t2,80000d58 <fail>

0000000080000ab8 <test_79>:
    80000ab8:	04f00193          	li	gp,79
    80000abc:	0005b283          	ld	t0,0(a1)
    80000ac0:	00858593          	addi	a1,a1,8
    80000ac4:	0010039b          	addiw	t2,zero,1
    80000ac8:	02039393          	slli	t2,t2,0x20
    80000acc:	28729663          	bne	t0,t2,80000d58 <fail>

0000000080000ad0 <test_80>:
    80000ad0:	05000193          	li	gp,80
    80000ad4:	0005b283          	ld	t0,0(a1)
    80000ad8:	00858593          	addi	a1,a1,8
    80000adc:	fff0039b          	addiw	t2,zero,-1
    80000ae0:	03c39393          	slli	t2,t2,0x3c
    80000ae4:	fff38393          	addi	t2,t2,-1 # ffffffffefffffff <_end+0xffffffff6fffdeff>
    80000ae8:	26729863          	bne	t0,t2,80000d58 <fail>

0000000080000aec <test_81>:
    80000aec:	05100193          	li	gp,81
    80000af0:	0005b283          	ld	t0,0(a1)
    80000af4:	00858593          	addi	a1,a1,8
    80000af8:	0010039b          	addiw	t2,zero,1
    80000afc:	02039393          	slli	t2,t2,0x20
    80000b00:	24729c63          	bne	t0,t2,80000d58 <fail>
    80000b04:	fff00293          	li	t0,-1
    80000b08:	0d02f357          	vsetvli	t1,t0,e32,m1,ta,ma
    80000b0c:	00001617          	auipc	a2,0x1
    80000b10:	58460613          	addi	a2,a2,1412 # 80002090 <tdat>
    80000b14:	02066207          	vle32.v	v4,(a2)
    80000b18:	0d12f357          	vsetvli	t1,t0,e32,m2,ta,ma
    80000b1c:	02066107          	vle32.v	v2,(a2)
    80000b20:	00001617          	auipc	a2,0x1
    80000b24:	57860613          	addi	a2,a2,1400 # 80002098 <tdat+0x8>
    80000b28:	0d02f357          	vsetvli	t1,t0,e32,m1,ta,ma
    80000b2c:	02066307          	vle32.v	v6,(a2)
    80000b30:	fff00293          	li	t0,-1
    80000b34:	0c02f357          	vsetvli	t1,t0,e8,m1,ta,ma
    80000b38:	00001697          	auipc	a3,0x1
    80000b3c:	5a068693          	addi	a3,a3,1440 # 800020d8 <mask>
    80000b40:	02068007          	vle8.v	v0,(a3)
    80000b44:	00800293          	li	t0,8
    80000b48:	0d02f357          	vsetvli	t1,t0,e32,m1,ta,ma
    80000b4c:	c0430157          	vwredsumu.vs	v2,v4,v6,v0.t
    80000b50:	fff00293          	li	t0,-1
    80000b54:	0d12f357          	vsetvli	t1,t0,e32,m2,ta,ma
    80000b58:	00001597          	auipc	a1,0x1
    80000b5c:	4a858593          	addi	a1,a1,1192 # 80002000 <begin_signature>
    80000b60:	0205e127          	vse32.v	v2,(a1)

0000000080000b64 <test_82>:
    80000b64:	05200193          	li	gp,82
    80000b68:	0005b283          	ld	t0,0(a1)
    80000b6c:	00858593          	addi	a1,a1,8
    80000b70:	0010039b          	addiw	t2,zero,1
    80000b74:	02039393          	slli	t2,t2,0x20
    80000b78:	ffb38393          	addi	t2,t2,-5
    80000b7c:	1c729e63          	bne	t0,t2,80000d58 <fail>

0000000080000b80 <test_83>:
    80000b80:	05300193          	li	gp,83
    80000b84:	0005b283          	ld	t0,0(a1)
    80000b88:	00858593          	addi	a1,a1,8
    80000b8c:	00100393          	li	t2,1
    80000b90:	1c729463          	bne	t0,t2,80000d58 <fail>

0000000080000b94 <test_84>:
    80000b94:	05400193          	li	gp,84
    80000b98:	0005b283          	ld	t0,0(a1)
    80000b9c:	00858593          	addi	a1,a1,8
    80000ba0:	0010039b          	addiw	t2,zero,1
    80000ba4:	02239393          	slli	t2,t2,0x22
    80000ba8:	ff838393          	addi	t2,t2,-8
    80000bac:	1a729663          	bne	t0,t2,80000d58 <fail>

0000000080000bb0 <test_85>:
    80000bb0:	05500193          	li	gp,85
    80000bb4:	0005b283          	ld	t0,0(a1)
    80000bb8:	00858593          	addi	a1,a1,8
    80000bbc:	0070039b          	addiw	t2,zero,7
    80000bc0:	02039393          	slli	t2,t2,0x20
    80000bc4:	18729a63          	bne	t0,t2,80000d58 <fail>

0000000080000bc8 <test_86>:
    80000bc8:	05600193          	li	gp,86
    80000bcc:	0005b283          	ld	t0,0(a1)
    80000bd0:	00858593          	addi	a1,a1,8
    80000bd4:	f00003b7          	lui	t2,0xf0000
    80000bd8:	fff3839b          	addiw	t2,t2,-1
    80000bdc:	16729e63          	bne	t0,t2,80000d58 <fail>

0000000080000be0 <test_87>:
    80000be0:	05700193          	li	gp,87
    80000be4:	0005b283          	ld	t0,0(a1)
    80000be8:	00858593          	addi	a1,a1,8
    80000bec:	0010039b          	addiw	t2,zero,1
    80000bf0:	02039393          	slli	t2,t2,0x20
    80000bf4:	16729263          	bne	t0,t2,80000d58 <fail>

0000000080000bf8 <test_88>:
    80000bf8:	05800193          	li	gp,88
    80000bfc:	0005b283          	ld	t0,0(a1)
    80000c00:	00858593          	addi	a1,a1,8
    80000c04:	fff0039b          	addiw	t2,zero,-1
    80000c08:	03c39393          	slli	t2,t2,0x3c
    80000c0c:	fff38393          	addi	t2,t2,-1 # ffffffffefffffff <_end+0xffffffff6fffdeff>
    80000c10:	14729463          	bne	t0,t2,80000d58 <fail>

0000000080000c14 <test_89>:
    80000c14:	05900193          	li	gp,89
    80000c18:	0005b283          	ld	t0,0(a1)
    80000c1c:	00858593          	addi	a1,a1,8
    80000c20:	0010039b          	addiw	t2,zero,1
    80000c24:	02039393          	slli	t2,t2,0x20
    80000c28:	12729863          	bne	t0,t2,80000d58 <fail>
    80000c2c:	fff00293          	li	t0,-1
    80000c30:	0d02f357          	vsetvli	t1,t0,e32,m1,ta,ma
    80000c34:	00001617          	auipc	a2,0x1
    80000c38:	45c60613          	addi	a2,a2,1116 # 80002090 <tdat>
    80000c3c:	02066207          	vle32.v	v4,(a2)
    80000c40:	0d12f357          	vsetvli	t1,t0,e32,m2,ta,ma
    80000c44:	02066107          	vle32.v	v2,(a2)
    80000c48:	00001617          	auipc	a2,0x1
    80000c4c:	45060613          	addi	a2,a2,1104 # 80002098 <tdat+0x8>
    80000c50:	0d02f357          	vsetvli	t1,t0,e32,m1,ta,ma
    80000c54:	02066307          	vle32.v	v6,(a2)
    80000c58:	fff00293          	li	t0,-1
    80000c5c:	0c02f357          	vsetvli	t1,t0,e8,m1,ta,ma
    80000c60:	00001697          	auipc	a3,0x1
    80000c64:	47868693          	addi	a3,a3,1144 # 800020d8 <mask>
    80000c68:	02068007          	vle8.v	v0,(a3)
    80000c6c:	00800293          	li	t0,8
    80000c70:	0d02f357          	vsetvli	t1,t0,e32,m1,ta,ma
    80000c74:	c0430157          	vwredsumu.vs	v2,v4,v6,v0.t
    80000c78:	fff00293          	li	t0,-1
    80000c7c:	0d12f357          	vsetvli	t1,t0,e32,m2,ta,ma
    80000c80:	00001597          	auipc	a1,0x1
    80000c84:	38058593          	addi	a1,a1,896 # 80002000 <begin_signature>
    80000c88:	0205e127          	vse32.v	v2,(a1)

0000000080000c8c <test_90>:
    80000c8c:	05a00193          	li	gp,90
    80000c90:	0005b283          	ld	t0,0(a1)
    80000c94:	00858593          	addi	a1,a1,8
    80000c98:	0010039b          	addiw	t2,zero,1
    80000c9c:	02039393          	slli	t2,t2,0x20
    80000ca0:	ffb38393          	addi	t2,t2,-5
    80000ca4:	0a729a63          	bne	t0,t2,80000d58 <fail>

0000000080000ca8 <test_91>:
    80000ca8:	05b00193          	li	gp,91
    80000cac:	0005b283          	ld	t0,0(a1)
    80000cb0:	00858593          	addi	a1,a1,8
    80000cb4:	00100393          	li	t2,1
    80000cb8:	0a729063          	bne	t0,t2,80000d58 <fail>

0000000080000cbc <test_92>:
    80000cbc:	05c00193          	li	gp,92
    80000cc0:	0005b283          	ld	t0,0(a1)
    80000cc4:	00858593          	addi	a1,a1,8
    80000cc8:	0010039b          	addiw	t2,zero,1
    80000ccc:	02239393          	slli	t2,t2,0x22
    80000cd0:	ff838393          	addi	t2,t2,-8
    80000cd4:	08729263          	bne	t0,t2,80000d58 <fail>

0000000080000cd8 <test_93>:
    80000cd8:	05d00193          	li	gp,93
    80000cdc:	0005b283          	ld	t0,0(a1)
    80000ce0:	00858593          	addi	a1,a1,8
    80000ce4:	0070039b          	addiw	t2,zero,7
    80000ce8:	02039393          	slli	t2,t2,0x20
    80000cec:	06729663          	bne	t0,t2,80000d58 <fail>

0000000080000cf0 <test_94>:
    80000cf0:	05e00193          	li	gp,94
    80000cf4:	0005b283          	ld	t0,0(a1)
    80000cf8:	00858593          	addi	a1,a1,8
    80000cfc:	f00003b7          	lui	t2,0xf0000
    80000d00:	fff3839b          	addiw	t2,t2,-1
    80000d04:	04729a63          	bne	t0,t2,80000d58 <fail>

0000000080000d08 <test_95>:
    80000d08:	05f00193          	li	gp,95
    80000d0c:	0005b283          	ld	t0,0(a1)
    80000d10:	00858593          	addi	a1,a1,8
    80000d14:	0010039b          	addiw	t2,zero,1
    80000d18:	02039393          	slli	t2,t2,0x20
    80000d1c:	02729e63          	bne	t0,t2,80000d58 <fail>

0000000080000d20 <test_96>:
    80000d20:	06000193          	li	gp,96
    80000d24:	0005b283          	ld	t0,0(a1)
    80000d28:	00858593          	addi	a1,a1,8
    80000d2c:	fff0039b          	addiw	t2,zero,-1
    80000d30:	03c39393          	slli	t2,t2,0x3c
    80000d34:	fff38393          	addi	t2,t2,-1 # ffffffffefffffff <_end+0xffffffff6fffdeff>
    80000d38:	02729063          	bne	t0,t2,80000d58 <fail>

0000000080000d3c <test_97>:
    80000d3c:	06100193          	li	gp,97
    80000d40:	0005b283          	ld	t0,0(a1)
    80000d44:	00858593          	addi	a1,a1,8
    80000d48:	0010039b          	addiw	t2,zero,1
    80000d4c:	02039393          	slli	t2,t2,0x20
    80000d50:	00729463          	bne	t0,t2,80000d58 <fail>
    80000d54:	00301a63          	bne	zero,gp,80000d68 <pass>

0000000080000d58 <fail>:
    80000d58:	0ff0000f          	fence
    80000d5c:	00018513          	mv	a0,gp
    80000d60:	05d00893          	li	a7,93
    80000d64:	00000073          	ecall

0000000080000d68 <pass>:
    80000d68:	0ff0000f          	fence
    80000d6c:	00000513          	li	a0,0
    80000d70:	05d00893          	li	a7,93
    80000d74:	00000073          	ecall
    80000d78:	0000                	unimp
    80000d7a:	0000                	unimp
    80000d7c:	0000                	unimp
    80000d7e:	0000                	unimp
    80000d80:	0000                	unimp
    80000d82:	0000                	unimp
