
rv64uv-ps-vwredsumu.vs_LMUL2SEW16:     file format elf64-littleriscv


Disassembly of section .text.init:

0000000080000000 <_start>:
    80000000:	00000297          	auipc	t0,0x0
    80000004:	00c28293          	addi	t0,t0,12 # 8000000c <_start+0xc>
    80000008:	00028067          	jr	t0
    8000000c:	fff00293          	li	t0,-1
    80000010:	0c92f357          	vsetvli	t1,t0,e16,m2,ta,ma
    80000014:	00003617          	auipc	a2,0x3
    80000018:	0fc60613          	addi	a2,a2,252 # 80003110 <tdat>
    8000001c:	02065407          	vle16.v	v8,(a2)
    80000020:	0ca2f357          	vsetvli	t1,t0,e16,m4,ta,ma
    80000024:	02065207          	vle16.v	v4,(a2)
    80000028:	00003617          	auipc	a2,0x3
    8000002c:	0f060613          	addi	a2,a2,240 # 80003118 <tdat+0x8>
    80000030:	0c92f357          	vsetvli	t1,t0,e16,m2,ta,ma
    80000034:	02065607          	vle16.v	v12,(a2)
    80000038:	01000293          	li	t0,16
    8000003c:	0c92f357          	vsetvli	t1,t0,e16,m2,ta,ma
    80000040:	c2860257          	vwredsumu.vs	v4,v8,v12
    80000044:	fff00293          	li	t0,-1
    80000048:	0ca2f357          	vsetvli	t1,t0,e16,m4,ta,ma
    8000004c:	00003597          	auipc	a1,0x3
    80000050:	fb458593          	addi	a1,a1,-76 # 80003000 <begin_signature>
    80000054:	0205d227          	vse16.v	v4,(a1)

0000000080000058 <test_2>:
    80000058:	00200193          	li	gp,2
    8000005c:	0005b283          	ld	t0,0(a1)
    80000060:	00858593          	addi	a1,a1,8
    80000064:	000803b7          	lui	t2,0x80
    80000068:	05f3839b          	addiw	t2,t2,95
    8000006c:	00d39393          	slli	t2,t2,0xd
    80000070:	00238393          	addi	t2,t2,2 # 80002 <_start-0x7ff7fffe>
    80000074:	00728463          	beq	t0,t2,8000007c <test_3>
    80000078:	4210106f          	j	80001c98 <fail>

000000008000007c <test_3>:
    8000007c:	00300193          	li	gp,3
    80000080:	0005b283          	ld	t0,0(a1)
    80000084:	00858593          	addi	a1,a1,8
    80000088:	000103b7          	lui	t2,0x10
    8000008c:	0073839b          	addiw	t2,t2,7
    80000090:	01039393          	slli	t2,t2,0x10
    80000094:	00728463          	beq	t0,t2,8000009c <test_4>
    80000098:	4010106f          	j	80001c98 <fail>

000000008000009c <test_4>:
    8000009c:	00400193          	li	gp,4
    800000a0:	0005b283          	ld	t0,0(a1)
    800000a4:	00858593          	addi	a1,a1,8
    800000a8:	ffff03b7          	lui	t2,0xffff0
    800000ac:	fff3839b          	addiw	t2,t2,-1
    800000b0:	01c39393          	slli	t2,t2,0x1c
    800000b4:	fff38393          	addi	t2,t2,-1 # fffffffffffeffff <_end+0xffffffff7ffece3f>
    800000b8:	00728463          	beq	t0,t2,800000c0 <test_5>
    800000bc:	3dd0106f          	j	80001c98 <fail>

00000000800000c0 <test_5>:
    800000c0:	00500193          	li	gp,5
    800000c4:	0005b283          	ld	t0,0(a1)
    800000c8:	00858593          	addi	a1,a1,8
    800000cc:	0010039b          	addiw	t2,zero,1
    800000d0:	02039393          	slli	t2,t2,0x20
    800000d4:	00138393          	addi	t2,t2,1
    800000d8:	01039393          	slli	t2,t2,0x10
    800000dc:	00728463          	beq	t0,t2,800000e4 <test_6>
    800000e0:	3b90106f          	j	80001c98 <fail>

00000000800000e4 <test_6>:
    800000e4:	00600193          	li	gp,6
    800000e8:	0005b283          	ld	t0,0(a1)
    800000ec:	00858593          	addi	a1,a1,8
    800000f0:	000043b7          	lui	t2,0x4
    800000f4:	0013839b          	addiw	t2,t2,1
    800000f8:	01239393          	slli	t2,t2,0x12
    800000fc:	ff838393          	addi	t2,t2,-8 # 3ff8 <_start-0x7fffc008>
    80000100:	00728463          	beq	t0,t2,80000108 <test_7>
    80000104:	3950106f          	j	80001c98 <fail>

0000000080000108 <test_7>:
    80000108:	00700193          	li	gp,7
    8000010c:	0005b283          	ld	t0,0(a1)
    80000110:	00858593          	addi	a1,a1,8
    80000114:	000103b7          	lui	t2,0x10
    80000118:	0073839b          	addiw	t2,t2,7
    8000011c:	01039393          	slli	t2,t2,0x10
    80000120:	00728463          	beq	t0,t2,80000128 <test_8>
    80000124:	3750106f          	j	80001c98 <fail>

0000000080000128 <test_8>:
    80000128:	00800193          	li	gp,8
    8000012c:	0005b283          	ld	t0,0(a1)
    80000130:	00858593          	addi	a1,a1,8
    80000134:	ffff03b7          	lui	t2,0xffff0
    80000138:	fff3839b          	addiw	t2,t2,-1
    8000013c:	01c39393          	slli	t2,t2,0x1c
    80000140:	fff38393          	addi	t2,t2,-1 # fffffffffffeffff <_end+0xffffffff7ffece3f>
    80000144:	00728463          	beq	t0,t2,8000014c <test_9>
    80000148:	3510106f          	j	80001c98 <fail>

000000008000014c <test_9>:
    8000014c:	00900193          	li	gp,9
    80000150:	0005b283          	ld	t0,0(a1)
    80000154:	00858593          	addi	a1,a1,8
    80000158:	0010039b          	addiw	t2,zero,1
    8000015c:	02039393          	slli	t2,t2,0x20
    80000160:	00138393          	addi	t2,t2,1
    80000164:	01039393          	slli	t2,t2,0x10
    80000168:	00728463          	beq	t0,t2,80000170 <test_10>
    8000016c:	32d0106f          	j	80001c98 <fail>

0000000080000170 <test_10>:
    80000170:	00a00193          	li	gp,10
    80000174:	0005b283          	ld	t0,0(a1)
    80000178:	00858593          	addi	a1,a1,8
    8000017c:	000043b7          	lui	t2,0x4
    80000180:	0013839b          	addiw	t2,t2,1
    80000184:	01239393          	slli	t2,t2,0x12
    80000188:	ff838393          	addi	t2,t2,-8 # 3ff8 <_start-0x7fffc008>
    8000018c:	00728463          	beq	t0,t2,80000194 <test_11>
    80000190:	3090106f          	j	80001c98 <fail>

0000000080000194 <test_11>:
    80000194:	00b00193          	li	gp,11
    80000198:	0005b283          	ld	t0,0(a1)
    8000019c:	00858593          	addi	a1,a1,8
    800001a0:	000103b7          	lui	t2,0x10
    800001a4:	0073839b          	addiw	t2,t2,7
    800001a8:	01039393          	slli	t2,t2,0x10
    800001ac:	00728463          	beq	t0,t2,800001b4 <test_12>
    800001b0:	2e90106f          	j	80001c98 <fail>

00000000800001b4 <test_12>:
    800001b4:	00c00193          	li	gp,12
    800001b8:	0005b283          	ld	t0,0(a1)
    800001bc:	00858593          	addi	a1,a1,8
    800001c0:	ffff03b7          	lui	t2,0xffff0
    800001c4:	fff3839b          	addiw	t2,t2,-1
    800001c8:	01c39393          	slli	t2,t2,0x1c
    800001cc:	fff38393          	addi	t2,t2,-1 # fffffffffffeffff <_end+0xffffffff7ffece3f>
    800001d0:	00728463          	beq	t0,t2,800001d8 <test_13>
    800001d4:	2c50106f          	j	80001c98 <fail>

00000000800001d8 <test_13>:
    800001d8:	00d00193          	li	gp,13
    800001dc:	0005b283          	ld	t0,0(a1)
    800001e0:	00858593          	addi	a1,a1,8
    800001e4:	0010039b          	addiw	t2,zero,1
    800001e8:	02039393          	slli	t2,t2,0x20
    800001ec:	00138393          	addi	t2,t2,1
    800001f0:	01039393          	slli	t2,t2,0x10
    800001f4:	00728463          	beq	t0,t2,800001fc <test_14>
    800001f8:	2a10106f          	j	80001c98 <fail>

00000000800001fc <test_14>:
    800001fc:	00e00193          	li	gp,14
    80000200:	0005b283          	ld	t0,0(a1)
    80000204:	00858593          	addi	a1,a1,8
    80000208:	000043b7          	lui	t2,0x4
    8000020c:	0013839b          	addiw	t2,t2,1
    80000210:	01239393          	slli	t2,t2,0x12
    80000214:	ff838393          	addi	t2,t2,-8 # 3ff8 <_start-0x7fffc008>
    80000218:	00728463          	beq	t0,t2,80000220 <test_15>
    8000021c:	27d0106f          	j	80001c98 <fail>

0000000080000220 <test_15>:
    80000220:	00f00193          	li	gp,15
    80000224:	0005b283          	ld	t0,0(a1)
    80000228:	00858593          	addi	a1,a1,8
    8000022c:	000103b7          	lui	t2,0x10
    80000230:	0073839b          	addiw	t2,t2,7
    80000234:	01039393          	slli	t2,t2,0x10
    80000238:	00728463          	beq	t0,t2,80000240 <test_16>
    8000023c:	25d0106f          	j	80001c98 <fail>

0000000080000240 <test_16>:
    80000240:	01000193          	li	gp,16
    80000244:	0005b283          	ld	t0,0(a1)
    80000248:	00858593          	addi	a1,a1,8
    8000024c:	ffff03b7          	lui	t2,0xffff0
    80000250:	fff3839b          	addiw	t2,t2,-1
    80000254:	01c39393          	slli	t2,t2,0x1c
    80000258:	fff38393          	addi	t2,t2,-1 # fffffffffffeffff <_end+0xffffffff7ffece3f>
    8000025c:	00728463          	beq	t0,t2,80000264 <test_17>
    80000260:	2390106f          	j	80001c98 <fail>

0000000080000264 <test_17>:
    80000264:	01100193          	li	gp,17
    80000268:	0005b283          	ld	t0,0(a1)
    8000026c:	00858593          	addi	a1,a1,8
    80000270:	0010039b          	addiw	t2,zero,1
    80000274:	02039393          	slli	t2,t2,0x20
    80000278:	00138393          	addi	t2,t2,1
    8000027c:	01039393          	slli	t2,t2,0x10
    80000280:	00728463          	beq	t0,t2,80000288 <test_17+0x24>
    80000284:	2150106f          	j	80001c98 <fail>
    80000288:	fff00293          	li	t0,-1
    8000028c:	0c92f357          	vsetvli	t1,t0,e16,m2,ta,ma
    80000290:	00003617          	auipc	a2,0x3
    80000294:	e8060613          	addi	a2,a2,-384 # 80003110 <tdat>
    80000298:	02065407          	vle16.v	v8,(a2)
    8000029c:	0ca2f357          	vsetvli	t1,t0,e16,m4,ta,ma
    800002a0:	02065207          	vle16.v	v4,(a2)
    800002a4:	00003617          	auipc	a2,0x3
    800002a8:	e7460613          	addi	a2,a2,-396 # 80003118 <tdat+0x8>
    800002ac:	0c92f357          	vsetvli	t1,t0,e16,m2,ta,ma
    800002b0:	02065607          	vle16.v	v12,(a2)
    800002b4:	01000293          	li	t0,16
    800002b8:	0892f357          	vsetvli	t1,t0,e16,m2,tu,ma
    800002bc:	c2860257          	vwredsumu.vs	v4,v8,v12
    800002c0:	fff00293          	li	t0,-1
    800002c4:	0ca2f357          	vsetvli	t1,t0,e16,m4,ta,ma
    800002c8:	00003597          	auipc	a1,0x3
    800002cc:	d3858593          	addi	a1,a1,-712 # 80003000 <begin_signature>
    800002d0:	0205d227          	vse16.v	v4,(a1)

00000000800002d4 <test_18>:
    800002d4:	01200193          	li	gp,18
    800002d8:	0005b283          	ld	t0,0(a1)
    800002dc:	00858593          	addi	a1,a1,8
    800002e0:	000803b7          	lui	t2,0x80
    800002e4:	05f3839b          	addiw	t2,t2,95
    800002e8:	00d39393          	slli	t2,t2,0xd
    800002ec:	00238393          	addi	t2,t2,2 # 80002 <_start-0x7ff7fffe>
    800002f0:	00728463          	beq	t0,t2,800002f8 <test_19>
    800002f4:	1a50106f          	j	80001c98 <fail>

00000000800002f8 <test_19>:
    800002f8:	01300193          	li	gp,19
    800002fc:	0005b283          	ld	t0,0(a1)
    80000300:	00858593          	addi	a1,a1,8
    80000304:	000103b7          	lui	t2,0x10
    80000308:	0073839b          	addiw	t2,t2,7
    8000030c:	01039393          	slli	t2,t2,0x10
    80000310:	00728463          	beq	t0,t2,80000318 <test_20>
    80000314:	1850106f          	j	80001c98 <fail>

0000000080000318 <test_20>:
    80000318:	01400193          	li	gp,20
    8000031c:	0005b283          	ld	t0,0(a1)
    80000320:	00858593          	addi	a1,a1,8
    80000324:	ffff03b7          	lui	t2,0xffff0
    80000328:	fff3839b          	addiw	t2,t2,-1
    8000032c:	01c39393          	slli	t2,t2,0x1c
    80000330:	fff38393          	addi	t2,t2,-1 # fffffffffffeffff <_end+0xffffffff7ffece3f>
    80000334:	00728463          	beq	t0,t2,8000033c <test_21>
    80000338:	1610106f          	j	80001c98 <fail>

000000008000033c <test_21>:
    8000033c:	01500193          	li	gp,21
    80000340:	0005b283          	ld	t0,0(a1)
    80000344:	00858593          	addi	a1,a1,8
    80000348:	0010039b          	addiw	t2,zero,1
    8000034c:	02039393          	slli	t2,t2,0x20
    80000350:	00138393          	addi	t2,t2,1
    80000354:	01039393          	slli	t2,t2,0x10
    80000358:	00728463          	beq	t0,t2,80000360 <test_22>
    8000035c:	13d0106f          	j	80001c98 <fail>

0000000080000360 <test_22>:
    80000360:	01600193          	li	gp,22
    80000364:	0005b283          	ld	t0,0(a1)
    80000368:	00858593          	addi	a1,a1,8
    8000036c:	000043b7          	lui	t2,0x4
    80000370:	0013839b          	addiw	t2,t2,1
    80000374:	01239393          	slli	t2,t2,0x12
    80000378:	ff838393          	addi	t2,t2,-8 # 3ff8 <_start-0x7fffc008>
    8000037c:	00728463          	beq	t0,t2,80000384 <test_23>
    80000380:	1190106f          	j	80001c98 <fail>

0000000080000384 <test_23>:
    80000384:	01700193          	li	gp,23
    80000388:	0005b283          	ld	t0,0(a1)
    8000038c:	00858593          	addi	a1,a1,8
    80000390:	000103b7          	lui	t2,0x10
    80000394:	0073839b          	addiw	t2,t2,7
    80000398:	01039393          	slli	t2,t2,0x10
    8000039c:	00728463          	beq	t0,t2,800003a4 <test_24>
    800003a0:	0f90106f          	j	80001c98 <fail>

00000000800003a4 <test_24>:
    800003a4:	01800193          	li	gp,24
    800003a8:	0005b283          	ld	t0,0(a1)
    800003ac:	00858593          	addi	a1,a1,8
    800003b0:	ffff03b7          	lui	t2,0xffff0
    800003b4:	fff3839b          	addiw	t2,t2,-1
    800003b8:	01c39393          	slli	t2,t2,0x1c
    800003bc:	fff38393          	addi	t2,t2,-1 # fffffffffffeffff <_end+0xffffffff7ffece3f>
    800003c0:	00728463          	beq	t0,t2,800003c8 <test_25>
    800003c4:	0d50106f          	j	80001c98 <fail>

00000000800003c8 <test_25>:
    800003c8:	01900193          	li	gp,25
    800003cc:	0005b283          	ld	t0,0(a1)
    800003d0:	00858593          	addi	a1,a1,8
    800003d4:	0010039b          	addiw	t2,zero,1
    800003d8:	02039393          	slli	t2,t2,0x20
    800003dc:	00138393          	addi	t2,t2,1
    800003e0:	01039393          	slli	t2,t2,0x10
    800003e4:	00728463          	beq	t0,t2,800003ec <test_26>
    800003e8:	0b10106f          	j	80001c98 <fail>

00000000800003ec <test_26>:
    800003ec:	01a00193          	li	gp,26
    800003f0:	0005b283          	ld	t0,0(a1)
    800003f4:	00858593          	addi	a1,a1,8
    800003f8:	000043b7          	lui	t2,0x4
    800003fc:	0013839b          	addiw	t2,t2,1
    80000400:	01239393          	slli	t2,t2,0x12
    80000404:	ff838393          	addi	t2,t2,-8 # 3ff8 <_start-0x7fffc008>
    80000408:	00728463          	beq	t0,t2,80000410 <test_27>
    8000040c:	08d0106f          	j	80001c98 <fail>

0000000080000410 <test_27>:
    80000410:	01b00193          	li	gp,27
    80000414:	0005b283          	ld	t0,0(a1)
    80000418:	00858593          	addi	a1,a1,8
    8000041c:	000103b7          	lui	t2,0x10
    80000420:	0073839b          	addiw	t2,t2,7
    80000424:	01039393          	slli	t2,t2,0x10
    80000428:	00728463          	beq	t0,t2,80000430 <test_28>
    8000042c:	06d0106f          	j	80001c98 <fail>

0000000080000430 <test_28>:
    80000430:	01c00193          	li	gp,28
    80000434:	0005b283          	ld	t0,0(a1)
    80000438:	00858593          	addi	a1,a1,8
    8000043c:	ffff03b7          	lui	t2,0xffff0
    80000440:	fff3839b          	addiw	t2,t2,-1
    80000444:	01c39393          	slli	t2,t2,0x1c
    80000448:	fff38393          	addi	t2,t2,-1 # fffffffffffeffff <_end+0xffffffff7ffece3f>
    8000044c:	00728463          	beq	t0,t2,80000454 <test_29>
    80000450:	0490106f          	j	80001c98 <fail>

0000000080000454 <test_29>:
    80000454:	01d00193          	li	gp,29
    80000458:	0005b283          	ld	t0,0(a1)
    8000045c:	00858593          	addi	a1,a1,8
    80000460:	0010039b          	addiw	t2,zero,1
    80000464:	02039393          	slli	t2,t2,0x20
    80000468:	00138393          	addi	t2,t2,1
    8000046c:	01039393          	slli	t2,t2,0x10
    80000470:	00728463          	beq	t0,t2,80000478 <test_30>
    80000474:	0250106f          	j	80001c98 <fail>

0000000080000478 <test_30>:
    80000478:	01e00193          	li	gp,30
    8000047c:	0005b283          	ld	t0,0(a1)
    80000480:	00858593          	addi	a1,a1,8
    80000484:	000043b7          	lui	t2,0x4
    80000488:	0013839b          	addiw	t2,t2,1
    8000048c:	01239393          	slli	t2,t2,0x12
    80000490:	ff838393          	addi	t2,t2,-8 # 3ff8 <_start-0x7fffc008>
    80000494:	00728463          	beq	t0,t2,8000049c <test_31>
    80000498:	0010106f          	j	80001c98 <fail>

000000008000049c <test_31>:
    8000049c:	01f00193          	li	gp,31
    800004a0:	0005b283          	ld	t0,0(a1)
    800004a4:	00858593          	addi	a1,a1,8
    800004a8:	000103b7          	lui	t2,0x10
    800004ac:	0073839b          	addiw	t2,t2,7
    800004b0:	01039393          	slli	t2,t2,0x10
    800004b4:	00728463          	beq	t0,t2,800004bc <test_32>
    800004b8:	7e00106f          	j	80001c98 <fail>

00000000800004bc <test_32>:
    800004bc:	02000193          	li	gp,32
    800004c0:	0005b283          	ld	t0,0(a1)
    800004c4:	00858593          	addi	a1,a1,8
    800004c8:	ffff03b7          	lui	t2,0xffff0
    800004cc:	fff3839b          	addiw	t2,t2,-1
    800004d0:	01c39393          	slli	t2,t2,0x1c
    800004d4:	fff38393          	addi	t2,t2,-1 # fffffffffffeffff <_end+0xffffffff7ffece3f>
    800004d8:	00728463          	beq	t0,t2,800004e0 <test_33>
    800004dc:	7bc0106f          	j	80001c98 <fail>

00000000800004e0 <test_33>:
    800004e0:	02100193          	li	gp,33
    800004e4:	0005b283          	ld	t0,0(a1)
    800004e8:	00858593          	addi	a1,a1,8
    800004ec:	0010039b          	addiw	t2,zero,1
    800004f0:	02039393          	slli	t2,t2,0x20
    800004f4:	00138393          	addi	t2,t2,1
    800004f8:	01039393          	slli	t2,t2,0x10
    800004fc:	00728463          	beq	t0,t2,80000504 <test_33+0x24>
    80000500:	7980106f          	j	80001c98 <fail>
    80000504:	fff00293          	li	t0,-1
    80000508:	0c92f357          	vsetvli	t1,t0,e16,m2,ta,ma
    8000050c:	00003617          	auipc	a2,0x3
    80000510:	c0460613          	addi	a2,a2,-1020 # 80003110 <tdat>
    80000514:	02065407          	vle16.v	v8,(a2)
    80000518:	0ca2f357          	vsetvli	t1,t0,e16,m4,ta,ma
    8000051c:	02065207          	vle16.v	v4,(a2)
    80000520:	00003617          	auipc	a2,0x3
    80000524:	bf860613          	addi	a2,a2,-1032 # 80003118 <tdat+0x8>
    80000528:	0c92f357          	vsetvli	t1,t0,e16,m2,ta,ma
    8000052c:	02065607          	vle16.v	v12,(a2)
    80000530:	fff00293          	li	t0,-1
    80000534:	0c02f357          	vsetvli	t1,t0,e8,m1,ta,ma
    80000538:	00003697          	auipc	a3,0x3
    8000053c:	c6068693          	addi	a3,a3,-928 # 80003198 <mask>
    80000540:	02068007          	vle8.v	v0,(a3)
    80000544:	01000293          	li	t0,16
    80000548:	0c92f357          	vsetvli	t1,t0,e16,m2,ta,ma
    8000054c:	c0860257          	vwredsumu.vs	v4,v8,v12,v0.t
    80000550:	fff00293          	li	t0,-1
    80000554:	0ca2f357          	vsetvli	t1,t0,e16,m4,ta,ma
    80000558:	00003597          	auipc	a1,0x3
    8000055c:	aa858593          	addi	a1,a1,-1368 # 80003000 <begin_signature>
    80000560:	0205d227          	vse16.v	v4,(a1)

0000000080000564 <test_34>:
    80000564:	02200193          	li	gp,34
    80000568:	0005b283          	ld	t0,0(a1)
    8000056c:	00858593          	addi	a1,a1,8
    80000570:	001003b7          	lui	t2,0x100
    80000574:	09f3839b          	addiw	t2,t2,159
    80000578:	00c39393          	slli	t2,t2,0xc
    8000057c:	ff838393          	addi	t2,t2,-8 # ffff8 <_start-0x7ff00008>
    80000580:	00728463          	beq	t0,t2,80000588 <test_35>
    80000584:	7140106f          	j	80001c98 <fail>

0000000080000588 <test_35>:
    80000588:	02300193          	li	gp,35
    8000058c:	0005b283          	ld	t0,0(a1)
    80000590:	00858593          	addi	a1,a1,8
    80000594:	000103b7          	lui	t2,0x10
    80000598:	0073839b          	addiw	t2,t2,7
    8000059c:	01039393          	slli	t2,t2,0x10
    800005a0:	00728463          	beq	t0,t2,800005a8 <test_36>
    800005a4:	6f40106f          	j	80001c98 <fail>

00000000800005a8 <test_36>:
    800005a8:	02400193          	li	gp,36
    800005ac:	0005b283          	ld	t0,0(a1)
    800005b0:	00858593          	addi	a1,a1,8
    800005b4:	ffff03b7          	lui	t2,0xffff0
    800005b8:	fff3839b          	addiw	t2,t2,-1
    800005bc:	01c39393          	slli	t2,t2,0x1c
    800005c0:	fff38393          	addi	t2,t2,-1 # fffffffffffeffff <_end+0xffffffff7ffece3f>
    800005c4:	00728463          	beq	t0,t2,800005cc <test_37>
    800005c8:	6d00106f          	j	80001c98 <fail>

00000000800005cc <test_37>:
    800005cc:	02500193          	li	gp,37
    800005d0:	0005b283          	ld	t0,0(a1)
    800005d4:	00858593          	addi	a1,a1,8
    800005d8:	0010039b          	addiw	t2,zero,1
    800005dc:	02039393          	slli	t2,t2,0x20
    800005e0:	00138393          	addi	t2,t2,1
    800005e4:	01039393          	slli	t2,t2,0x10
    800005e8:	00728463          	beq	t0,t2,800005f0 <test_38>
    800005ec:	6ac0106f          	j	80001c98 <fail>

00000000800005f0 <test_38>:
    800005f0:	02600193          	li	gp,38
    800005f4:	0005b283          	ld	t0,0(a1)
    800005f8:	00858593          	addi	a1,a1,8
    800005fc:	000043b7          	lui	t2,0x4
    80000600:	0013839b          	addiw	t2,t2,1
    80000604:	01239393          	slli	t2,t2,0x12
    80000608:	ff838393          	addi	t2,t2,-8 # 3ff8 <_start-0x7fffc008>
    8000060c:	00728463          	beq	t0,t2,80000614 <test_39>
    80000610:	6880106f          	j	80001c98 <fail>

0000000080000614 <test_39>:
    80000614:	02700193          	li	gp,39
    80000618:	0005b283          	ld	t0,0(a1)
    8000061c:	00858593          	addi	a1,a1,8
    80000620:	000103b7          	lui	t2,0x10
    80000624:	0073839b          	addiw	t2,t2,7
    80000628:	01039393          	slli	t2,t2,0x10
    8000062c:	00728463          	beq	t0,t2,80000634 <test_40>
    80000630:	6680106f          	j	80001c98 <fail>

0000000080000634 <test_40>:
    80000634:	02800193          	li	gp,40
    80000638:	0005b283          	ld	t0,0(a1)
    8000063c:	00858593          	addi	a1,a1,8
    80000640:	ffff03b7          	lui	t2,0xffff0
    80000644:	fff3839b          	addiw	t2,t2,-1
    80000648:	01c39393          	slli	t2,t2,0x1c
    8000064c:	fff38393          	addi	t2,t2,-1 # fffffffffffeffff <_end+0xffffffff7ffece3f>
    80000650:	00728463          	beq	t0,t2,80000658 <test_41>
    80000654:	6440106f          	j	80001c98 <fail>

0000000080000658 <test_41>:
    80000658:	02900193          	li	gp,41
    8000065c:	0005b283          	ld	t0,0(a1)
    80000660:	00858593          	addi	a1,a1,8
    80000664:	0010039b          	addiw	t2,zero,1
    80000668:	02039393          	slli	t2,t2,0x20
    8000066c:	00138393          	addi	t2,t2,1
    80000670:	01039393          	slli	t2,t2,0x10
    80000674:	00728463          	beq	t0,t2,8000067c <test_42>
    80000678:	6200106f          	j	80001c98 <fail>

000000008000067c <test_42>:
    8000067c:	02a00193          	li	gp,42
    80000680:	0005b283          	ld	t0,0(a1)
    80000684:	00858593          	addi	a1,a1,8
    80000688:	000043b7          	lui	t2,0x4
    8000068c:	0013839b          	addiw	t2,t2,1
    80000690:	01239393          	slli	t2,t2,0x12
    80000694:	ff838393          	addi	t2,t2,-8 # 3ff8 <_start-0x7fffc008>
    80000698:	00728463          	beq	t0,t2,800006a0 <test_43>
    8000069c:	5fc0106f          	j	80001c98 <fail>

00000000800006a0 <test_43>:
    800006a0:	02b00193          	li	gp,43
    800006a4:	0005b283          	ld	t0,0(a1)
    800006a8:	00858593          	addi	a1,a1,8
    800006ac:	000103b7          	lui	t2,0x10
    800006b0:	0073839b          	addiw	t2,t2,7
    800006b4:	01039393          	slli	t2,t2,0x10
    800006b8:	00728463          	beq	t0,t2,800006c0 <test_44>
    800006bc:	5dc0106f          	j	80001c98 <fail>

00000000800006c0 <test_44>:
    800006c0:	02c00193          	li	gp,44
    800006c4:	0005b283          	ld	t0,0(a1)
    800006c8:	00858593          	addi	a1,a1,8
    800006cc:	ffff03b7          	lui	t2,0xffff0
    800006d0:	fff3839b          	addiw	t2,t2,-1
    800006d4:	01c39393          	slli	t2,t2,0x1c
    800006d8:	fff38393          	addi	t2,t2,-1 # fffffffffffeffff <_end+0xffffffff7ffece3f>
    800006dc:	00728463          	beq	t0,t2,800006e4 <test_45>
    800006e0:	5b80106f          	j	80001c98 <fail>

00000000800006e4 <test_45>:
    800006e4:	02d00193          	li	gp,45
    800006e8:	0005b283          	ld	t0,0(a1)
    800006ec:	00858593          	addi	a1,a1,8
    800006f0:	0010039b          	addiw	t2,zero,1
    800006f4:	02039393          	slli	t2,t2,0x20
    800006f8:	00138393          	addi	t2,t2,1
    800006fc:	01039393          	slli	t2,t2,0x10
    80000700:	00728463          	beq	t0,t2,80000708 <test_46>
    80000704:	5940106f          	j	80001c98 <fail>

0000000080000708 <test_46>:
    80000708:	02e00193          	li	gp,46
    8000070c:	0005b283          	ld	t0,0(a1)
    80000710:	00858593          	addi	a1,a1,8
    80000714:	000043b7          	lui	t2,0x4
    80000718:	0013839b          	addiw	t2,t2,1
    8000071c:	01239393          	slli	t2,t2,0x12
    80000720:	ff838393          	addi	t2,t2,-8 # 3ff8 <_start-0x7fffc008>
    80000724:	00728463          	beq	t0,t2,8000072c <test_47>
    80000728:	5700106f          	j	80001c98 <fail>

000000008000072c <test_47>:
    8000072c:	02f00193          	li	gp,47
    80000730:	0005b283          	ld	t0,0(a1)
    80000734:	00858593          	addi	a1,a1,8
    80000738:	000103b7          	lui	t2,0x10
    8000073c:	0073839b          	addiw	t2,t2,7
    80000740:	01039393          	slli	t2,t2,0x10
    80000744:	00728463          	beq	t0,t2,8000074c <test_48>
    80000748:	5500106f          	j	80001c98 <fail>

000000008000074c <test_48>:
    8000074c:	03000193          	li	gp,48
    80000750:	0005b283          	ld	t0,0(a1)
    80000754:	00858593          	addi	a1,a1,8
    80000758:	ffff03b7          	lui	t2,0xffff0
    8000075c:	fff3839b          	addiw	t2,t2,-1
    80000760:	01c39393          	slli	t2,t2,0x1c
    80000764:	fff38393          	addi	t2,t2,-1 # fffffffffffeffff <_end+0xffffffff7ffece3f>
    80000768:	00728463          	beq	t0,t2,80000770 <test_49>
    8000076c:	52c0106f          	j	80001c98 <fail>

0000000080000770 <test_49>:
    80000770:	03100193          	li	gp,49
    80000774:	0005b283          	ld	t0,0(a1)
    80000778:	00858593          	addi	a1,a1,8
    8000077c:	0010039b          	addiw	t2,zero,1
    80000780:	02039393          	slli	t2,t2,0x20
    80000784:	00138393          	addi	t2,t2,1
    80000788:	01039393          	slli	t2,t2,0x10
    8000078c:	00728463          	beq	t0,t2,80000794 <test_49+0x24>
    80000790:	5080106f          	j	80001c98 <fail>
    80000794:	fff00293          	li	t0,-1
    80000798:	0c92f357          	vsetvli	t1,t0,e16,m2,ta,ma
    8000079c:	00003617          	auipc	a2,0x3
    800007a0:	97460613          	addi	a2,a2,-1676 # 80003110 <tdat>
    800007a4:	02065407          	vle16.v	v8,(a2)
    800007a8:	0ca2f357          	vsetvli	t1,t0,e16,m4,ta,ma
    800007ac:	02065207          	vle16.v	v4,(a2)
    800007b0:	00003617          	auipc	a2,0x3
    800007b4:	96860613          	addi	a2,a2,-1688 # 80003118 <tdat+0x8>
    800007b8:	0c92f357          	vsetvli	t1,t0,e16,m2,ta,ma
    800007bc:	02065607          	vle16.v	v12,(a2)
    800007c0:	fff00293          	li	t0,-1
    800007c4:	0c02f357          	vsetvli	t1,t0,e8,m1,ta,ma
    800007c8:	00003697          	auipc	a3,0x3
    800007cc:	9d068693          	addi	a3,a3,-1584 # 80003198 <mask>
    800007d0:	02068007          	vle8.v	v0,(a3)
    800007d4:	01000293          	li	t0,16
    800007d8:	0c92f357          	vsetvli	t1,t0,e16,m2,ta,ma
    800007dc:	c0860257          	vwredsumu.vs	v4,v8,v12,v0.t
    800007e0:	fff00293          	li	t0,-1
    800007e4:	0ca2f357          	vsetvli	t1,t0,e16,m4,ta,ma
    800007e8:	00003597          	auipc	a1,0x3
    800007ec:	81858593          	addi	a1,a1,-2024 # 80003000 <begin_signature>
    800007f0:	0205d227          	vse16.v	v4,(a1)

00000000800007f4 <test_50>:
    800007f4:	03200193          	li	gp,50
    800007f8:	0005b283          	ld	t0,0(a1)
    800007fc:	00858593          	addi	a1,a1,8
    80000800:	001003b7          	lui	t2,0x100
    80000804:	09f3839b          	addiw	t2,t2,159
    80000808:	00c39393          	slli	t2,t2,0xc
    8000080c:	ff838393          	addi	t2,t2,-8 # ffff8 <_start-0x7ff00008>
    80000810:	00728463          	beq	t0,t2,80000818 <test_51>
    80000814:	4840106f          	j	80001c98 <fail>

0000000080000818 <test_51>:
    80000818:	03300193          	li	gp,51
    8000081c:	0005b283          	ld	t0,0(a1)
    80000820:	00858593          	addi	a1,a1,8
    80000824:	000103b7          	lui	t2,0x10
    80000828:	0073839b          	addiw	t2,t2,7
    8000082c:	01039393          	slli	t2,t2,0x10
    80000830:	00728463          	beq	t0,t2,80000838 <test_52>
    80000834:	4640106f          	j	80001c98 <fail>

0000000080000838 <test_52>:
    80000838:	03400193          	li	gp,52
    8000083c:	0005b283          	ld	t0,0(a1)
    80000840:	00858593          	addi	a1,a1,8
    80000844:	ffff03b7          	lui	t2,0xffff0
    80000848:	fff3839b          	addiw	t2,t2,-1
    8000084c:	01c39393          	slli	t2,t2,0x1c
    80000850:	fff38393          	addi	t2,t2,-1 # fffffffffffeffff <_end+0xffffffff7ffece3f>
    80000854:	00728463          	beq	t0,t2,8000085c <test_53>
    80000858:	4400106f          	j	80001c98 <fail>

000000008000085c <test_53>:
    8000085c:	03500193          	li	gp,53
    80000860:	0005b283          	ld	t0,0(a1)
    80000864:	00858593          	addi	a1,a1,8
    80000868:	0010039b          	addiw	t2,zero,1
    8000086c:	02039393          	slli	t2,t2,0x20
    80000870:	00138393          	addi	t2,t2,1
    80000874:	01039393          	slli	t2,t2,0x10
    80000878:	00728463          	beq	t0,t2,80000880 <test_54>
    8000087c:	41c0106f          	j	80001c98 <fail>

0000000080000880 <test_54>:
    80000880:	03600193          	li	gp,54
    80000884:	0005b283          	ld	t0,0(a1)
    80000888:	00858593          	addi	a1,a1,8
    8000088c:	000043b7          	lui	t2,0x4
    80000890:	0013839b          	addiw	t2,t2,1
    80000894:	01239393          	slli	t2,t2,0x12
    80000898:	ff838393          	addi	t2,t2,-8 # 3ff8 <_start-0x7fffc008>
    8000089c:	00728463          	beq	t0,t2,800008a4 <test_55>
    800008a0:	3f80106f          	j	80001c98 <fail>

00000000800008a4 <test_55>:
    800008a4:	03700193          	li	gp,55
    800008a8:	0005b283          	ld	t0,0(a1)
    800008ac:	00858593          	addi	a1,a1,8
    800008b0:	000103b7          	lui	t2,0x10
    800008b4:	0073839b          	addiw	t2,t2,7
    800008b8:	01039393          	slli	t2,t2,0x10
    800008bc:	00728463          	beq	t0,t2,800008c4 <test_56>
    800008c0:	3d80106f          	j	80001c98 <fail>

00000000800008c4 <test_56>:
    800008c4:	03800193          	li	gp,56
    800008c8:	0005b283          	ld	t0,0(a1)
    800008cc:	00858593          	addi	a1,a1,8
    800008d0:	ffff03b7          	lui	t2,0xffff0
    800008d4:	fff3839b          	addiw	t2,t2,-1
    800008d8:	01c39393          	slli	t2,t2,0x1c
    800008dc:	fff38393          	addi	t2,t2,-1 # fffffffffffeffff <_end+0xffffffff7ffece3f>
    800008e0:	00728463          	beq	t0,t2,800008e8 <test_57>
    800008e4:	3b40106f          	j	80001c98 <fail>

00000000800008e8 <test_57>:
    800008e8:	03900193          	li	gp,57
    800008ec:	0005b283          	ld	t0,0(a1)
    800008f0:	00858593          	addi	a1,a1,8
    800008f4:	0010039b          	addiw	t2,zero,1
    800008f8:	02039393          	slli	t2,t2,0x20
    800008fc:	00138393          	addi	t2,t2,1
    80000900:	01039393          	slli	t2,t2,0x10
    80000904:	00728463          	beq	t0,t2,8000090c <test_58>
    80000908:	3900106f          	j	80001c98 <fail>

000000008000090c <test_58>:
    8000090c:	03a00193          	li	gp,58
    80000910:	0005b283          	ld	t0,0(a1)
    80000914:	00858593          	addi	a1,a1,8
    80000918:	000043b7          	lui	t2,0x4
    8000091c:	0013839b          	addiw	t2,t2,1
    80000920:	01239393          	slli	t2,t2,0x12
    80000924:	ff838393          	addi	t2,t2,-8 # 3ff8 <_start-0x7fffc008>
    80000928:	00728463          	beq	t0,t2,80000930 <test_59>
    8000092c:	36c0106f          	j	80001c98 <fail>

0000000080000930 <test_59>:
    80000930:	03b00193          	li	gp,59
    80000934:	0005b283          	ld	t0,0(a1)
    80000938:	00858593          	addi	a1,a1,8
    8000093c:	000103b7          	lui	t2,0x10
    80000940:	0073839b          	addiw	t2,t2,7
    80000944:	01039393          	slli	t2,t2,0x10
    80000948:	00728463          	beq	t0,t2,80000950 <test_60>
    8000094c:	34c0106f          	j	80001c98 <fail>

0000000080000950 <test_60>:
    80000950:	03c00193          	li	gp,60
    80000954:	0005b283          	ld	t0,0(a1)
    80000958:	00858593          	addi	a1,a1,8
    8000095c:	ffff03b7          	lui	t2,0xffff0
    80000960:	fff3839b          	addiw	t2,t2,-1
    80000964:	01c39393          	slli	t2,t2,0x1c
    80000968:	fff38393          	addi	t2,t2,-1 # fffffffffffeffff <_end+0xffffffff7ffece3f>
    8000096c:	00728463          	beq	t0,t2,80000974 <test_61>
    80000970:	3280106f          	j	80001c98 <fail>

0000000080000974 <test_61>:
    80000974:	03d00193          	li	gp,61
    80000978:	0005b283          	ld	t0,0(a1)
    8000097c:	00858593          	addi	a1,a1,8
    80000980:	0010039b          	addiw	t2,zero,1
    80000984:	02039393          	slli	t2,t2,0x20
    80000988:	00138393          	addi	t2,t2,1
    8000098c:	01039393          	slli	t2,t2,0x10
    80000990:	00728463          	beq	t0,t2,80000998 <test_62>
    80000994:	3040106f          	j	80001c98 <fail>

0000000080000998 <test_62>:
    80000998:	03e00193          	li	gp,62
    8000099c:	0005b283          	ld	t0,0(a1)
    800009a0:	00858593          	addi	a1,a1,8
    800009a4:	000043b7          	lui	t2,0x4
    800009a8:	0013839b          	addiw	t2,t2,1
    800009ac:	01239393          	slli	t2,t2,0x12
    800009b0:	ff838393          	addi	t2,t2,-8 # 3ff8 <_start-0x7fffc008>
    800009b4:	00728463          	beq	t0,t2,800009bc <test_63>
    800009b8:	2e00106f          	j	80001c98 <fail>

00000000800009bc <test_63>:
    800009bc:	03f00193          	li	gp,63
    800009c0:	0005b283          	ld	t0,0(a1)
    800009c4:	00858593          	addi	a1,a1,8
    800009c8:	000103b7          	lui	t2,0x10
    800009cc:	0073839b          	addiw	t2,t2,7
    800009d0:	01039393          	slli	t2,t2,0x10
    800009d4:	00728463          	beq	t0,t2,800009dc <test_64>
    800009d8:	2c00106f          	j	80001c98 <fail>

00000000800009dc <test_64>:
    800009dc:	04000193          	li	gp,64
    800009e0:	0005b283          	ld	t0,0(a1)
    800009e4:	00858593          	addi	a1,a1,8
    800009e8:	ffff03b7          	lui	t2,0xffff0
    800009ec:	fff3839b          	addiw	t2,t2,-1
    800009f0:	01c39393          	slli	t2,t2,0x1c
    800009f4:	fff38393          	addi	t2,t2,-1 # fffffffffffeffff <_end+0xffffffff7ffece3f>
    800009f8:	00728463          	beq	t0,t2,80000a00 <test_65>
    800009fc:	29c0106f          	j	80001c98 <fail>

0000000080000a00 <test_65>:
    80000a00:	04100193          	li	gp,65
    80000a04:	0005b283          	ld	t0,0(a1)
    80000a08:	00858593          	addi	a1,a1,8
    80000a0c:	0010039b          	addiw	t2,zero,1
    80000a10:	02039393          	slli	t2,t2,0x20
    80000a14:	00138393          	addi	t2,t2,1
    80000a18:	01039393          	slli	t2,t2,0x10
    80000a1c:	00728463          	beq	t0,t2,80000a24 <test_65+0x24>
    80000a20:	2780106f          	j	80001c98 <fail>
    80000a24:	fff00293          	li	t0,-1
    80000a28:	0c92f357          	vsetvli	t1,t0,e16,m2,ta,ma
    80000a2c:	00002617          	auipc	a2,0x2
    80000a30:	6e460613          	addi	a2,a2,1764 # 80003110 <tdat>
    80000a34:	02065407          	vle16.v	v8,(a2)
    80000a38:	0ca2f357          	vsetvli	t1,t0,e16,m4,ta,ma
    80000a3c:	02065207          	vle16.v	v4,(a2)
    80000a40:	00002617          	auipc	a2,0x2
    80000a44:	6d860613          	addi	a2,a2,1752 # 80003118 <tdat+0x8>
    80000a48:	0c92f357          	vsetvli	t1,t0,e16,m2,ta,ma
    80000a4c:	02065607          	vle16.v	v12,(a2)
    80000a50:	01f00293          	li	t0,31
    80000a54:	0c92f357          	vsetvli	t1,t0,e16,m2,ta,ma
    80000a58:	c2860257          	vwredsumu.vs	v4,v8,v12
    80000a5c:	fff00293          	li	t0,-1
    80000a60:	0ca2f357          	vsetvli	t1,t0,e16,m4,ta,ma
    80000a64:	00002597          	auipc	a1,0x2
    80000a68:	59c58593          	addi	a1,a1,1436 # 80003000 <begin_signature>
    80000a6c:	0205d227          	vse16.v	v4,(a1)

0000000080000a70 <test_66>:
    80000a70:	04200193          	li	gp,66
    80000a74:	0005b283          	ld	t0,0(a1)
    80000a78:	00858593          	addi	a1,a1,8
    80000a7c:	000403b7          	lui	t2,0x40
    80000a80:	0433839b          	addiw	t2,t2,67
    80000a84:	00e39393          	slli	t2,t2,0xe
    80000a88:	00338393          	addi	t2,t2,3 # 40003 <_start-0x7ffbfffd>
    80000a8c:	00728463          	beq	t0,t2,80000a94 <test_67>
    80000a90:	2080106f          	j	80001c98 <fail>

0000000080000a94 <test_67>:
    80000a94:	04300193          	li	gp,67
    80000a98:	0005b283          	ld	t0,0(a1)
    80000a9c:	00858593          	addi	a1,a1,8
    80000aa0:	000103b7          	lui	t2,0x10
    80000aa4:	0073839b          	addiw	t2,t2,7
    80000aa8:	01039393          	slli	t2,t2,0x10
    80000aac:	00728463          	beq	t0,t2,80000ab4 <test_68>
    80000ab0:	1e80106f          	j	80001c98 <fail>

0000000080000ab4 <test_68>:
    80000ab4:	04400193          	li	gp,68
    80000ab8:	0005b283          	ld	t0,0(a1)
    80000abc:	00858593          	addi	a1,a1,8
    80000ac0:	ffff03b7          	lui	t2,0xffff0
    80000ac4:	fff3839b          	addiw	t2,t2,-1
    80000ac8:	01c39393          	slli	t2,t2,0x1c
    80000acc:	fff38393          	addi	t2,t2,-1 # fffffffffffeffff <_end+0xffffffff7ffece3f>
    80000ad0:	00728463          	beq	t0,t2,80000ad8 <test_69>
    80000ad4:	1c40106f          	j	80001c98 <fail>

0000000080000ad8 <test_69>:
    80000ad8:	04500193          	li	gp,69
    80000adc:	0005b283          	ld	t0,0(a1)
    80000ae0:	00858593          	addi	a1,a1,8
    80000ae4:	0010039b          	addiw	t2,zero,1
    80000ae8:	02039393          	slli	t2,t2,0x20
    80000aec:	00138393          	addi	t2,t2,1
    80000af0:	01039393          	slli	t2,t2,0x10
    80000af4:	00728463          	beq	t0,t2,80000afc <test_70>
    80000af8:	1a00106f          	j	80001c98 <fail>

0000000080000afc <test_70>:
    80000afc:	04600193          	li	gp,70
    80000b00:	0005b283          	ld	t0,0(a1)
    80000b04:	00858593          	addi	a1,a1,8
    80000b08:	000043b7          	lui	t2,0x4
    80000b0c:	0013839b          	addiw	t2,t2,1
    80000b10:	01239393          	slli	t2,t2,0x12
    80000b14:	ff838393          	addi	t2,t2,-8 # 3ff8 <_start-0x7fffc008>
    80000b18:	00728463          	beq	t0,t2,80000b20 <test_71>
    80000b1c:	17c0106f          	j	80001c98 <fail>

0000000080000b20 <test_71>:
    80000b20:	04700193          	li	gp,71
    80000b24:	0005b283          	ld	t0,0(a1)
    80000b28:	00858593          	addi	a1,a1,8
    80000b2c:	000103b7          	lui	t2,0x10
    80000b30:	0073839b          	addiw	t2,t2,7
    80000b34:	01039393          	slli	t2,t2,0x10
    80000b38:	00728463          	beq	t0,t2,80000b40 <test_72>
    80000b3c:	15c0106f          	j	80001c98 <fail>

0000000080000b40 <test_72>:
    80000b40:	04800193          	li	gp,72
    80000b44:	0005b283          	ld	t0,0(a1)
    80000b48:	00858593          	addi	a1,a1,8
    80000b4c:	ffff03b7          	lui	t2,0xffff0
    80000b50:	fff3839b          	addiw	t2,t2,-1
    80000b54:	01c39393          	slli	t2,t2,0x1c
    80000b58:	fff38393          	addi	t2,t2,-1 # fffffffffffeffff <_end+0xffffffff7ffece3f>
    80000b5c:	00728463          	beq	t0,t2,80000b64 <test_73>
    80000b60:	1380106f          	j	80001c98 <fail>

0000000080000b64 <test_73>:
    80000b64:	04900193          	li	gp,73
    80000b68:	0005b283          	ld	t0,0(a1)
    80000b6c:	00858593          	addi	a1,a1,8
    80000b70:	0010039b          	addiw	t2,zero,1
    80000b74:	02039393          	slli	t2,t2,0x20
    80000b78:	00138393          	addi	t2,t2,1
    80000b7c:	01039393          	slli	t2,t2,0x10
    80000b80:	00728463          	beq	t0,t2,80000b88 <test_74>
    80000b84:	1140106f          	j	80001c98 <fail>

0000000080000b88 <test_74>:
    80000b88:	04a00193          	li	gp,74
    80000b8c:	0005b283          	ld	t0,0(a1)
    80000b90:	00858593          	addi	a1,a1,8
    80000b94:	000043b7          	lui	t2,0x4
    80000b98:	0013839b          	addiw	t2,t2,1
    80000b9c:	01239393          	slli	t2,t2,0x12
    80000ba0:	ff838393          	addi	t2,t2,-8 # 3ff8 <_start-0x7fffc008>
    80000ba4:	00728463          	beq	t0,t2,80000bac <test_75>
    80000ba8:	0f00106f          	j	80001c98 <fail>

0000000080000bac <test_75>:
    80000bac:	04b00193          	li	gp,75
    80000bb0:	0005b283          	ld	t0,0(a1)
    80000bb4:	00858593          	addi	a1,a1,8
    80000bb8:	000103b7          	lui	t2,0x10
    80000bbc:	0073839b          	addiw	t2,t2,7
    80000bc0:	01039393          	slli	t2,t2,0x10
    80000bc4:	00728463          	beq	t0,t2,80000bcc <test_76>
    80000bc8:	0d00106f          	j	80001c98 <fail>

0000000080000bcc <test_76>:
    80000bcc:	04c00193          	li	gp,76
    80000bd0:	0005b283          	ld	t0,0(a1)
    80000bd4:	00858593          	addi	a1,a1,8
    80000bd8:	ffff03b7          	lui	t2,0xffff0
    80000bdc:	fff3839b          	addiw	t2,t2,-1
    80000be0:	01c39393          	slli	t2,t2,0x1c
    80000be4:	fff38393          	addi	t2,t2,-1 # fffffffffffeffff <_end+0xffffffff7ffece3f>
    80000be8:	00728463          	beq	t0,t2,80000bf0 <test_77>
    80000bec:	0ac0106f          	j	80001c98 <fail>

0000000080000bf0 <test_77>:
    80000bf0:	04d00193          	li	gp,77
    80000bf4:	0005b283          	ld	t0,0(a1)
    80000bf8:	00858593          	addi	a1,a1,8
    80000bfc:	0010039b          	addiw	t2,zero,1
    80000c00:	02039393          	slli	t2,t2,0x20
    80000c04:	00138393          	addi	t2,t2,1
    80000c08:	01039393          	slli	t2,t2,0x10
    80000c0c:	00728463          	beq	t0,t2,80000c14 <test_78>
    80000c10:	0880106f          	j	80001c98 <fail>

0000000080000c14 <test_78>:
    80000c14:	04e00193          	li	gp,78
    80000c18:	0005b283          	ld	t0,0(a1)
    80000c1c:	00858593          	addi	a1,a1,8
    80000c20:	000043b7          	lui	t2,0x4
    80000c24:	0013839b          	addiw	t2,t2,1
    80000c28:	01239393          	slli	t2,t2,0x12
    80000c2c:	ff838393          	addi	t2,t2,-8 # 3ff8 <_start-0x7fffc008>
    80000c30:	00728463          	beq	t0,t2,80000c38 <test_79>
    80000c34:	0640106f          	j	80001c98 <fail>

0000000080000c38 <test_79>:
    80000c38:	04f00193          	li	gp,79
    80000c3c:	0005b283          	ld	t0,0(a1)
    80000c40:	00858593          	addi	a1,a1,8
    80000c44:	000103b7          	lui	t2,0x10
    80000c48:	0073839b          	addiw	t2,t2,7
    80000c4c:	01039393          	slli	t2,t2,0x10
    80000c50:	00728463          	beq	t0,t2,80000c58 <test_80>
    80000c54:	0440106f          	j	80001c98 <fail>

0000000080000c58 <test_80>:
    80000c58:	05000193          	li	gp,80
    80000c5c:	0005b283          	ld	t0,0(a1)
    80000c60:	00858593          	addi	a1,a1,8
    80000c64:	ffff03b7          	lui	t2,0xffff0
    80000c68:	fff3839b          	addiw	t2,t2,-1
    80000c6c:	01c39393          	slli	t2,t2,0x1c
    80000c70:	fff38393          	addi	t2,t2,-1 # fffffffffffeffff <_end+0xffffffff7ffece3f>
    80000c74:	00728463          	beq	t0,t2,80000c7c <test_81>
    80000c78:	0200106f          	j	80001c98 <fail>

0000000080000c7c <test_81>:
    80000c7c:	05100193          	li	gp,81
    80000c80:	0005b283          	ld	t0,0(a1)
    80000c84:	00858593          	addi	a1,a1,8
    80000c88:	0010039b          	addiw	t2,zero,1
    80000c8c:	02039393          	slli	t2,t2,0x20
    80000c90:	00138393          	addi	t2,t2,1
    80000c94:	01039393          	slli	t2,t2,0x10
    80000c98:	00728463          	beq	t0,t2,80000ca0 <test_81+0x24>
    80000c9c:	7fd0006f          	j	80001c98 <fail>
    80000ca0:	fff00293          	li	t0,-1
    80000ca4:	0c92f357          	vsetvli	t1,t0,e16,m2,ta,ma
    80000ca8:	00002617          	auipc	a2,0x2
    80000cac:	46860613          	addi	a2,a2,1128 # 80003110 <tdat>
    80000cb0:	02065407          	vle16.v	v8,(a2)
    80000cb4:	0ca2f357          	vsetvli	t1,t0,e16,m4,ta,ma
    80000cb8:	02065207          	vle16.v	v4,(a2)
    80000cbc:	00002617          	auipc	a2,0x2
    80000cc0:	45c60613          	addi	a2,a2,1116 # 80003118 <tdat+0x8>
    80000cc4:	0c92f357          	vsetvli	t1,t0,e16,m2,ta,ma
    80000cc8:	02065607          	vle16.v	v12,(a2)
    80000ccc:	01f00293          	li	t0,31
    80000cd0:	0892f357          	vsetvli	t1,t0,e16,m2,tu,ma
    80000cd4:	c2860257          	vwredsumu.vs	v4,v8,v12
    80000cd8:	fff00293          	li	t0,-1
    80000cdc:	0ca2f357          	vsetvli	t1,t0,e16,m4,ta,ma
    80000ce0:	00002597          	auipc	a1,0x2
    80000ce4:	32058593          	addi	a1,a1,800 # 80003000 <begin_signature>
    80000ce8:	0205d227          	vse16.v	v4,(a1)

0000000080000cec <test_82>:
    80000cec:	05200193          	li	gp,82
    80000cf0:	0005b283          	ld	t0,0(a1)
    80000cf4:	00858593          	addi	a1,a1,8
    80000cf8:	000403b7          	lui	t2,0x40
    80000cfc:	0433839b          	addiw	t2,t2,67
    80000d00:	00e39393          	slli	t2,t2,0xe
    80000d04:	00338393          	addi	t2,t2,3 # 40003 <_start-0x7ffbfffd>
    80000d08:	787298e3          	bne	t0,t2,80001c98 <fail>

0000000080000d0c <test_83>:
    80000d0c:	05300193          	li	gp,83
    80000d10:	0005b283          	ld	t0,0(a1)
    80000d14:	00858593          	addi	a1,a1,8
    80000d18:	000103b7          	lui	t2,0x10
    80000d1c:	0073839b          	addiw	t2,t2,7
    80000d20:	01039393          	slli	t2,t2,0x10
    80000d24:	76729ae3          	bne	t0,t2,80001c98 <fail>

0000000080000d28 <test_84>:
    80000d28:	05400193          	li	gp,84
    80000d2c:	0005b283          	ld	t0,0(a1)
    80000d30:	00858593          	addi	a1,a1,8
    80000d34:	ffff03b7          	lui	t2,0xffff0
    80000d38:	fff3839b          	addiw	t2,t2,-1
    80000d3c:	01c39393          	slli	t2,t2,0x1c
    80000d40:	fff38393          	addi	t2,t2,-1 # fffffffffffeffff <_end+0xffffffff7ffece3f>
    80000d44:	74729ae3          	bne	t0,t2,80001c98 <fail>

0000000080000d48 <test_85>:
    80000d48:	05500193          	li	gp,85
    80000d4c:	0005b283          	ld	t0,0(a1)
    80000d50:	00858593          	addi	a1,a1,8
    80000d54:	0010039b          	addiw	t2,zero,1
    80000d58:	02039393          	slli	t2,t2,0x20
    80000d5c:	00138393          	addi	t2,t2,1
    80000d60:	01039393          	slli	t2,t2,0x10
    80000d64:	72729ae3          	bne	t0,t2,80001c98 <fail>

0000000080000d68 <test_86>:
    80000d68:	05600193          	li	gp,86
    80000d6c:	0005b283          	ld	t0,0(a1)
    80000d70:	00858593          	addi	a1,a1,8
    80000d74:	000043b7          	lui	t2,0x4
    80000d78:	0013839b          	addiw	t2,t2,1
    80000d7c:	01239393          	slli	t2,t2,0x12
    80000d80:	ff838393          	addi	t2,t2,-8 # 3ff8 <_start-0x7fffc008>
    80000d84:	70729ae3          	bne	t0,t2,80001c98 <fail>

0000000080000d88 <test_87>:
    80000d88:	05700193          	li	gp,87
    80000d8c:	0005b283          	ld	t0,0(a1)
    80000d90:	00858593          	addi	a1,a1,8
    80000d94:	000103b7          	lui	t2,0x10
    80000d98:	0073839b          	addiw	t2,t2,7
    80000d9c:	01039393          	slli	t2,t2,0x10
    80000da0:	6e729ce3          	bne	t0,t2,80001c98 <fail>

0000000080000da4 <test_88>:
    80000da4:	05800193          	li	gp,88
    80000da8:	0005b283          	ld	t0,0(a1)
    80000dac:	00858593          	addi	a1,a1,8
    80000db0:	ffff03b7          	lui	t2,0xffff0
    80000db4:	fff3839b          	addiw	t2,t2,-1
    80000db8:	01c39393          	slli	t2,t2,0x1c
    80000dbc:	fff38393          	addi	t2,t2,-1 # fffffffffffeffff <_end+0xffffffff7ffece3f>
    80000dc0:	6c729ce3          	bne	t0,t2,80001c98 <fail>

0000000080000dc4 <test_89>:
    80000dc4:	05900193          	li	gp,89
    80000dc8:	0005b283          	ld	t0,0(a1)
    80000dcc:	00858593          	addi	a1,a1,8
    80000dd0:	0010039b          	addiw	t2,zero,1
    80000dd4:	02039393          	slli	t2,t2,0x20
    80000dd8:	00138393          	addi	t2,t2,1
    80000ddc:	01039393          	slli	t2,t2,0x10
    80000de0:	6a729ce3          	bne	t0,t2,80001c98 <fail>

0000000080000de4 <test_90>:
    80000de4:	05a00193          	li	gp,90
    80000de8:	0005b283          	ld	t0,0(a1)
    80000dec:	00858593          	addi	a1,a1,8
    80000df0:	000043b7          	lui	t2,0x4
    80000df4:	0013839b          	addiw	t2,t2,1
    80000df8:	01239393          	slli	t2,t2,0x12
    80000dfc:	ff838393          	addi	t2,t2,-8 # 3ff8 <_start-0x7fffc008>
    80000e00:	68729ce3          	bne	t0,t2,80001c98 <fail>

0000000080000e04 <test_91>:
    80000e04:	05b00193          	li	gp,91
    80000e08:	0005b283          	ld	t0,0(a1)
    80000e0c:	00858593          	addi	a1,a1,8
    80000e10:	000103b7          	lui	t2,0x10
    80000e14:	0073839b          	addiw	t2,t2,7
    80000e18:	01039393          	slli	t2,t2,0x10
    80000e1c:	66729ee3          	bne	t0,t2,80001c98 <fail>

0000000080000e20 <test_92>:
    80000e20:	05c00193          	li	gp,92
    80000e24:	0005b283          	ld	t0,0(a1)
    80000e28:	00858593          	addi	a1,a1,8
    80000e2c:	ffff03b7          	lui	t2,0xffff0
    80000e30:	fff3839b          	addiw	t2,t2,-1
    80000e34:	01c39393          	slli	t2,t2,0x1c
    80000e38:	fff38393          	addi	t2,t2,-1 # fffffffffffeffff <_end+0xffffffff7ffece3f>
    80000e3c:	64729ee3          	bne	t0,t2,80001c98 <fail>

0000000080000e40 <test_93>:
    80000e40:	05d00193          	li	gp,93
    80000e44:	0005b283          	ld	t0,0(a1)
    80000e48:	00858593          	addi	a1,a1,8
    80000e4c:	0010039b          	addiw	t2,zero,1
    80000e50:	02039393          	slli	t2,t2,0x20
    80000e54:	00138393          	addi	t2,t2,1
    80000e58:	01039393          	slli	t2,t2,0x10
    80000e5c:	62729ee3          	bne	t0,t2,80001c98 <fail>

0000000080000e60 <test_94>:
    80000e60:	05e00193          	li	gp,94
    80000e64:	0005b283          	ld	t0,0(a1)
    80000e68:	00858593          	addi	a1,a1,8
    80000e6c:	000043b7          	lui	t2,0x4
    80000e70:	0013839b          	addiw	t2,t2,1
    80000e74:	01239393          	slli	t2,t2,0x12
    80000e78:	ff838393          	addi	t2,t2,-8 # 3ff8 <_start-0x7fffc008>
    80000e7c:	60729ee3          	bne	t0,t2,80001c98 <fail>

0000000080000e80 <test_95>:
    80000e80:	05f00193          	li	gp,95
    80000e84:	0005b283          	ld	t0,0(a1)
    80000e88:	00858593          	addi	a1,a1,8
    80000e8c:	000103b7          	lui	t2,0x10
    80000e90:	0073839b          	addiw	t2,t2,7
    80000e94:	01039393          	slli	t2,t2,0x10
    80000e98:	607290e3          	bne	t0,t2,80001c98 <fail>

0000000080000e9c <test_96>:
    80000e9c:	06000193          	li	gp,96
    80000ea0:	0005b283          	ld	t0,0(a1)
    80000ea4:	00858593          	addi	a1,a1,8
    80000ea8:	ffff03b7          	lui	t2,0xffff0
    80000eac:	fff3839b          	addiw	t2,t2,-1
    80000eb0:	01c39393          	slli	t2,t2,0x1c
    80000eb4:	fff38393          	addi	t2,t2,-1 # fffffffffffeffff <_end+0xffffffff7ffece3f>
    80000eb8:	5e7290e3          	bne	t0,t2,80001c98 <fail>

0000000080000ebc <test_97>:
    80000ebc:	06100193          	li	gp,97
    80000ec0:	0005b283          	ld	t0,0(a1)
    80000ec4:	00858593          	addi	a1,a1,8
    80000ec8:	0010039b          	addiw	t2,zero,1
    80000ecc:	02039393          	slli	t2,t2,0x20
    80000ed0:	00138393          	addi	t2,t2,1
    80000ed4:	01039393          	slli	t2,t2,0x10
    80000ed8:	5c7290e3          	bne	t0,t2,80001c98 <fail>
    80000edc:	fff00293          	li	t0,-1
    80000ee0:	0c92f357          	vsetvli	t1,t0,e16,m2,ta,ma
    80000ee4:	00002617          	auipc	a2,0x2
    80000ee8:	22c60613          	addi	a2,a2,556 # 80003110 <tdat>
    80000eec:	02065407          	vle16.v	v8,(a2)
    80000ef0:	0ca2f357          	vsetvli	t1,t0,e16,m4,ta,ma
    80000ef4:	02065207          	vle16.v	v4,(a2)
    80000ef8:	00002617          	auipc	a2,0x2
    80000efc:	22060613          	addi	a2,a2,544 # 80003118 <tdat+0x8>
    80000f00:	0c92f357          	vsetvli	t1,t0,e16,m2,ta,ma
    80000f04:	02065607          	vle16.v	v12,(a2)
    80000f08:	fff00293          	li	t0,-1
    80000f0c:	0c02f357          	vsetvli	t1,t0,e8,m1,ta,ma
    80000f10:	00002697          	auipc	a3,0x2
    80000f14:	28868693          	addi	a3,a3,648 # 80003198 <mask>
    80000f18:	02068007          	vle8.v	v0,(a3)
    80000f1c:	01f00293          	li	t0,31
    80000f20:	0c92f357          	vsetvli	t1,t0,e16,m2,ta,ma
    80000f24:	c0860257          	vwredsumu.vs	v4,v8,v12,v0.t
    80000f28:	fff00293          	li	t0,-1
    80000f2c:	0ca2f357          	vsetvli	t1,t0,e16,m4,ta,ma
    80000f30:	00002597          	auipc	a1,0x2
    80000f34:	0d058593          	addi	a1,a1,208 # 80003000 <begin_signature>
    80000f38:	0205d227          	vse16.v	v4,(a1)

0000000080000f3c <test_98>:
    80000f3c:	06200193          	li	gp,98
    80000f40:	0005b283          	ld	t0,0(a1)
    80000f44:	00858593          	addi	a1,a1,8
    80000f48:	000803b7          	lui	t2,0x80
    80000f4c:	0673839b          	addiw	t2,t2,103
    80000f50:	00d39393          	slli	t2,t2,0xd
    80000f54:	ff038393          	addi	t2,t2,-16 # 7fff0 <_start-0x7ff80010>
    80000f58:	547290e3          	bne	t0,t2,80001c98 <fail>

0000000080000f5c <test_99>:
    80000f5c:	06300193          	li	gp,99
    80000f60:	0005b283          	ld	t0,0(a1)
    80000f64:	00858593          	addi	a1,a1,8
    80000f68:	000103b7          	lui	t2,0x10
    80000f6c:	0073839b          	addiw	t2,t2,7
    80000f70:	01039393          	slli	t2,t2,0x10
    80000f74:	527292e3          	bne	t0,t2,80001c98 <fail>

0000000080000f78 <test_100>:
    80000f78:	06400193          	li	gp,100
    80000f7c:	0005b283          	ld	t0,0(a1)
    80000f80:	00858593          	addi	a1,a1,8
    80000f84:	ffff03b7          	lui	t2,0xffff0
    80000f88:	fff3839b          	addiw	t2,t2,-1
    80000f8c:	01c39393          	slli	t2,t2,0x1c
    80000f90:	fff38393          	addi	t2,t2,-1 # fffffffffffeffff <_end+0xffffffff7ffece3f>
    80000f94:	507292e3          	bne	t0,t2,80001c98 <fail>

0000000080000f98 <test_101>:
    80000f98:	06500193          	li	gp,101
    80000f9c:	0005b283          	ld	t0,0(a1)
    80000fa0:	00858593          	addi	a1,a1,8
    80000fa4:	0010039b          	addiw	t2,zero,1
    80000fa8:	02039393          	slli	t2,t2,0x20
    80000fac:	00138393          	addi	t2,t2,1
    80000fb0:	01039393          	slli	t2,t2,0x10
    80000fb4:	4e7292e3          	bne	t0,t2,80001c98 <fail>

0000000080000fb8 <test_102>:
    80000fb8:	06600193          	li	gp,102
    80000fbc:	0005b283          	ld	t0,0(a1)
    80000fc0:	00858593          	addi	a1,a1,8
    80000fc4:	000043b7          	lui	t2,0x4
    80000fc8:	0013839b          	addiw	t2,t2,1
    80000fcc:	01239393          	slli	t2,t2,0x12
    80000fd0:	ff838393          	addi	t2,t2,-8 # 3ff8 <_start-0x7fffc008>
    80000fd4:	4c7292e3          	bne	t0,t2,80001c98 <fail>

0000000080000fd8 <test_103>:
    80000fd8:	06700193          	li	gp,103
    80000fdc:	0005b283          	ld	t0,0(a1)
    80000fe0:	00858593          	addi	a1,a1,8
    80000fe4:	000103b7          	lui	t2,0x10
    80000fe8:	0073839b          	addiw	t2,t2,7
    80000fec:	01039393          	slli	t2,t2,0x10
    80000ff0:	4a7294e3          	bne	t0,t2,80001c98 <fail>

0000000080000ff4 <test_104>:
    80000ff4:	06800193          	li	gp,104
    80000ff8:	0005b283          	ld	t0,0(a1)
    80000ffc:	00858593          	addi	a1,a1,8
    80001000:	ffff03b7          	lui	t2,0xffff0
    80001004:	fff3839b          	addiw	t2,t2,-1
    80001008:	01c39393          	slli	t2,t2,0x1c
    8000100c:	fff38393          	addi	t2,t2,-1 # fffffffffffeffff <_end+0xffffffff7ffece3f>
    80001010:	487294e3          	bne	t0,t2,80001c98 <fail>

0000000080001014 <test_105>:
    80001014:	06900193          	li	gp,105
    80001018:	0005b283          	ld	t0,0(a1)
    8000101c:	00858593          	addi	a1,a1,8
    80001020:	0010039b          	addiw	t2,zero,1
    80001024:	02039393          	slli	t2,t2,0x20
    80001028:	00138393          	addi	t2,t2,1
    8000102c:	01039393          	slli	t2,t2,0x10
    80001030:	467294e3          	bne	t0,t2,80001c98 <fail>

0000000080001034 <test_106>:
    80001034:	06a00193          	li	gp,106
    80001038:	0005b283          	ld	t0,0(a1)
    8000103c:	00858593          	addi	a1,a1,8
    80001040:	000043b7          	lui	t2,0x4
    80001044:	0013839b          	addiw	t2,t2,1
    80001048:	01239393          	slli	t2,t2,0x12
    8000104c:	ff838393          	addi	t2,t2,-8 # 3ff8 <_start-0x7fffc008>
    80001050:	447294e3          	bne	t0,t2,80001c98 <fail>

0000000080001054 <test_107>:
    80001054:	06b00193          	li	gp,107
    80001058:	0005b283          	ld	t0,0(a1)
    8000105c:	00858593          	addi	a1,a1,8
    80001060:	000103b7          	lui	t2,0x10
    80001064:	0073839b          	addiw	t2,t2,7
    80001068:	01039393          	slli	t2,t2,0x10
    8000106c:	427296e3          	bne	t0,t2,80001c98 <fail>

0000000080001070 <test_108>:
    80001070:	06c00193          	li	gp,108
    80001074:	0005b283          	ld	t0,0(a1)
    80001078:	00858593          	addi	a1,a1,8
    8000107c:	ffff03b7          	lui	t2,0xffff0
    80001080:	fff3839b          	addiw	t2,t2,-1
    80001084:	01c39393          	slli	t2,t2,0x1c
    80001088:	fff38393          	addi	t2,t2,-1 # fffffffffffeffff <_end+0xffffffff7ffece3f>
    8000108c:	407296e3          	bne	t0,t2,80001c98 <fail>

0000000080001090 <test_109>:
    80001090:	06d00193          	li	gp,109
    80001094:	0005b283          	ld	t0,0(a1)
    80001098:	00858593          	addi	a1,a1,8
    8000109c:	0010039b          	addiw	t2,zero,1
    800010a0:	02039393          	slli	t2,t2,0x20
    800010a4:	00138393          	addi	t2,t2,1
    800010a8:	01039393          	slli	t2,t2,0x10
    800010ac:	3e7296e3          	bne	t0,t2,80001c98 <fail>

00000000800010b0 <test_110>:
    800010b0:	06e00193          	li	gp,110
    800010b4:	0005b283          	ld	t0,0(a1)
    800010b8:	00858593          	addi	a1,a1,8
    800010bc:	000043b7          	lui	t2,0x4
    800010c0:	0013839b          	addiw	t2,t2,1
    800010c4:	01239393          	slli	t2,t2,0x12
    800010c8:	ff838393          	addi	t2,t2,-8 # 3ff8 <_start-0x7fffc008>
    800010cc:	3c7296e3          	bne	t0,t2,80001c98 <fail>

00000000800010d0 <test_111>:
    800010d0:	06f00193          	li	gp,111
    800010d4:	0005b283          	ld	t0,0(a1)
    800010d8:	00858593          	addi	a1,a1,8
    800010dc:	000103b7          	lui	t2,0x10
    800010e0:	0073839b          	addiw	t2,t2,7
    800010e4:	01039393          	slli	t2,t2,0x10
    800010e8:	3a7298e3          	bne	t0,t2,80001c98 <fail>

00000000800010ec <test_112>:
    800010ec:	07000193          	li	gp,112
    800010f0:	0005b283          	ld	t0,0(a1)
    800010f4:	00858593          	addi	a1,a1,8
    800010f8:	ffff03b7          	lui	t2,0xffff0
    800010fc:	fff3839b          	addiw	t2,t2,-1
    80001100:	01c39393          	slli	t2,t2,0x1c
    80001104:	fff38393          	addi	t2,t2,-1 # fffffffffffeffff <_end+0xffffffff7ffece3f>
    80001108:	387298e3          	bne	t0,t2,80001c98 <fail>

000000008000110c <test_113>:
    8000110c:	07100193          	li	gp,113
    80001110:	0005b283          	ld	t0,0(a1)
    80001114:	00858593          	addi	a1,a1,8
    80001118:	0010039b          	addiw	t2,zero,1
    8000111c:	02039393          	slli	t2,t2,0x20
    80001120:	00138393          	addi	t2,t2,1
    80001124:	01039393          	slli	t2,t2,0x10
    80001128:	367298e3          	bne	t0,t2,80001c98 <fail>
    8000112c:	fff00293          	li	t0,-1
    80001130:	0c92f357          	vsetvli	t1,t0,e16,m2,ta,ma
    80001134:	00002617          	auipc	a2,0x2
    80001138:	fdc60613          	addi	a2,a2,-36 # 80003110 <tdat>
    8000113c:	02065407          	vle16.v	v8,(a2)
    80001140:	0ca2f357          	vsetvli	t1,t0,e16,m4,ta,ma
    80001144:	02065207          	vle16.v	v4,(a2)
    80001148:	00002617          	auipc	a2,0x2
    8000114c:	fd060613          	addi	a2,a2,-48 # 80003118 <tdat+0x8>
    80001150:	0c92f357          	vsetvli	t1,t0,e16,m2,ta,ma
    80001154:	02065607          	vle16.v	v12,(a2)
    80001158:	fff00293          	li	t0,-1
    8000115c:	0c02f357          	vsetvli	t1,t0,e8,m1,ta,ma
    80001160:	00002697          	auipc	a3,0x2
    80001164:	03868693          	addi	a3,a3,56 # 80003198 <mask>
    80001168:	02068007          	vle8.v	v0,(a3)
    8000116c:	01f00293          	li	t0,31
    80001170:	0c92f357          	vsetvli	t1,t0,e16,m2,ta,ma
    80001174:	c0860257          	vwredsumu.vs	v4,v8,v12,v0.t
    80001178:	fff00293          	li	t0,-1
    8000117c:	0ca2f357          	vsetvli	t1,t0,e16,m4,ta,ma
    80001180:	00002597          	auipc	a1,0x2
    80001184:	e8058593          	addi	a1,a1,-384 # 80003000 <begin_signature>
    80001188:	0205d227          	vse16.v	v4,(a1)

000000008000118c <test_114>:
    8000118c:	07200193          	li	gp,114
    80001190:	0005b283          	ld	t0,0(a1)
    80001194:	00858593          	addi	a1,a1,8
    80001198:	000803b7          	lui	t2,0x80
    8000119c:	0673839b          	addiw	t2,t2,103
    800011a0:	00d39393          	slli	t2,t2,0xd
    800011a4:	ff038393          	addi	t2,t2,-16 # 7fff0 <_start-0x7ff80010>
    800011a8:	2e7298e3          	bne	t0,t2,80001c98 <fail>

00000000800011ac <test_115>:
    800011ac:	07300193          	li	gp,115
    800011b0:	0005b283          	ld	t0,0(a1)
    800011b4:	00858593          	addi	a1,a1,8
    800011b8:	000103b7          	lui	t2,0x10
    800011bc:	0073839b          	addiw	t2,t2,7
    800011c0:	01039393          	slli	t2,t2,0x10
    800011c4:	2c729ae3          	bne	t0,t2,80001c98 <fail>

00000000800011c8 <test_116>:
    800011c8:	07400193          	li	gp,116
    800011cc:	0005b283          	ld	t0,0(a1)
    800011d0:	00858593          	addi	a1,a1,8
    800011d4:	ffff03b7          	lui	t2,0xffff0
    800011d8:	fff3839b          	addiw	t2,t2,-1
    800011dc:	01c39393          	slli	t2,t2,0x1c
    800011e0:	fff38393          	addi	t2,t2,-1 # fffffffffffeffff <_end+0xffffffff7ffece3f>
    800011e4:	2a729ae3          	bne	t0,t2,80001c98 <fail>

00000000800011e8 <test_117>:
    800011e8:	07500193          	li	gp,117
    800011ec:	0005b283          	ld	t0,0(a1)
    800011f0:	00858593          	addi	a1,a1,8
    800011f4:	0010039b          	addiw	t2,zero,1
    800011f8:	02039393          	slli	t2,t2,0x20
    800011fc:	00138393          	addi	t2,t2,1
    80001200:	01039393          	slli	t2,t2,0x10
    80001204:	28729ae3          	bne	t0,t2,80001c98 <fail>

0000000080001208 <test_118>:
    80001208:	07600193          	li	gp,118
    8000120c:	0005b283          	ld	t0,0(a1)
    80001210:	00858593          	addi	a1,a1,8
    80001214:	000043b7          	lui	t2,0x4
    80001218:	0013839b          	addiw	t2,t2,1
    8000121c:	01239393          	slli	t2,t2,0x12
    80001220:	ff838393          	addi	t2,t2,-8 # 3ff8 <_start-0x7fffc008>
    80001224:	26729ae3          	bne	t0,t2,80001c98 <fail>

0000000080001228 <test_119>:
    80001228:	07700193          	li	gp,119
    8000122c:	0005b283          	ld	t0,0(a1)
    80001230:	00858593          	addi	a1,a1,8
    80001234:	000103b7          	lui	t2,0x10
    80001238:	0073839b          	addiw	t2,t2,7
    8000123c:	01039393          	slli	t2,t2,0x10
    80001240:	24729ce3          	bne	t0,t2,80001c98 <fail>

0000000080001244 <test_120>:
    80001244:	07800193          	li	gp,120
    80001248:	0005b283          	ld	t0,0(a1)
    8000124c:	00858593          	addi	a1,a1,8
    80001250:	ffff03b7          	lui	t2,0xffff0
    80001254:	fff3839b          	addiw	t2,t2,-1
    80001258:	01c39393          	slli	t2,t2,0x1c
    8000125c:	fff38393          	addi	t2,t2,-1 # fffffffffffeffff <_end+0xffffffff7ffece3f>
    80001260:	22729ce3          	bne	t0,t2,80001c98 <fail>

0000000080001264 <test_121>:
    80001264:	07900193          	li	gp,121
    80001268:	0005b283          	ld	t0,0(a1)
    8000126c:	00858593          	addi	a1,a1,8
    80001270:	0010039b          	addiw	t2,zero,1
    80001274:	02039393          	slli	t2,t2,0x20
    80001278:	00138393          	addi	t2,t2,1
    8000127c:	01039393          	slli	t2,t2,0x10
    80001280:	20729ce3          	bne	t0,t2,80001c98 <fail>

0000000080001284 <test_122>:
    80001284:	07a00193          	li	gp,122
    80001288:	0005b283          	ld	t0,0(a1)
    8000128c:	00858593          	addi	a1,a1,8
    80001290:	000043b7          	lui	t2,0x4
    80001294:	0013839b          	addiw	t2,t2,1
    80001298:	01239393          	slli	t2,t2,0x12
    8000129c:	ff838393          	addi	t2,t2,-8 # 3ff8 <_start-0x7fffc008>
    800012a0:	1e729ce3          	bne	t0,t2,80001c98 <fail>

00000000800012a4 <test_123>:
    800012a4:	07b00193          	li	gp,123
    800012a8:	0005b283          	ld	t0,0(a1)
    800012ac:	00858593          	addi	a1,a1,8
    800012b0:	000103b7          	lui	t2,0x10
    800012b4:	0073839b          	addiw	t2,t2,7
    800012b8:	01039393          	slli	t2,t2,0x10
    800012bc:	1c729ee3          	bne	t0,t2,80001c98 <fail>

00000000800012c0 <test_124>:
    800012c0:	07c00193          	li	gp,124
    800012c4:	0005b283          	ld	t0,0(a1)
    800012c8:	00858593          	addi	a1,a1,8
    800012cc:	ffff03b7          	lui	t2,0xffff0
    800012d0:	fff3839b          	addiw	t2,t2,-1
    800012d4:	01c39393          	slli	t2,t2,0x1c
    800012d8:	fff38393          	addi	t2,t2,-1 # fffffffffffeffff <_end+0xffffffff7ffece3f>
    800012dc:	1a729ee3          	bne	t0,t2,80001c98 <fail>

00000000800012e0 <test_125>:
    800012e0:	07d00193          	li	gp,125
    800012e4:	0005b283          	ld	t0,0(a1)
    800012e8:	00858593          	addi	a1,a1,8
    800012ec:	0010039b          	addiw	t2,zero,1
    800012f0:	02039393          	slli	t2,t2,0x20
    800012f4:	00138393          	addi	t2,t2,1
    800012f8:	01039393          	slli	t2,t2,0x10
    800012fc:	18729ee3          	bne	t0,t2,80001c98 <fail>

0000000080001300 <test_126>:
    80001300:	07e00193          	li	gp,126
    80001304:	0005b283          	ld	t0,0(a1)
    80001308:	00858593          	addi	a1,a1,8
    8000130c:	000043b7          	lui	t2,0x4
    80001310:	0013839b          	addiw	t2,t2,1
    80001314:	01239393          	slli	t2,t2,0x12
    80001318:	ff838393          	addi	t2,t2,-8 # 3ff8 <_start-0x7fffc008>
    8000131c:	16729ee3          	bne	t0,t2,80001c98 <fail>

0000000080001320 <test_127>:
    80001320:	07f00193          	li	gp,127
    80001324:	0005b283          	ld	t0,0(a1)
    80001328:	00858593          	addi	a1,a1,8
    8000132c:	000103b7          	lui	t2,0x10
    80001330:	0073839b          	addiw	t2,t2,7
    80001334:	01039393          	slli	t2,t2,0x10
    80001338:	167290e3          	bne	t0,t2,80001c98 <fail>

000000008000133c <test_128>:
    8000133c:	08000193          	li	gp,128
    80001340:	0005b283          	ld	t0,0(a1)
    80001344:	00858593          	addi	a1,a1,8
    80001348:	ffff03b7          	lui	t2,0xffff0
    8000134c:	fff3839b          	addiw	t2,t2,-1
    80001350:	01c39393          	slli	t2,t2,0x1c
    80001354:	fff38393          	addi	t2,t2,-1 # fffffffffffeffff <_end+0xffffffff7ffece3f>
    80001358:	147290e3          	bne	t0,t2,80001c98 <fail>

000000008000135c <test_129>:
    8000135c:	08100193          	li	gp,129
    80001360:	0005b283          	ld	t0,0(a1)
    80001364:	00858593          	addi	a1,a1,8
    80001368:	0010039b          	addiw	t2,zero,1
    8000136c:	02039393          	slli	t2,t2,0x20
    80001370:	00138393          	addi	t2,t2,1
    80001374:	01039393          	slli	t2,t2,0x10
    80001378:	127290e3          	bne	t0,t2,80001c98 <fail>
    8000137c:	fff00293          	li	t0,-1
    80001380:	0c92f357          	vsetvli	t1,t0,e16,m2,ta,ma
    80001384:	00002617          	auipc	a2,0x2
    80001388:	d8c60613          	addi	a2,a2,-628 # 80003110 <tdat>
    8000138c:	02065407          	vle16.v	v8,(a2)
    80001390:	0ca2f357          	vsetvli	t1,t0,e16,m4,ta,ma
    80001394:	02065207          	vle16.v	v4,(a2)
    80001398:	00002617          	auipc	a2,0x2
    8000139c:	d8060613          	addi	a2,a2,-640 # 80003118 <tdat+0x8>
    800013a0:	0c92f357          	vsetvli	t1,t0,e16,m2,ta,ma
    800013a4:	02065607          	vle16.v	v12,(a2)
    800013a8:	02000293          	li	t0,32
    800013ac:	0c92f357          	vsetvli	t1,t0,e16,m2,ta,ma
    800013b0:	c2860257          	vwredsumu.vs	v4,v8,v12
    800013b4:	fff00293          	li	t0,-1
    800013b8:	0ca2f357          	vsetvli	t1,t0,e16,m4,ta,ma
    800013bc:	00002597          	auipc	a1,0x2
    800013c0:	c4458593          	addi	a1,a1,-956 # 80003000 <begin_signature>
    800013c4:	0205d227          	vse16.v	v4,(a1)

00000000800013c8 <test_130>:
    800013c8:	08200193          	li	gp,130
    800013cc:	0005b283          	ld	t0,0(a1)
    800013d0:	00858593          	addi	a1,a1,8
    800013d4:	000403b7          	lui	t2,0x40
    800013d8:	0433839b          	addiw	t2,t2,67
    800013dc:	00e39393          	slli	t2,t2,0xe
    800013e0:	00438393          	addi	t2,t2,4 # 40004 <_start-0x7ffbfffc>
    800013e4:	0a729ae3          	bne	t0,t2,80001c98 <fail>

00000000800013e8 <test_131>:
    800013e8:	08300193          	li	gp,131
    800013ec:	0005b283          	ld	t0,0(a1)
    800013f0:	00858593          	addi	a1,a1,8
    800013f4:	000103b7          	lui	t2,0x10
    800013f8:	0073839b          	addiw	t2,t2,7
    800013fc:	01039393          	slli	t2,t2,0x10
    80001400:	08729ce3          	bne	t0,t2,80001c98 <fail>

0000000080001404 <test_132>:
    80001404:	08400193          	li	gp,132
    80001408:	0005b283          	ld	t0,0(a1)
    8000140c:	00858593          	addi	a1,a1,8
    80001410:	ffff03b7          	lui	t2,0xffff0
    80001414:	fff3839b          	addiw	t2,t2,-1
    80001418:	01c39393          	slli	t2,t2,0x1c
    8000141c:	fff38393          	addi	t2,t2,-1 # fffffffffffeffff <_end+0xffffffff7ffece3f>
    80001420:	06729ce3          	bne	t0,t2,80001c98 <fail>

0000000080001424 <test_133>:
    80001424:	08500193          	li	gp,133
    80001428:	0005b283          	ld	t0,0(a1)
    8000142c:	00858593          	addi	a1,a1,8
    80001430:	0010039b          	addiw	t2,zero,1
    80001434:	02039393          	slli	t2,t2,0x20
    80001438:	00138393          	addi	t2,t2,1
    8000143c:	01039393          	slli	t2,t2,0x10
    80001440:	04729ce3          	bne	t0,t2,80001c98 <fail>

0000000080001444 <test_134>:
    80001444:	08600193          	li	gp,134
    80001448:	0005b283          	ld	t0,0(a1)
    8000144c:	00858593          	addi	a1,a1,8
    80001450:	000043b7          	lui	t2,0x4
    80001454:	0013839b          	addiw	t2,t2,1
    80001458:	01239393          	slli	t2,t2,0x12
    8000145c:	ff838393          	addi	t2,t2,-8 # 3ff8 <_start-0x7fffc008>
    80001460:	02729ce3          	bne	t0,t2,80001c98 <fail>

0000000080001464 <test_135>:
    80001464:	08700193          	li	gp,135
    80001468:	0005b283          	ld	t0,0(a1)
    8000146c:	00858593          	addi	a1,a1,8
    80001470:	000103b7          	lui	t2,0x10
    80001474:	0073839b          	addiw	t2,t2,7
    80001478:	01039393          	slli	t2,t2,0x10
    8000147c:	00729ee3          	bne	t0,t2,80001c98 <fail>

0000000080001480 <test_136>:
    80001480:	08800193          	li	gp,136
    80001484:	0005b283          	ld	t0,0(a1)
    80001488:	00858593          	addi	a1,a1,8
    8000148c:	ffff03b7          	lui	t2,0xffff0
    80001490:	fff3839b          	addiw	t2,t2,-1
    80001494:	01c39393          	slli	t2,t2,0x1c
    80001498:	fff38393          	addi	t2,t2,-1 # fffffffffffeffff <_end+0xffffffff7ffece3f>
    8000149c:	7e729e63          	bne	t0,t2,80001c98 <fail>

00000000800014a0 <test_137>:
    800014a0:	08900193          	li	gp,137
    800014a4:	0005b283          	ld	t0,0(a1)
    800014a8:	00858593          	addi	a1,a1,8
    800014ac:	0010039b          	addiw	t2,zero,1
    800014b0:	02039393          	slli	t2,t2,0x20
    800014b4:	00138393          	addi	t2,t2,1
    800014b8:	01039393          	slli	t2,t2,0x10
    800014bc:	7c729e63          	bne	t0,t2,80001c98 <fail>

00000000800014c0 <test_138>:
    800014c0:	08a00193          	li	gp,138
    800014c4:	0005b283          	ld	t0,0(a1)
    800014c8:	00858593          	addi	a1,a1,8
    800014cc:	000043b7          	lui	t2,0x4
    800014d0:	0013839b          	addiw	t2,t2,1
    800014d4:	01239393          	slli	t2,t2,0x12
    800014d8:	ff838393          	addi	t2,t2,-8 # 3ff8 <_start-0x7fffc008>
    800014dc:	7a729e63          	bne	t0,t2,80001c98 <fail>

00000000800014e0 <test_139>:
    800014e0:	08b00193          	li	gp,139
    800014e4:	0005b283          	ld	t0,0(a1)
    800014e8:	00858593          	addi	a1,a1,8
    800014ec:	000103b7          	lui	t2,0x10
    800014f0:	0073839b          	addiw	t2,t2,7
    800014f4:	01039393          	slli	t2,t2,0x10
    800014f8:	7a729063          	bne	t0,t2,80001c98 <fail>

00000000800014fc <test_140>:
    800014fc:	08c00193          	li	gp,140
    80001500:	0005b283          	ld	t0,0(a1)
    80001504:	00858593          	addi	a1,a1,8
    80001508:	ffff03b7          	lui	t2,0xffff0
    8000150c:	fff3839b          	addiw	t2,t2,-1
    80001510:	01c39393          	slli	t2,t2,0x1c
    80001514:	fff38393          	addi	t2,t2,-1 # fffffffffffeffff <_end+0xffffffff7ffece3f>
    80001518:	78729063          	bne	t0,t2,80001c98 <fail>

000000008000151c <test_141>:
    8000151c:	08d00193          	li	gp,141
    80001520:	0005b283          	ld	t0,0(a1)
    80001524:	00858593          	addi	a1,a1,8
    80001528:	0010039b          	addiw	t2,zero,1
    8000152c:	02039393          	slli	t2,t2,0x20
    80001530:	00138393          	addi	t2,t2,1
    80001534:	01039393          	slli	t2,t2,0x10
    80001538:	76729063          	bne	t0,t2,80001c98 <fail>

000000008000153c <test_142>:
    8000153c:	08e00193          	li	gp,142
    80001540:	0005b283          	ld	t0,0(a1)
    80001544:	00858593          	addi	a1,a1,8
    80001548:	000043b7          	lui	t2,0x4
    8000154c:	0013839b          	addiw	t2,t2,1
    80001550:	01239393          	slli	t2,t2,0x12
    80001554:	ff838393          	addi	t2,t2,-8 # 3ff8 <_start-0x7fffc008>
    80001558:	74729063          	bne	t0,t2,80001c98 <fail>

000000008000155c <test_143>:
    8000155c:	08f00193          	li	gp,143
    80001560:	0005b283          	ld	t0,0(a1)
    80001564:	00858593          	addi	a1,a1,8
    80001568:	000103b7          	lui	t2,0x10
    8000156c:	0073839b          	addiw	t2,t2,7
    80001570:	01039393          	slli	t2,t2,0x10
    80001574:	72729263          	bne	t0,t2,80001c98 <fail>

0000000080001578 <test_144>:
    80001578:	09000193          	li	gp,144
    8000157c:	0005b283          	ld	t0,0(a1)
    80001580:	00858593          	addi	a1,a1,8
    80001584:	ffff03b7          	lui	t2,0xffff0
    80001588:	fff3839b          	addiw	t2,t2,-1
    8000158c:	01c39393          	slli	t2,t2,0x1c
    80001590:	fff38393          	addi	t2,t2,-1 # fffffffffffeffff <_end+0xffffffff7ffece3f>
    80001594:	70729263          	bne	t0,t2,80001c98 <fail>

0000000080001598 <test_145>:
    80001598:	09100193          	li	gp,145
    8000159c:	0005b283          	ld	t0,0(a1)
    800015a0:	00858593          	addi	a1,a1,8
    800015a4:	0010039b          	addiw	t2,zero,1
    800015a8:	02039393          	slli	t2,t2,0x20
    800015ac:	00138393          	addi	t2,t2,1
    800015b0:	01039393          	slli	t2,t2,0x10
    800015b4:	6e729263          	bne	t0,t2,80001c98 <fail>
    800015b8:	fff00293          	li	t0,-1
    800015bc:	0c92f357          	vsetvli	t1,t0,e16,m2,ta,ma
    800015c0:	00002617          	auipc	a2,0x2
    800015c4:	b5060613          	addi	a2,a2,-1200 # 80003110 <tdat>
    800015c8:	02065407          	vle16.v	v8,(a2)
    800015cc:	0ca2f357          	vsetvli	t1,t0,e16,m4,ta,ma
    800015d0:	02065207          	vle16.v	v4,(a2)
    800015d4:	00002617          	auipc	a2,0x2
    800015d8:	b4460613          	addi	a2,a2,-1212 # 80003118 <tdat+0x8>
    800015dc:	0c92f357          	vsetvli	t1,t0,e16,m2,ta,ma
    800015e0:	02065607          	vle16.v	v12,(a2)
    800015e4:	02000293          	li	t0,32
    800015e8:	0892f357          	vsetvli	t1,t0,e16,m2,tu,ma
    800015ec:	c2860257          	vwredsumu.vs	v4,v8,v12
    800015f0:	fff00293          	li	t0,-1
    800015f4:	0ca2f357          	vsetvli	t1,t0,e16,m4,ta,ma
    800015f8:	00002597          	auipc	a1,0x2
    800015fc:	a0858593          	addi	a1,a1,-1528 # 80003000 <begin_signature>
    80001600:	0205d227          	vse16.v	v4,(a1)

0000000080001604 <test_146>:
    80001604:	09200193          	li	gp,146
    80001608:	0005b283          	ld	t0,0(a1)
    8000160c:	00858593          	addi	a1,a1,8
    80001610:	000403b7          	lui	t2,0x40
    80001614:	0433839b          	addiw	t2,t2,67
    80001618:	00e39393          	slli	t2,t2,0xe
    8000161c:	00438393          	addi	t2,t2,4 # 40004 <_start-0x7ffbfffc>
    80001620:	66729c63          	bne	t0,t2,80001c98 <fail>

0000000080001624 <test_147>:
    80001624:	09300193          	li	gp,147
    80001628:	0005b283          	ld	t0,0(a1)
    8000162c:	00858593          	addi	a1,a1,8
    80001630:	000103b7          	lui	t2,0x10
    80001634:	0073839b          	addiw	t2,t2,7
    80001638:	01039393          	slli	t2,t2,0x10
    8000163c:	64729e63          	bne	t0,t2,80001c98 <fail>

0000000080001640 <test_148>:
    80001640:	09400193          	li	gp,148
    80001644:	0005b283          	ld	t0,0(a1)
    80001648:	00858593          	addi	a1,a1,8
    8000164c:	ffff03b7          	lui	t2,0xffff0
    80001650:	fff3839b          	addiw	t2,t2,-1
    80001654:	01c39393          	slli	t2,t2,0x1c
    80001658:	fff38393          	addi	t2,t2,-1 # fffffffffffeffff <_end+0xffffffff7ffece3f>
    8000165c:	62729e63          	bne	t0,t2,80001c98 <fail>

0000000080001660 <test_149>:
    80001660:	09500193          	li	gp,149
    80001664:	0005b283          	ld	t0,0(a1)
    80001668:	00858593          	addi	a1,a1,8
    8000166c:	0010039b          	addiw	t2,zero,1
    80001670:	02039393          	slli	t2,t2,0x20
    80001674:	00138393          	addi	t2,t2,1
    80001678:	01039393          	slli	t2,t2,0x10
    8000167c:	60729e63          	bne	t0,t2,80001c98 <fail>

0000000080001680 <test_150>:
    80001680:	09600193          	li	gp,150
    80001684:	0005b283          	ld	t0,0(a1)
    80001688:	00858593          	addi	a1,a1,8
    8000168c:	000043b7          	lui	t2,0x4
    80001690:	0013839b          	addiw	t2,t2,1
    80001694:	01239393          	slli	t2,t2,0x12
    80001698:	ff838393          	addi	t2,t2,-8 # 3ff8 <_start-0x7fffc008>
    8000169c:	5e729e63          	bne	t0,t2,80001c98 <fail>

00000000800016a0 <test_151>:
    800016a0:	09700193          	li	gp,151
    800016a4:	0005b283          	ld	t0,0(a1)
    800016a8:	00858593          	addi	a1,a1,8
    800016ac:	000103b7          	lui	t2,0x10
    800016b0:	0073839b          	addiw	t2,t2,7
    800016b4:	01039393          	slli	t2,t2,0x10
    800016b8:	5e729063          	bne	t0,t2,80001c98 <fail>

00000000800016bc <test_152>:
    800016bc:	09800193          	li	gp,152
    800016c0:	0005b283          	ld	t0,0(a1)
    800016c4:	00858593          	addi	a1,a1,8
    800016c8:	ffff03b7          	lui	t2,0xffff0
    800016cc:	fff3839b          	addiw	t2,t2,-1
    800016d0:	01c39393          	slli	t2,t2,0x1c
    800016d4:	fff38393          	addi	t2,t2,-1 # fffffffffffeffff <_end+0xffffffff7ffece3f>
    800016d8:	5c729063          	bne	t0,t2,80001c98 <fail>

00000000800016dc <test_153>:
    800016dc:	09900193          	li	gp,153
    800016e0:	0005b283          	ld	t0,0(a1)
    800016e4:	00858593          	addi	a1,a1,8
    800016e8:	0010039b          	addiw	t2,zero,1
    800016ec:	02039393          	slli	t2,t2,0x20
    800016f0:	00138393          	addi	t2,t2,1
    800016f4:	01039393          	slli	t2,t2,0x10
    800016f8:	5a729063          	bne	t0,t2,80001c98 <fail>

00000000800016fc <test_154>:
    800016fc:	09a00193          	li	gp,154
    80001700:	0005b283          	ld	t0,0(a1)
    80001704:	00858593          	addi	a1,a1,8
    80001708:	000043b7          	lui	t2,0x4
    8000170c:	0013839b          	addiw	t2,t2,1
    80001710:	01239393          	slli	t2,t2,0x12
    80001714:	ff838393          	addi	t2,t2,-8 # 3ff8 <_start-0x7fffc008>
    80001718:	58729063          	bne	t0,t2,80001c98 <fail>

000000008000171c <test_155>:
    8000171c:	09b00193          	li	gp,155
    80001720:	0005b283          	ld	t0,0(a1)
    80001724:	00858593          	addi	a1,a1,8
    80001728:	000103b7          	lui	t2,0x10
    8000172c:	0073839b          	addiw	t2,t2,7
    80001730:	01039393          	slli	t2,t2,0x10
    80001734:	56729263          	bne	t0,t2,80001c98 <fail>

0000000080001738 <test_156>:
    80001738:	09c00193          	li	gp,156
    8000173c:	0005b283          	ld	t0,0(a1)
    80001740:	00858593          	addi	a1,a1,8
    80001744:	ffff03b7          	lui	t2,0xffff0
    80001748:	fff3839b          	addiw	t2,t2,-1
    8000174c:	01c39393          	slli	t2,t2,0x1c
    80001750:	fff38393          	addi	t2,t2,-1 # fffffffffffeffff <_end+0xffffffff7ffece3f>
    80001754:	54729263          	bne	t0,t2,80001c98 <fail>

0000000080001758 <test_157>:
    80001758:	09d00193          	li	gp,157
    8000175c:	0005b283          	ld	t0,0(a1)
    80001760:	00858593          	addi	a1,a1,8
    80001764:	0010039b          	addiw	t2,zero,1
    80001768:	02039393          	slli	t2,t2,0x20
    8000176c:	00138393          	addi	t2,t2,1
    80001770:	01039393          	slli	t2,t2,0x10
    80001774:	52729263          	bne	t0,t2,80001c98 <fail>

0000000080001778 <test_158>:
    80001778:	09e00193          	li	gp,158
    8000177c:	0005b283          	ld	t0,0(a1)
    80001780:	00858593          	addi	a1,a1,8
    80001784:	000043b7          	lui	t2,0x4
    80001788:	0013839b          	addiw	t2,t2,1
    8000178c:	01239393          	slli	t2,t2,0x12
    80001790:	ff838393          	addi	t2,t2,-8 # 3ff8 <_start-0x7fffc008>
    80001794:	50729263          	bne	t0,t2,80001c98 <fail>

0000000080001798 <test_159>:
    80001798:	09f00193          	li	gp,159
    8000179c:	0005b283          	ld	t0,0(a1)
    800017a0:	00858593          	addi	a1,a1,8
    800017a4:	000103b7          	lui	t2,0x10
    800017a8:	0073839b          	addiw	t2,t2,7
    800017ac:	01039393          	slli	t2,t2,0x10
    800017b0:	4e729463          	bne	t0,t2,80001c98 <fail>

00000000800017b4 <test_160>:
    800017b4:	0a000193          	li	gp,160
    800017b8:	0005b283          	ld	t0,0(a1)
    800017bc:	00858593          	addi	a1,a1,8
    800017c0:	ffff03b7          	lui	t2,0xffff0
    800017c4:	fff3839b          	addiw	t2,t2,-1
    800017c8:	01c39393          	slli	t2,t2,0x1c
    800017cc:	fff38393          	addi	t2,t2,-1 # fffffffffffeffff <_end+0xffffffff7ffece3f>
    800017d0:	4c729463          	bne	t0,t2,80001c98 <fail>

00000000800017d4 <test_161>:
    800017d4:	0a100193          	li	gp,161
    800017d8:	0005b283          	ld	t0,0(a1)
    800017dc:	00858593          	addi	a1,a1,8
    800017e0:	0010039b          	addiw	t2,zero,1
    800017e4:	02039393          	slli	t2,t2,0x20
    800017e8:	00138393          	addi	t2,t2,1
    800017ec:	01039393          	slli	t2,t2,0x10
    800017f0:	4a729463          	bne	t0,t2,80001c98 <fail>
    800017f4:	fff00293          	li	t0,-1
    800017f8:	0c92f357          	vsetvli	t1,t0,e16,m2,ta,ma
    800017fc:	00002617          	auipc	a2,0x2
    80001800:	91460613          	addi	a2,a2,-1772 # 80003110 <tdat>
    80001804:	02065407          	vle16.v	v8,(a2)
    80001808:	0ca2f357          	vsetvli	t1,t0,e16,m4,ta,ma
    8000180c:	02065207          	vle16.v	v4,(a2)
    80001810:	00002617          	auipc	a2,0x2
    80001814:	90860613          	addi	a2,a2,-1784 # 80003118 <tdat+0x8>
    80001818:	0c92f357          	vsetvli	t1,t0,e16,m2,ta,ma
    8000181c:	02065607          	vle16.v	v12,(a2)
    80001820:	fff00293          	li	t0,-1
    80001824:	0c02f357          	vsetvli	t1,t0,e8,m1,ta,ma
    80001828:	00002697          	auipc	a3,0x2
    8000182c:	97068693          	addi	a3,a3,-1680 # 80003198 <mask>
    80001830:	02068007          	vle8.v	v0,(a3)
    80001834:	02000293          	li	t0,32
    80001838:	0c92f357          	vsetvli	t1,t0,e16,m2,ta,ma
    8000183c:	c0860257          	vwredsumu.vs	v4,v8,v12,v0.t
    80001840:	fff00293          	li	t0,-1
    80001844:	0ca2f357          	vsetvli	t1,t0,e16,m4,ta,ma
    80001848:	00001597          	auipc	a1,0x1
    8000184c:	7b858593          	addi	a1,a1,1976 # 80003000 <begin_signature>
    80001850:	0205d227          	vse16.v	v4,(a1)

0000000080001854 <test_162>:
    80001854:	0a200193          	li	gp,162
    80001858:	0005b283          	ld	t0,0(a1)
    8000185c:	00858593          	addi	a1,a1,8
    80001860:	000803b7          	lui	t2,0x80
    80001864:	0673839b          	addiw	t2,t2,103
    80001868:	00d39393          	slli	t2,t2,0xd
    8000186c:	ff038393          	addi	t2,t2,-16 # 7fff0 <_start-0x7ff80010>
    80001870:	42729463          	bne	t0,t2,80001c98 <fail>

0000000080001874 <test_163>:
    80001874:	0a300193          	li	gp,163
    80001878:	0005b283          	ld	t0,0(a1)
    8000187c:	00858593          	addi	a1,a1,8
    80001880:	000103b7          	lui	t2,0x10
    80001884:	0073839b          	addiw	t2,t2,7
    80001888:	01039393          	slli	t2,t2,0x10
    8000188c:	40729663          	bne	t0,t2,80001c98 <fail>

0000000080001890 <test_164>:
    80001890:	0a400193          	li	gp,164
    80001894:	0005b283          	ld	t0,0(a1)
    80001898:	00858593          	addi	a1,a1,8
    8000189c:	ffff03b7          	lui	t2,0xffff0
    800018a0:	fff3839b          	addiw	t2,t2,-1
    800018a4:	01c39393          	slli	t2,t2,0x1c
    800018a8:	fff38393          	addi	t2,t2,-1 # fffffffffffeffff <_end+0xffffffff7ffece3f>
    800018ac:	3e729663          	bne	t0,t2,80001c98 <fail>

00000000800018b0 <test_165>:
    800018b0:	0a500193          	li	gp,165
    800018b4:	0005b283          	ld	t0,0(a1)
    800018b8:	00858593          	addi	a1,a1,8
    800018bc:	0010039b          	addiw	t2,zero,1
    800018c0:	02039393          	slli	t2,t2,0x20
    800018c4:	00138393          	addi	t2,t2,1
    800018c8:	01039393          	slli	t2,t2,0x10
    800018cc:	3c729663          	bne	t0,t2,80001c98 <fail>

00000000800018d0 <test_166>:
    800018d0:	0a600193          	li	gp,166
    800018d4:	0005b283          	ld	t0,0(a1)
    800018d8:	00858593          	addi	a1,a1,8
    800018dc:	000043b7          	lui	t2,0x4
    800018e0:	0013839b          	addiw	t2,t2,1
    800018e4:	01239393          	slli	t2,t2,0x12
    800018e8:	ff838393          	addi	t2,t2,-8 # 3ff8 <_start-0x7fffc008>
    800018ec:	3a729663          	bne	t0,t2,80001c98 <fail>

00000000800018f0 <test_167>:
    800018f0:	0a700193          	li	gp,167
    800018f4:	0005b283          	ld	t0,0(a1)
    800018f8:	00858593          	addi	a1,a1,8
    800018fc:	000103b7          	lui	t2,0x10
    80001900:	0073839b          	addiw	t2,t2,7
    80001904:	01039393          	slli	t2,t2,0x10
    80001908:	38729863          	bne	t0,t2,80001c98 <fail>

000000008000190c <test_168>:
    8000190c:	0a800193          	li	gp,168
    80001910:	0005b283          	ld	t0,0(a1)
    80001914:	00858593          	addi	a1,a1,8
    80001918:	ffff03b7          	lui	t2,0xffff0
    8000191c:	fff3839b          	addiw	t2,t2,-1
    80001920:	01c39393          	slli	t2,t2,0x1c
    80001924:	fff38393          	addi	t2,t2,-1 # fffffffffffeffff <_end+0xffffffff7ffece3f>
    80001928:	36729863          	bne	t0,t2,80001c98 <fail>

000000008000192c <test_169>:
    8000192c:	0a900193          	li	gp,169
    80001930:	0005b283          	ld	t0,0(a1)
    80001934:	00858593          	addi	a1,a1,8
    80001938:	0010039b          	addiw	t2,zero,1
    8000193c:	02039393          	slli	t2,t2,0x20
    80001940:	00138393          	addi	t2,t2,1
    80001944:	01039393          	slli	t2,t2,0x10
    80001948:	34729863          	bne	t0,t2,80001c98 <fail>

000000008000194c <test_170>:
    8000194c:	0aa00193          	li	gp,170
    80001950:	0005b283          	ld	t0,0(a1)
    80001954:	00858593          	addi	a1,a1,8
    80001958:	000043b7          	lui	t2,0x4
    8000195c:	0013839b          	addiw	t2,t2,1
    80001960:	01239393          	slli	t2,t2,0x12
    80001964:	ff838393          	addi	t2,t2,-8 # 3ff8 <_start-0x7fffc008>
    80001968:	32729863          	bne	t0,t2,80001c98 <fail>

000000008000196c <test_171>:
    8000196c:	0ab00193          	li	gp,171
    80001970:	0005b283          	ld	t0,0(a1)
    80001974:	00858593          	addi	a1,a1,8
    80001978:	000103b7          	lui	t2,0x10
    8000197c:	0073839b          	addiw	t2,t2,7
    80001980:	01039393          	slli	t2,t2,0x10
    80001984:	30729a63          	bne	t0,t2,80001c98 <fail>

0000000080001988 <test_172>:
    80001988:	0ac00193          	li	gp,172
    8000198c:	0005b283          	ld	t0,0(a1)
    80001990:	00858593          	addi	a1,a1,8
    80001994:	ffff03b7          	lui	t2,0xffff0
    80001998:	fff3839b          	addiw	t2,t2,-1
    8000199c:	01c39393          	slli	t2,t2,0x1c
    800019a0:	fff38393          	addi	t2,t2,-1 # fffffffffffeffff <_end+0xffffffff7ffece3f>
    800019a4:	2e729a63          	bne	t0,t2,80001c98 <fail>

00000000800019a8 <test_173>:
    800019a8:	0ad00193          	li	gp,173
    800019ac:	0005b283          	ld	t0,0(a1)
    800019b0:	00858593          	addi	a1,a1,8
    800019b4:	0010039b          	addiw	t2,zero,1
    800019b8:	02039393          	slli	t2,t2,0x20
    800019bc:	00138393          	addi	t2,t2,1
    800019c0:	01039393          	slli	t2,t2,0x10
    800019c4:	2c729a63          	bne	t0,t2,80001c98 <fail>

00000000800019c8 <test_174>:
    800019c8:	0ae00193          	li	gp,174
    800019cc:	0005b283          	ld	t0,0(a1)
    800019d0:	00858593          	addi	a1,a1,8
    800019d4:	000043b7          	lui	t2,0x4
    800019d8:	0013839b          	addiw	t2,t2,1
    800019dc:	01239393          	slli	t2,t2,0x12
    800019e0:	ff838393          	addi	t2,t2,-8 # 3ff8 <_start-0x7fffc008>
    800019e4:	2a729a63          	bne	t0,t2,80001c98 <fail>

00000000800019e8 <test_175>:
    800019e8:	0af00193          	li	gp,175
    800019ec:	0005b283          	ld	t0,0(a1)
    800019f0:	00858593          	addi	a1,a1,8
    800019f4:	000103b7          	lui	t2,0x10
    800019f8:	0073839b          	addiw	t2,t2,7
    800019fc:	01039393          	slli	t2,t2,0x10
    80001a00:	28729c63          	bne	t0,t2,80001c98 <fail>

0000000080001a04 <test_176>:
    80001a04:	0b000193          	li	gp,176
    80001a08:	0005b283          	ld	t0,0(a1)
    80001a0c:	00858593          	addi	a1,a1,8
    80001a10:	ffff03b7          	lui	t2,0xffff0
    80001a14:	fff3839b          	addiw	t2,t2,-1
    80001a18:	01c39393          	slli	t2,t2,0x1c
    80001a1c:	fff38393          	addi	t2,t2,-1 # fffffffffffeffff <_end+0xffffffff7ffece3f>
    80001a20:	26729c63          	bne	t0,t2,80001c98 <fail>

0000000080001a24 <test_177>:
    80001a24:	0b100193          	li	gp,177
    80001a28:	0005b283          	ld	t0,0(a1)
    80001a2c:	00858593          	addi	a1,a1,8
    80001a30:	0010039b          	addiw	t2,zero,1
    80001a34:	02039393          	slli	t2,t2,0x20
    80001a38:	00138393          	addi	t2,t2,1
    80001a3c:	01039393          	slli	t2,t2,0x10
    80001a40:	24729c63          	bne	t0,t2,80001c98 <fail>
    80001a44:	fff00293          	li	t0,-1
    80001a48:	0c92f357          	vsetvli	t1,t0,e16,m2,ta,ma
    80001a4c:	00001617          	auipc	a2,0x1
    80001a50:	6c460613          	addi	a2,a2,1732 # 80003110 <tdat>
    80001a54:	02065407          	vle16.v	v8,(a2)
    80001a58:	0ca2f357          	vsetvli	t1,t0,e16,m4,ta,ma
    80001a5c:	02065207          	vle16.v	v4,(a2)
    80001a60:	00001617          	auipc	a2,0x1
    80001a64:	6b860613          	addi	a2,a2,1720 # 80003118 <tdat+0x8>
    80001a68:	0c92f357          	vsetvli	t1,t0,e16,m2,ta,ma
    80001a6c:	02065607          	vle16.v	v12,(a2)
    80001a70:	fff00293          	li	t0,-1
    80001a74:	0c02f357          	vsetvli	t1,t0,e8,m1,ta,ma
    80001a78:	00001697          	auipc	a3,0x1
    80001a7c:	72068693          	addi	a3,a3,1824 # 80003198 <mask>
    80001a80:	02068007          	vle8.v	v0,(a3)
    80001a84:	02000293          	li	t0,32
    80001a88:	0c92f357          	vsetvli	t1,t0,e16,m2,ta,ma
    80001a8c:	c0860257          	vwredsumu.vs	v4,v8,v12,v0.t
    80001a90:	fff00293          	li	t0,-1
    80001a94:	0ca2f357          	vsetvli	t1,t0,e16,m4,ta,ma
    80001a98:	00001597          	auipc	a1,0x1
    80001a9c:	56858593          	addi	a1,a1,1384 # 80003000 <begin_signature>
    80001aa0:	0205d227          	vse16.v	v4,(a1)

0000000080001aa4 <test_178>:
    80001aa4:	0b200193          	li	gp,178
    80001aa8:	0005b283          	ld	t0,0(a1)
    80001aac:	00858593          	addi	a1,a1,8
    80001ab0:	000803b7          	lui	t2,0x80
    80001ab4:	0673839b          	addiw	t2,t2,103
    80001ab8:	00d39393          	slli	t2,t2,0xd
    80001abc:	ff038393          	addi	t2,t2,-16 # 7fff0 <_start-0x7ff80010>
    80001ac0:	1c729c63          	bne	t0,t2,80001c98 <fail>

0000000080001ac4 <test_179>:
    80001ac4:	0b300193          	li	gp,179
    80001ac8:	0005b283          	ld	t0,0(a1)
    80001acc:	00858593          	addi	a1,a1,8
    80001ad0:	000103b7          	lui	t2,0x10
    80001ad4:	0073839b          	addiw	t2,t2,7
    80001ad8:	01039393          	slli	t2,t2,0x10
    80001adc:	1a729e63          	bne	t0,t2,80001c98 <fail>

0000000080001ae0 <test_180>:
    80001ae0:	0b400193          	li	gp,180
    80001ae4:	0005b283          	ld	t0,0(a1)
    80001ae8:	00858593          	addi	a1,a1,8
    80001aec:	ffff03b7          	lui	t2,0xffff0
    80001af0:	fff3839b          	addiw	t2,t2,-1
    80001af4:	01c39393          	slli	t2,t2,0x1c
    80001af8:	fff38393          	addi	t2,t2,-1 # fffffffffffeffff <_end+0xffffffff7ffece3f>
    80001afc:	18729e63          	bne	t0,t2,80001c98 <fail>

0000000080001b00 <test_181>:
    80001b00:	0b500193          	li	gp,181
    80001b04:	0005b283          	ld	t0,0(a1)
    80001b08:	00858593          	addi	a1,a1,8
    80001b0c:	0010039b          	addiw	t2,zero,1
    80001b10:	02039393          	slli	t2,t2,0x20
    80001b14:	00138393          	addi	t2,t2,1
    80001b18:	01039393          	slli	t2,t2,0x10
    80001b1c:	16729e63          	bne	t0,t2,80001c98 <fail>

0000000080001b20 <test_182>:
    80001b20:	0b600193          	li	gp,182
    80001b24:	0005b283          	ld	t0,0(a1)
    80001b28:	00858593          	addi	a1,a1,8
    80001b2c:	000043b7          	lui	t2,0x4
    80001b30:	0013839b          	addiw	t2,t2,1
    80001b34:	01239393          	slli	t2,t2,0x12
    80001b38:	ff838393          	addi	t2,t2,-8 # 3ff8 <_start-0x7fffc008>
    80001b3c:	14729e63          	bne	t0,t2,80001c98 <fail>

0000000080001b40 <test_183>:
    80001b40:	0b700193          	li	gp,183
    80001b44:	0005b283          	ld	t0,0(a1)
    80001b48:	00858593          	addi	a1,a1,8
    80001b4c:	000103b7          	lui	t2,0x10
    80001b50:	0073839b          	addiw	t2,t2,7
    80001b54:	01039393          	slli	t2,t2,0x10
    80001b58:	14729063          	bne	t0,t2,80001c98 <fail>

0000000080001b5c <test_184>:
    80001b5c:	0b800193          	li	gp,184
    80001b60:	0005b283          	ld	t0,0(a1)
    80001b64:	00858593          	addi	a1,a1,8
    80001b68:	ffff03b7          	lui	t2,0xffff0
    80001b6c:	fff3839b          	addiw	t2,t2,-1
    80001b70:	01c39393          	slli	t2,t2,0x1c
    80001b74:	fff38393          	addi	t2,t2,-1 # fffffffffffeffff <_end+0xffffffff7ffece3f>
    80001b78:	12729063          	bne	t0,t2,80001c98 <fail>

0000000080001b7c <test_185>:
    80001b7c:	0b900193          	li	gp,185
    80001b80:	0005b283          	ld	t0,0(a1)
    80001b84:	00858593          	addi	a1,a1,8
    80001b88:	0010039b          	addiw	t2,zero,1
    80001b8c:	02039393          	slli	t2,t2,0x20
    80001b90:	00138393          	addi	t2,t2,1
    80001b94:	01039393          	slli	t2,t2,0x10
    80001b98:	10729063          	bne	t0,t2,80001c98 <fail>

0000000080001b9c <test_186>:
    80001b9c:	0ba00193          	li	gp,186
    80001ba0:	0005b283          	ld	t0,0(a1)
    80001ba4:	00858593          	addi	a1,a1,8
    80001ba8:	000043b7          	lui	t2,0x4
    80001bac:	0013839b          	addiw	t2,t2,1
    80001bb0:	01239393          	slli	t2,t2,0x12
    80001bb4:	ff838393          	addi	t2,t2,-8 # 3ff8 <_start-0x7fffc008>
    80001bb8:	0e729063          	bne	t0,t2,80001c98 <fail>

0000000080001bbc <test_187>:
    80001bbc:	0bb00193          	li	gp,187
    80001bc0:	0005b283          	ld	t0,0(a1)
    80001bc4:	00858593          	addi	a1,a1,8
    80001bc8:	000103b7          	lui	t2,0x10
    80001bcc:	0073839b          	addiw	t2,t2,7
    80001bd0:	01039393          	slli	t2,t2,0x10
    80001bd4:	0c729263          	bne	t0,t2,80001c98 <fail>

0000000080001bd8 <test_188>:
    80001bd8:	0bc00193          	li	gp,188
    80001bdc:	0005b283          	ld	t0,0(a1)
    80001be0:	00858593          	addi	a1,a1,8
    80001be4:	ffff03b7          	lui	t2,0xffff0
    80001be8:	fff3839b          	addiw	t2,t2,-1
    80001bec:	01c39393          	slli	t2,t2,0x1c
    80001bf0:	fff38393          	addi	t2,t2,-1 # fffffffffffeffff <_end+0xffffffff7ffece3f>
    80001bf4:	0a729263          	bne	t0,t2,80001c98 <fail>

0000000080001bf8 <test_189>:
    80001bf8:	0bd00193          	li	gp,189
    80001bfc:	0005b283          	ld	t0,0(a1)
    80001c00:	00858593          	addi	a1,a1,8
    80001c04:	0010039b          	addiw	t2,zero,1
    80001c08:	02039393          	slli	t2,t2,0x20
    80001c0c:	00138393          	addi	t2,t2,1
    80001c10:	01039393          	slli	t2,t2,0x10
    80001c14:	08729263          	bne	t0,t2,80001c98 <fail>

0000000080001c18 <test_190>:
    80001c18:	0be00193          	li	gp,190
    80001c1c:	0005b283          	ld	t0,0(a1)
    80001c20:	00858593          	addi	a1,a1,8
    80001c24:	000043b7          	lui	t2,0x4
    80001c28:	0013839b          	addiw	t2,t2,1
    80001c2c:	01239393          	slli	t2,t2,0x12
    80001c30:	ff838393          	addi	t2,t2,-8 # 3ff8 <_start-0x7fffc008>
    80001c34:	06729263          	bne	t0,t2,80001c98 <fail>

0000000080001c38 <test_191>:
    80001c38:	0bf00193          	li	gp,191
    80001c3c:	0005b283          	ld	t0,0(a1)
    80001c40:	00858593          	addi	a1,a1,8
    80001c44:	000103b7          	lui	t2,0x10
    80001c48:	0073839b          	addiw	t2,t2,7
    80001c4c:	01039393          	slli	t2,t2,0x10
    80001c50:	04729463          	bne	t0,t2,80001c98 <fail>

0000000080001c54 <test_192>:
    80001c54:	0c000193          	li	gp,192
    80001c58:	0005b283          	ld	t0,0(a1)
    80001c5c:	00858593          	addi	a1,a1,8
    80001c60:	ffff03b7          	lui	t2,0xffff0
    80001c64:	fff3839b          	addiw	t2,t2,-1
    80001c68:	01c39393          	slli	t2,t2,0x1c
    80001c6c:	fff38393          	addi	t2,t2,-1 # fffffffffffeffff <_end+0xffffffff7ffece3f>
    80001c70:	02729463          	bne	t0,t2,80001c98 <fail>

0000000080001c74 <test_193>:
    80001c74:	0c100193          	li	gp,193
    80001c78:	0005b283          	ld	t0,0(a1)
    80001c7c:	00858593          	addi	a1,a1,8
    80001c80:	0010039b          	addiw	t2,zero,1
    80001c84:	02039393          	slli	t2,t2,0x20
    80001c88:	00138393          	addi	t2,t2,1
    80001c8c:	01039393          	slli	t2,t2,0x10
    80001c90:	00729463          	bne	t0,t2,80001c98 <fail>
    80001c94:	00301a63          	bne	zero,gp,80001ca8 <pass>

0000000080001c98 <fail>:
    80001c98:	0ff0000f          	fence
    80001c9c:	00018513          	mv	a0,gp
    80001ca0:	05d00893          	li	a7,93
    80001ca4:	00000073          	ecall

0000000080001ca8 <pass>:
    80001ca8:	0ff0000f          	fence
    80001cac:	00000513          	li	a0,0
    80001cb0:	05d00893          	li	a7,93
    80001cb4:	00000073          	ecall
    80001cb8:	0000                	unimp
    80001cba:	0000                	unimp
    80001cbc:	0000                	unimp
    80001cbe:	0000                	unimp
    80001cc0:	0000                	unimp
    80001cc2:	0000                	unimp
